
Brausteuerung.elf:     file format elf32-littlearm

Sections:
Idx Name          Size      VMA       LMA       File off  Algn
  0 .text         000093ac  00000000  00000000  00010000  2**3
                  CONTENTS, ALLOC, LOAD, READONLY, CODE
  1 .ARM.exidx    00000008  000093ac  000093ac  000193ac  2**2
                  CONTENTS, ALLOC, LOAD, READONLY, DATA
  2 .relocate     00000cc0  20000000  000093b4  00020000  2**3
                  CONTENTS, ALLOC, LOAD, DATA
  3 .bss          000002e4  20000cc0  0000a074  00020cc0  2**2
                  ALLOC
  4 .stack        00002004  20000fa4  0000a358  00020cc0  2**0
                  ALLOC
  5 .ARM.attributes 00000028  00000000  00000000  00020cc0  2**0
                  CONTENTS, READONLY
  6 .comment      00000059  00000000  00000000  00020ce8  2**0
                  CONTENTS, READONLY
  7 .debug_info   00017a88  00000000  00000000  00020d41  2**0
                  CONTENTS, READONLY, DEBUGGING
  8 .debug_abbrev 0000136a  00000000  00000000  000387c9  2**0
                  CONTENTS, READONLY, DEBUGGING
  9 .debug_loc    000013a9  00000000  00000000  00039b33  2**0
                  CONTENTS, READONLY, DEBUGGING
 10 .debug_aranges 00000260  00000000  00000000  0003aedc  2**0
                  CONTENTS, READONLY, DEBUGGING
 11 .debug_ranges 00000248  00000000  00000000  0003b13c  2**0
                  CONTENTS, READONLY, DEBUGGING
 12 .debug_macro  0001a1dd  00000000  00000000  0003b384  2**0
                  CONTENTS, READONLY, DEBUGGING
 13 .debug_line   000048c2  00000000  00000000  00055561  2**0
                  CONTENTS, READONLY, DEBUGGING
 14 .debug_str    0008e94c  00000000  00000000  00059e23  2**0
                  CONTENTS, READONLY, DEBUGGING
 15 .debug_frame  000012f0  00000000  00000000  000e8770  2**2
                  CONTENTS, READONLY, DEBUGGING

Disassembly of section .text:

00000000 <exception_table>:
       0:	a8 2f 00 20 31 01 00 00 1d 01 00 00 1d 01 00 00     ./. 1...........
	...
      2c:	1d 01 00 00 00 00 00 00 00 00 00 00 1d 01 00 00     ................
      3c:	1d 01 00 00 1d 01 00 00 1d 01 00 00 85 07 00 00     ................
      4c:	65 09 00 00 1d 01 00 00 1d 01 00 00 1d 01 00 00     e...............
      5c:	1d 01 00 00 1d 01 00 00 1d 01 00 00 1d 01 00 00     ................
      6c:	1d 01 00 00 1d 01 00 00 1d 01 00 00 1d 01 00 00     ................
      7c:	1d 01 00 00 1d 01 00 00 0d 08 00 00 09 0b 00 00     ................
      8c:	39 09 00 00 8d 09 00 00 1d 01 00 00 1d 01 00 00     9...............
      9c:	1d 01 00 00 1d 01 00 00 1d 01 00 00 1d 01 00 00     ................
      ac:	1d 01 00 00 1d 01 00 00 1d 01 00 00 1d 01 00 00     ................

000000bc <__do_global_dtors_aux>:
      bc:	b510      	push	{r4, lr}
      be:	4c06      	ldr	r4, [pc, #24]	; (d8 <__do_global_dtors_aux+0x1c>)
      c0:	7823      	ldrb	r3, [r4, #0]
      c2:	2b00      	cmp	r3, #0
      c4:	d107      	bne.n	d6 <__do_global_dtors_aux+0x1a>
      c6:	4b05      	ldr	r3, [pc, #20]	; (dc <__do_global_dtors_aux+0x20>)
      c8:	2b00      	cmp	r3, #0
      ca:	d002      	beq.n	d2 <__do_global_dtors_aux+0x16>
      cc:	4804      	ldr	r0, [pc, #16]	; (e0 <__do_global_dtors_aux+0x24>)
      ce:	e000      	b.n	d2 <__do_global_dtors_aux+0x16>
      d0:	bf00      	nop
      d2:	2301      	movs	r3, #1
      d4:	7023      	strb	r3, [r4, #0]
      d6:	bd10      	pop	{r4, pc}
      d8:	20000cc0 	.word	0x20000cc0
      dc:	00000000 	.word	0x00000000
      e0:	000093b4 	.word	0x000093b4

000000e4 <frame_dummy>:
      e4:	4b08      	ldr	r3, [pc, #32]	; (108 <frame_dummy+0x24>)
      e6:	b510      	push	{r4, lr}
      e8:	2b00      	cmp	r3, #0
      ea:	d003      	beq.n	f4 <frame_dummy+0x10>
      ec:	4907      	ldr	r1, [pc, #28]	; (10c <frame_dummy+0x28>)
      ee:	4808      	ldr	r0, [pc, #32]	; (110 <frame_dummy+0x2c>)
      f0:	e000      	b.n	f4 <frame_dummy+0x10>
      f2:	bf00      	nop
      f4:	4807      	ldr	r0, [pc, #28]	; (114 <frame_dummy+0x30>)
      f6:	6803      	ldr	r3, [r0, #0]
      f8:	2b00      	cmp	r3, #0
      fa:	d100      	bne.n	fe <frame_dummy+0x1a>
      fc:	bd10      	pop	{r4, pc}
      fe:	4b06      	ldr	r3, [pc, #24]	; (118 <frame_dummy+0x34>)
     100:	2b00      	cmp	r3, #0
     102:	d0fb      	beq.n	fc <frame_dummy+0x18>
     104:	4798      	blx	r3
     106:	e7f9      	b.n	fc <frame_dummy+0x18>
     108:	00000000 	.word	0x00000000
     10c:	20000cc4 	.word	0x20000cc4
     110:	000093b4 	.word	0x000093b4
     114:	000093b4 	.word	0x000093b4
     118:	00000000 	.word	0x00000000

0000011c <Dummy_Handler>:

/**
 * \brief Default interrupt handler for unused IRQs.
 */
void Dummy_Handler(void)
{
     11c:	b082      	sub	sp, #8
	volatile uint32_t phantomISR = 9999;
     11e:	4b03      	ldr	r3, [pc, #12]	; (12c <Dummy_Handler+0x10>)
     120:	9301      	str	r3, [sp, #4]
 */
__attribute__((always_inline)) __STATIC_INLINE uint32_t __get_IPSR(void)
{
  uint32_t result;

  __ASM volatile ("MRS %0, ipsr" : "=r" (result) );
     122:	f3ef 8305 	mrs	r3, IPSR
        while (1) {
			phantomISR = __get_IPSR();
     126:	9301      	str	r3, [sp, #4]
     128:	e7fb      	b.n	122 <Dummy_Handler+0x6>
     12a:	46c0      	nop			; (mov r8, r8)
     12c:	0000270f 	.word	0x0000270f

00000130 <Reset_Handler>:
{
     130:	b510      	push	{r4, lr}
        if (pSrc != pDest) {
     132:	4a17      	ldr	r2, [pc, #92]	; (190 <Reset_Handler+0x60>)
     134:	4b17      	ldr	r3, [pc, #92]	; (194 <Reset_Handler+0x64>)
     136:	429a      	cmp	r2, r3
     138:	d011      	beq.n	15e <Reset_Handler+0x2e>
                for (; pDest < &_erelocate;) {
     13a:	001a      	movs	r2, r3
     13c:	4b16      	ldr	r3, [pc, #88]	; (198 <Reset_Handler+0x68>)
     13e:	429a      	cmp	r2, r3
     140:	d20d      	bcs.n	15e <Reset_Handler+0x2e>
     142:	4a16      	ldr	r2, [pc, #88]	; (19c <Reset_Handler+0x6c>)
     144:	3303      	adds	r3, #3
     146:	1a9b      	subs	r3, r3, r2
     148:	089b      	lsrs	r3, r3, #2
     14a:	3301      	adds	r3, #1
     14c:	009b      	lsls	r3, r3, #2
     14e:	2200      	movs	r2, #0
                        *pDest++ = *pSrc++;
     150:	4810      	ldr	r0, [pc, #64]	; (194 <Reset_Handler+0x64>)
     152:	490f      	ldr	r1, [pc, #60]	; (190 <Reset_Handler+0x60>)
     154:	588c      	ldr	r4, [r1, r2]
     156:	5084      	str	r4, [r0, r2]
     158:	3204      	adds	r2, #4
                for (; pDest < &_erelocate;) {
     15a:	429a      	cmp	r2, r3
     15c:	d1fa      	bne.n	154 <Reset_Handler+0x24>
        for (pDest = &_szero; pDest < &_ezero;) {
     15e:	4a10      	ldr	r2, [pc, #64]	; (1a0 <Reset_Handler+0x70>)
     160:	4b10      	ldr	r3, [pc, #64]	; (1a4 <Reset_Handler+0x74>)
     162:	429a      	cmp	r2, r3
     164:	d20a      	bcs.n	17c <Reset_Handler+0x4c>
     166:	43d3      	mvns	r3, r2
     168:	490e      	ldr	r1, [pc, #56]	; (1a4 <Reset_Handler+0x74>)
     16a:	185b      	adds	r3, r3, r1
     16c:	2103      	movs	r1, #3
     16e:	438b      	bics	r3, r1
     170:	3304      	adds	r3, #4
     172:	189b      	adds	r3, r3, r2
                *pDest++ = 0;
     174:	2100      	movs	r1, #0
     176:	c202      	stmia	r2!, {r1}
        for (pDest = &_szero; pDest < &_ezero;) {
     178:	4293      	cmp	r3, r2
     17a:	d1fc      	bne.n	176 <Reset_Handler+0x46>
        SCB->VTOR = ((uint32_t) pSrc & SCB_VTOR_TBLOFF_Msk);
     17c:	4a0a      	ldr	r2, [pc, #40]	; (1a8 <Reset_Handler+0x78>)
     17e:	21ff      	movs	r1, #255	; 0xff
     180:	4b0a      	ldr	r3, [pc, #40]	; (1ac <Reset_Handler+0x7c>)
     182:	438b      	bics	r3, r1
     184:	6093      	str	r3, [r2, #8]
        __libc_init_array();
     186:	4b0a      	ldr	r3, [pc, #40]	; (1b0 <Reset_Handler+0x80>)
     188:	4798      	blx	r3
        main();
     18a:	4b0a      	ldr	r3, [pc, #40]	; (1b4 <Reset_Handler+0x84>)
     18c:	4798      	blx	r3
     18e:	e7fe      	b.n	18e <Reset_Handler+0x5e>
     190:	000093b4 	.word	0x000093b4
     194:	20000000 	.word	0x20000000
     198:	20000cc0 	.word	0x20000cc0
     19c:	20000004 	.word	0x20000004
     1a0:	20000cc0 	.word	0x20000cc0
     1a4:	20000fa4 	.word	0x20000fa4
     1a8:	e000ed00 	.word	0xe000ed00
     1ac:	00000000 	.word	0x00000000
     1b0:	00002bb9 	.word	0x00002bb9
     1b4:	00000e41 	.word	0x00000e41

000001b8 <SystemInit>:
 *         Initialize the System and update the SystemCoreClock variable.
 */
void SystemInit(void)
{
	// Keep the default device state after reset
	SystemCoreClock = __SYSTEM_CLOCK;
     1b8:	4a01      	ldr	r2, [pc, #4]	; (1c0 <SystemInit+0x8>)
     1ba:	4b02      	ldr	r3, [pc, #8]	; (1c4 <SystemInit+0xc>)
     1bc:	601a      	str	r2, [r3, #0]
	return;
}
     1be:	4770      	bx	lr
     1c0:	003d0900 	.word	0x003d0900
     1c4:	20000000 	.word	0x20000000

000001c8 <_Z8init_i2cv>:

#include "sam.h"
#include "I2C.h"

void init_i2c()
{
     1c8:	b530      	push	{r4, r5, lr}
	MCLK->APBCMASK.bit.SERCOM2_ = 1;
     1ca:	4a2c      	ldr	r2, [pc, #176]	; (27c <_Z8init_i2cv+0xb4>)
     1cc:	69d3      	ldr	r3, [r2, #28]
     1ce:	2108      	movs	r1, #8
     1d0:	430b      	orrs	r3, r1
     1d2:	61d3      	str	r3, [r2, #28]
	GCLK->PCHCTRL[SERCOM2_GCLK_ID_CORE].bit.GEN = 0;
     1d4:	4a2a      	ldr	r2, [pc, #168]	; (280 <_Z8init_i2cv+0xb8>)
     1d6:	23d4      	movs	r3, #212	; 0xd4
     1d8:	58d1      	ldr	r1, [r2, r3]
     1da:	200f      	movs	r0, #15
     1dc:	4381      	bics	r1, r0
     1de:	50d1      	str	r1, [r2, r3]
	GCLK->PCHCTRL[SERCOM2_GCLK_ID_CORE].bit.CHEN = 1;
     1e0:	58d1      	ldr	r1, [r2, r3]
     1e2:	3031      	adds	r0, #49	; 0x31
     1e4:	4301      	orrs	r1, r0
     1e6:	50d1      	str	r1, [r2, r3]
	while(GCLK->PCHCTRL[SERCOM2_GCLK_ID_CORE].bit.CHEN != 1);
     1e8:	0011      	movs	r1, r2
     1ea:	22d4      	movs	r2, #212	; 0xd4
     1ec:	588b      	ldr	r3, [r1, r2]
     1ee:	065b      	lsls	r3, r3, #25
     1f0:	d5fc      	bpl.n	1ec <_Z8init_i2cv+0x24>
	SERCOM2->I2CM.CTRLA.bit.ENABLE = 0;
     1f2:	4b24      	ldr	r3, [pc, #144]	; (284 <_Z8init_i2cv+0xbc>)
     1f4:	6819      	ldr	r1, [r3, #0]
     1f6:	2002      	movs	r0, #2
     1f8:	4381      	bics	r1, r0
     1fa:	6019      	str	r1, [r3, #0]
	SERCOM2->I2CM.SYNCBUSY.bit.ENABLE = 1;
     1fc:	69da      	ldr	r2, [r3, #28]
     1fe:	4302      	orrs	r2, r0
     200:	61da      	str	r2, [r3, #28]
	while (SERCOM2->I2CM.SYNCBUSY.bit.ENABLE);
     202:	001a      	movs	r2, r3
     204:	69d3      	ldr	r3, [r2, #28]
     206:	079b      	lsls	r3, r3, #30
     208:	d4fc      	bmi.n	204 <_Z8init_i2cv+0x3c>
	SERCOM2->I2CM.CTRLA.bit.MODE = 0x05; //Mastermode
     20a:	4b1e      	ldr	r3, [pc, #120]	; (284 <_Z8init_i2cv+0xbc>)
     20c:	681a      	ldr	r2, [r3, #0]
     20e:	211c      	movs	r1, #28
     210:	438a      	bics	r2, r1
     212:	3908      	subs	r1, #8
     214:	430a      	orrs	r2, r1
     216:	601a      	str	r2, [r3, #0]
	SERCOM2->I2CM.BAUD.bit.BAUD = 5; // 400 khz bei 48 MHz fclock/fi2x*2 -1
     218:	68da      	ldr	r2, [r3, #12]
     21a:	31eb      	adds	r1, #235	; 0xeb
     21c:	438a      	bics	r2, r1
     21e:	39fa      	subs	r1, #250	; 0xfa
     220:	430a      	orrs	r2, r1
     222:	60da      	str	r2, [r3, #12]
	
	PORT->Group[0].PMUX[6].bit.PMUXE = MUX_PA12C_SERCOM2_PAD0;
     224:	2282      	movs	r2, #130	; 0x82
     226:	05d2      	lsls	r2, r2, #23
     228:	2036      	movs	r0, #54	; 0x36
     22a:	5c11      	ldrb	r1, [r2, r0]
     22c:	240f      	movs	r4, #15
     22e:	43a1      	bics	r1, r4
     230:	3c0d      	subs	r4, #13
     232:	2502      	movs	r5, #2
     234:	4329      	orrs	r1, r5
     236:	5411      	strb	r1, [r2, r0]
	PORT->Group[0].PMUX[6].bit.PMUXO = MUX_PA13C_SERCOM2_PAD1;
     238:	5c15      	ldrb	r5, [r2, r0]
     23a:	210f      	movs	r1, #15
     23c:	4029      	ands	r1, r5
     23e:	2520      	movs	r5, #32
     240:	4329      	orrs	r1, r5
     242:	5411      	strb	r1, [r2, r0]
	PORT->Group[0].PINCFG[12].bit.PMUXEN = 1;
     244:	214c      	movs	r1, #76	; 0x4c
     246:	5c50      	ldrb	r0, [r2, r1]
     248:	2501      	movs	r5, #1
     24a:	4328      	orrs	r0, r5
     24c:	5450      	strb	r0, [r2, r1]
	PORT->Group[0].PINCFG[13].bit.PMUXEN = 1;
     24e:	204d      	movs	r0, #77	; 0x4d
     250:	5c11      	ldrb	r1, [r2, r0]
     252:	4329      	orrs	r1, r5
     254:	5411      	strb	r1, [r2, r0]
	SERCOM2->I2CM.CTRLA.bit.ENABLE = 1;
     256:	6819      	ldr	r1, [r3, #0]
     258:	4321      	orrs	r1, r4
     25a:	6019      	str	r1, [r3, #0]
	SERCOM2->I2CM.SYNCBUSY.bit.ENABLE = 1;
     25c:	69da      	ldr	r2, [r3, #28]
     25e:	4322      	orrs	r2, r4
     260:	61da      	str	r2, [r3, #28]
	while (SERCOM2->I2CM.SYNCBUSY.bit.ENABLE);
     262:	001a      	movs	r2, r3
     264:	69d3      	ldr	r3, [r2, #28]
     266:	079b      	lsls	r3, r3, #30
     268:	d4fc      	bmi.n	264 <_Z8init_i2cv+0x9c>
	SERCOM2->I2CM.STATUS.bit.BUSSTATE = 0x01; // IDLE bus
     26a:	4a06      	ldr	r2, [pc, #24]	; (284 <_Z8init_i2cv+0xbc>)
     26c:	8b53      	ldrh	r3, [r2, #26]
     26e:	2130      	movs	r1, #48	; 0x30
     270:	438b      	bics	r3, r1
     272:	2110      	movs	r1, #16
     274:	430b      	orrs	r3, r1
     276:	8353      	strh	r3, [r2, #26]
	//PINMUX_PA12C_SERCOM2_PAD0
	//PINMUX_PA13C_SERCOM2_PAD1
     278:	bd30      	pop	{r4, r5, pc}
     27a:	46c0      	nop			; (mov r8, r8)
     27c:	40000800 	.word	0x40000800
     280:	40001c00 	.word	0x40001c00
     284:	42000c00 	.word	0x42000c00

00000288 <_Z11sendCommandh>:
	0x00, 0x7E, 0x01, 0x49, 0x55, 0x73, // ß
};

void sendCommand(uint8_t data)
{
	SERCOM2->I2CM.ADDR.bit.ADDR = 0x78 | write;
     288:	4a0e      	ldr	r2, [pc, #56]	; (2c4 <_Z11sendCommandh+0x3c>)
     28a:	6a53      	ldr	r3, [r2, #36]	; 0x24
     28c:	0adb      	lsrs	r3, r3, #11
     28e:	02db      	lsls	r3, r3, #11
     290:	2178      	movs	r1, #120	; 0x78
     292:	430b      	orrs	r3, r1
     294:	6253      	str	r3, [r2, #36]	; 0x24
	while(!SERCOM2->I2CM.STATUS.bit.CLKHOLD);
     296:	8b53      	ldrh	r3, [r2, #26]
     298:	061b      	lsls	r3, r3, #24
     29a:	d5fc      	bpl.n	296 <_Z11sendCommandh+0xe>
	SERCOM2->I2CM.DATA.bit.DATA = COMMAND_LCD;
     29c:	2100      	movs	r1, #0
     29e:	2328      	movs	r3, #40	; 0x28
     2a0:	4a08      	ldr	r2, [pc, #32]	; (2c4 <_Z11sendCommandh+0x3c>)
     2a2:	54d1      	strb	r1, [r2, r3]
	while(!SERCOM2->I2CM.STATUS.bit.CLKHOLD);
     2a4:	8b53      	ldrh	r3, [r2, #26]
     2a6:	061b      	lsls	r3, r3, #24
     2a8:	d5fc      	bpl.n	2a4 <_Z11sendCommandh+0x1c>
	SERCOM2->I2CM.DATA.bit.DATA = data;
     2aa:	2328      	movs	r3, #40	; 0x28
     2ac:	4a05      	ldr	r2, [pc, #20]	; (2c4 <_Z11sendCommandh+0x3c>)
     2ae:	54d0      	strb	r0, [r2, r3]
	while(!SERCOM2->I2CM.STATUS.bit.CLKHOLD);
     2b0:	8b53      	ldrh	r3, [r2, #26]
     2b2:	061b      	lsls	r3, r3, #24
     2b4:	d5fc      	bpl.n	2b0 <_Z11sendCommandh+0x28>
	SERCOM2->I2CM.CTRLB.bit.CMD = 0x03;
     2b6:	4a03      	ldr	r2, [pc, #12]	; (2c4 <_Z11sendCommandh+0x3c>)
     2b8:	6851      	ldr	r1, [r2, #4]
     2ba:	23c0      	movs	r3, #192	; 0xc0
     2bc:	029b      	lsls	r3, r3, #10
     2be:	430b      	orrs	r3, r1
     2c0:	6053      	str	r3, [r2, #4]
}
     2c2:	4770      	bx	lr
     2c4:	42000c00 	.word	0x42000c00

000002c8 <_Z17sendCommand_arrayPhhh>:

void sendCommand_array(uint8_t *data,uint8_t command,uint8_t length)
{
     2c8:	b530      	push	{r4, r5, lr}
	SERCOM2->I2CM.ADDR.bit.ADDR = 0x78 | write;
     2ca:	4c13      	ldr	r4, [pc, #76]	; (318 <_Z17sendCommand_arrayPhhh+0x50>)
     2cc:	6a63      	ldr	r3, [r4, #36]	; 0x24
     2ce:	0adb      	lsrs	r3, r3, #11
     2d0:	02db      	lsls	r3, r3, #11
     2d2:	2578      	movs	r5, #120	; 0x78
     2d4:	432b      	orrs	r3, r5
     2d6:	6263      	str	r3, [r4, #36]	; 0x24
	while(!SERCOM2->I2CM.STATUS.bit.CLKHOLD);
     2d8:	8b63      	ldrh	r3, [r4, #26]
     2da:	061b      	lsls	r3, r3, #24
     2dc:	d5fc      	bpl.n	2d8 <_Z17sendCommand_arrayPhhh+0x10>
	SERCOM2->I2CM.DATA.bit.DATA = command;
     2de:	2328      	movs	r3, #40	; 0x28
     2e0:	4c0d      	ldr	r4, [pc, #52]	; (318 <_Z17sendCommand_arrayPhhh+0x50>)
     2e2:	54e1      	strb	r1, [r4, r3]
	while(!SERCOM2->I2CM.STATUS.bit.CLKHOLD);
     2e4:	0021      	movs	r1, r4
     2e6:	8b4b      	ldrh	r3, [r1, #26]
     2e8:	061b      	lsls	r3, r3, #24
     2ea:	d5fc      	bpl.n	2e6 <_Z17sendCommand_arrayPhhh+0x1e>
	for(uint8_t i = 0;i<length;i++)
     2ec:	2a00      	cmp	r2, #0
     2ee:	dd0b      	ble.n	308 <_Z17sendCommand_arrayPhhh+0x40>
     2f0:	2400      	movs	r4, #0
	{
		SERCOM2->I2CM.DATA.bit.DATA = data[i];
     2f2:	4909      	ldr	r1, [pc, #36]	; (318 <_Z17sendCommand_arrayPhhh+0x50>)
     2f4:	2528      	movs	r5, #40	; 0x28
     2f6:	5d03      	ldrb	r3, [r0, r4]
     2f8:	554b      	strb	r3, [r1, r5]
		while(!SERCOM2->I2CM.STATUS.bit.CLKHOLD);
     2fa:	8b4b      	ldrh	r3, [r1, #26]
     2fc:	061b      	lsls	r3, r3, #24
     2fe:	d5fc      	bpl.n	2fa <_Z17sendCommand_arrayPhhh+0x32>
	for(uint8_t i = 0;i<length;i++)
     300:	3401      	adds	r4, #1
     302:	b2e4      	uxtb	r4, r4
     304:	4294      	cmp	r4, r2
     306:	dbf6      	blt.n	2f6 <_Z17sendCommand_arrayPhhh+0x2e>
	}
	
	SERCOM2->I2CM.CTRLB.bit.CMD = 0x03;
     308:	4a03      	ldr	r2, [pc, #12]	; (318 <_Z17sendCommand_arrayPhhh+0x50>)
     30a:	6851      	ldr	r1, [r2, #4]
     30c:	23c0      	movs	r3, #192	; 0xc0
     30e:	029b      	lsls	r3, r3, #10
     310:	430b      	orrs	r3, r1
     312:	6053      	str	r3, [r2, #4]
}
     314:	bd30      	pop	{r4, r5, pc}
     316:	46c0      	nop			; (mov r8, r8)
     318:	42000c00 	.word	0x42000c00

0000031c <_Z10lcd_clrscrv>:

void lcd_clrscr()
{
     31c:	b5f0      	push	{r4, r5, r6, r7, lr}
     31e:	46c6      	mov	lr, r8
     320:	b500      	push	{lr}
     322:	b082      	sub	sp, #8
     324:	2700      	movs	r7, #0
	for (uint8_t page = 0; page < 8; page++) {

		// Set the current RAM pointer to the start of the currently
		// selected page.
		sendCommand(0x00); // Set column number 0 (low nibble)
     326:	4b10      	ldr	r3, [pc, #64]	; (368 <_Z10lcd_clrscrv+0x4c>)
     328:	4698      	mov	r8, r3
		// Without knowing the rest of your program I don't know the right
		// data sending routines to use, so I made them up. Change it to
		// do it how your program expects.  Maybe with your SendArray
		// function.

		uint8_t helper = 0x00 ;
     32a:	466b      	mov	r3, sp
     32c:	1ddd      	adds	r5, r3, #7
		for (uint8_t col = 0; col < 132; col++) {
			sendCommand_array(&helper,DATA_LCD,1);
     32e:	4e0f      	ldr	r6, [pc, #60]	; (36c <_Z10lcd_clrscrv+0x50>)
		sendCommand(0x00); // Set column number 0 (low nibble)
     330:	2000      	movs	r0, #0
     332:	47c0      	blx	r8
		sendCommand(0x10); // Set column number 0 (high nibble)
     334:	2010      	movs	r0, #16
     336:	47c0      	blx	r8
		sendCommand(0xB0 | (page & 0x0F)); // Set page number
     338:	200f      	movs	r0, #15
     33a:	4038      	ands	r0, r7
     33c:	23b0      	movs	r3, #176	; 0xb0
     33e:	4318      	orrs	r0, r3
     340:	47c0      	blx	r8
		uint8_t helper = 0x00 ;
     342:	2300      	movs	r3, #0
     344:	702b      	strb	r3, [r5, #0]
     346:	2484      	movs	r4, #132	; 0x84
			sendCommand_array(&helper,DATA_LCD,1);
     348:	2201      	movs	r2, #1
     34a:	2140      	movs	r1, #64	; 0x40
     34c:	0028      	movs	r0, r5
     34e:	47b0      	blx	r6
     350:	3c01      	subs	r4, #1
		for (uint8_t col = 0; col < 132; col++) {
     352:	2c00      	cmp	r4, #0
     354:	d1f8      	bne.n	348 <_Z10lcd_clrscrv+0x2c>
	for (uint8_t page = 0; page < 8; page++) {
     356:	3701      	adds	r7, #1
     358:	b2ff      	uxtb	r7, r7
     35a:	2f08      	cmp	r7, #8
     35c:	d1e8      	bne.n	330 <_Z10lcd_clrscrv+0x14>
		}
	}
}
     35e:	b002      	add	sp, #8
     360:	bc04      	pop	{r2}
     362:	4690      	mov	r8, r2
     364:	bdf0      	pop	{r4, r5, r6, r7, pc}
     366:	46c0      	nop			; (mov r8, r8)
     368:	00000289 	.word	0x00000289
     36c:	000002c9 	.word	0x000002c9

00000370 <_Z10lcd_gotoxyhh>:

void lcd_gotoxy(uint8_t x, uint8_t y){
     370:	b5f0      	push	{r4, r5, r6, r7, lr}
     372:	46c6      	mov	lr, r8
     374:	b500      	push	{lr}
     376:	b082      	sub	sp, #8
     378:	000e      	movs	r6, r1
	x *= 6;
     37a:	0044      	lsls	r4, r0, #1
     37c:	1900      	adds	r0, r0, r4
     37e:	0040      	lsls	r0, r0, #1
     380:	b2c4      	uxtb	r4, r0
	uint8_t helper[4];
		helper[0] = (x+2) & 0x0F;	// lower nibble
     382:	ad01      	add	r5, sp, #4
     384:	3402      	adds	r4, #2
     386:	270f      	movs	r7, #15
     388:	003b      	movs	r3, r7
     38a:	4023      	ands	r3, r4
     38c:	702b      	strb	r3, [r5, #0]
		sendCommand_array(helper,COMMAND_LCD,1);  // Write data to I2C
     38e:	2201      	movs	r2, #1
     390:	2100      	movs	r1, #0
     392:	0028      	movs	r0, r5
     394:	4b0b      	ldr	r3, [pc, #44]	; (3c4 <_Z10lcd_gotoxyhh+0x54>)
     396:	4698      	mov	r8, r3
     398:	4798      	blx	r3
		helper[0] = 0x10 | (x+2) >> 4;		// set column start
     39a:	1124      	asrs	r4, r4, #4
     39c:	2310      	movs	r3, #16
     39e:	431c      	orrs	r4, r3
     3a0:	702c      	strb	r4, [r5, #0]
		sendCommand_array(helper,COMMAND_LCD,1);  // Write data to I2C
     3a2:	2201      	movs	r2, #1
     3a4:	2100      	movs	r1, #0
     3a6:	0028      	movs	r0, r5
     3a8:	47c0      	blx	r8
		helper[0] = 0xB0 | (y & 0x0F); //page
     3aa:	403e      	ands	r6, r7
     3ac:	3f5f      	subs	r7, #95	; 0x5f
     3ae:	433e      	orrs	r6, r7
     3b0:	702e      	strb	r6, [r5, #0]
		sendCommand_array(helper,COMMAND_LCD,1);  // Write data to I2C
     3b2:	2201      	movs	r2, #1
     3b4:	2100      	movs	r1, #0
     3b6:	0028      	movs	r0, r5
     3b8:	47c0      	blx	r8
		helper[3] = 0x7f;		// set column end to 127
		//twi_write(&TWIE,helper,LCD_I2C_ADDR,0x00,3,0,0,1);  // Write data to I2C
	
	
}
     3ba:	b002      	add	sp, #8
     3bc:	bc04      	pop	{r2}
     3be:	4690      	mov	r8, r2
     3c0:	bdf0      	pop	{r4, r5, r6, r7, pc}
     3c2:	46c0      	nop			; (mov r8, r8)
     3c4:	000002c9 	.word	0x000002c9

000003c8 <_Z8init_LCDv>:
}



void init_LCD()
{
     3c8:	b510      	push	{r4, lr}
	
	sendCommand(0xAE);    /*display off*/
     3ca:	20ae      	movs	r0, #174	; 0xae
     3cc:	4c1b      	ldr	r4, [pc, #108]	; (43c <_Z8init_LCDv+0x74>)
     3ce:	47a0      	blx	r4

		sendCommand(0x02);    /*set lower column address*/
     3d0:	2002      	movs	r0, #2
     3d2:	47a0      	blx	r4
		sendCommand(0x10);    /*set higher column address*/
     3d4:	2010      	movs	r0, #16
     3d6:	47a0      	blx	r4
		sendCommand(0x40);//0x40);    /*set display start line*/
     3d8:	2040      	movs	r0, #64	; 0x40
     3da:	47a0      	blx	r4
		sendCommand(0xB0);    /*set page address*/
     3dc:	20b0      	movs	r0, #176	; 0xb0
     3de:	47a0      	blx	r4
		sendCommand(0x81);    /*contract control*/
     3e0:	2081      	movs	r0, #129	; 0x81
     3e2:	47a0      	blx	r4
		sendCommand(0x80);//contrast);    /*128*/
     3e4:	2080      	movs	r0, #128	; 0x80
     3e6:	47a0      	blx	r4
		sendCommand(0xA1);    /*set segment remap*/
     3e8:	20a1      	movs	r0, #161	; 0xa1
     3ea:	47a0      	blx	r4
		sendCommand(0xA6);//invertSetting);    /*normal / reverse*/
     3ec:	20a6      	movs	r0, #166	; 0xa6
     3ee:	47a0      	blx	r4
		sendCommand(0xA8);    /*multiplex ratio*/
     3f0:	20a8      	movs	r0, #168	; 0xa8
     3f2:	47a0      	blx	r4
		sendCommand(0x3F);    /*duty = 1/32*/
     3f4:	203f      	movs	r0, #63	; 0x3f
     3f6:	47a0      	blx	r4
		sendCommand(0xAD);    /*set charge pump enable*/
     3f8:	20ad      	movs	r0, #173	; 0xad
     3fa:	47a0      	blx	r4
		sendCommand(0x8B);     /*external VCC   */
     3fc:	208b      	movs	r0, #139	; 0x8b
     3fe:	47a0      	blx	r4
		sendCommand(0x30);    // | Vpp);    /*0X30---0X33  set VPP   9V liangdu!!!!*/
     400:	2030      	movs	r0, #48	; 0x30
     402:	47a0      	blx	r4
		sendCommand(0xC8);    /*Com scan direction*/
     404:	20c8      	movs	r0, #200	; 0xc8
     406:	47a0      	blx	r4
		sendCommand(0xD3);    /*set display offset*/
     408:	20d3      	movs	r0, #211	; 0xd3
     40a:	47a0      	blx	r4
		sendCommand(0x00);   /*   0x20  */
     40c:	2000      	movs	r0, #0
     40e:	47a0      	blx	r4
		sendCommand(0xD5);    /*set osc division*/
     410:	20d5      	movs	r0, #213	; 0xd5
     412:	47a0      	blx	r4
		sendCommand(0x80);
     414:	2080      	movs	r0, #128	; 0x80
     416:	47a0      	blx	r4
		sendCommand(0xD9);    /*set pre-charge period*/
     418:	20d9      	movs	r0, #217	; 0xd9
     41a:	47a0      	blx	r4
		sendCommand(0x1F);    /*0x22*/
     41c:	201f      	movs	r0, #31
     41e:	47a0      	blx	r4
		sendCommand(0xDA);    /*set COM pins*/
     420:	20da      	movs	r0, #218	; 0xda
     422:	47a0      	blx	r4
		sendCommand(0x12);
     424:	2012      	movs	r0, #18
     426:	47a0      	blx	r4
		sendCommand(0xDB);    /*set vcomh*/
     428:	20db      	movs	r0, #219	; 0xdb
     42a:	47a0      	blx	r4
		sendCommand(0x40);
     42c:	2040      	movs	r0, #64	; 0x40
     42e:	47a0      	blx	r4
		sendCommand(0xAF);    /*display ON*/
     430:	20af      	movs	r0, #175	; 0xaf
     432:	47a0      	blx	r4
		lcd_clrscr();
     434:	4b02      	ldr	r3, [pc, #8]	; (440 <_Z8init_LCDv+0x78>)
     436:	4798      	blx	r3
	
}
     438:	bd10      	pop	{r4, pc}
     43a:	46c0      	nop			; (mov r8, r8)
     43c:	00000289 	.word	0x00000289
     440:	0000031d 	.word	0x0000031d

00000444 <_Z8lcd_putcc>:

void lcd_putc(char c){
     444:	b510      	push	{r4, lr}
	static uint8_t data[6];
	if((c > 127 ||
     446:	0003      	movs	r3, r0
     448:	3b20      	subs	r3, #32
     44a:	b2db      	uxtb	r3, r3
     44c:	2b5f      	cmp	r3, #95	; 0x5f
     44e:	d922      	bls.n	496 <_Z8lcd_putcc+0x52>
	c < 32) &&
     450:	28bc      	cmp	r0, #188	; 0xbc
     452:	d100      	bne.n	456 <_Z8lcd_putcc+0x12>
     454:	e099      	b.n	58a <_Z8lcd_putcc+0x146>
	(c != 188 &&
     456:	28b6      	cmp	r0, #182	; 0xb6
     458:	d039      	beq.n	4ce <_Z8lcd_putcc+0x8a>
	c != 182 &&
     45a:	28b0      	cmp	r0, #176	; 0xb0
     45c:	d046      	beq.n	4ec <_Z8lcd_putcc+0xa8>
	c != 176 &&
     45e:	28a4      	cmp	r0, #164	; 0xa4
     460:	d053      	beq.n	50a <_Z8lcd_putcc+0xc6>
	c != 164 &&
     462:	289f      	cmp	r0, #159	; 0x9f
     464:	d061      	beq.n	52a <_Z8lcd_putcc+0xe6>
	c != 159 &&
     466:	289c      	cmp	r0, #156	; 0x9c
     468:	d100      	bne.n	46c <_Z8lcd_putcc+0x28>
     46a:	e070      	b.n	54e <_Z8lcd_putcc+0x10a>
	c != 156 &&
     46c:	2896      	cmp	r0, #150	; 0x96
     46e:	d100      	bne.n	472 <_Z8lcd_putcc+0x2e>
     470:	e07c      	b.n	56c <_Z8lcd_putcc+0x128>
	c != 150 &&
     472:	2884      	cmp	r0, #132	; 0x84
     474:	d122      	bne.n	4bc <_Z8lcd_putcc+0x78>
		break;
		case 100:
		c = 98; // Ä
		for (uint8_t i = 0; i < 6; i++)
		{
			data[i] = ssd1306oled_font6x8[c * 6 + i];	// print font to ram, print 6 columns
     476:	484d      	ldr	r0, [pc, #308]	; (5ac <_Z8lcd_putcc+0x168>)
     478:	2300      	movs	r3, #0
     47a:	7003      	strb	r3, [r0, #0]
     47c:	337d      	adds	r3, #125	; 0x7d
     47e:	7043      	strb	r3, [r0, #1]
     480:	2212      	movs	r2, #18
     482:	7082      	strb	r2, [r0, #2]
     484:	2111      	movs	r1, #17
     486:	70c1      	strb	r1, [r0, #3]
     488:	7102      	strb	r2, [r0, #4]
     48a:	7143      	strb	r3, [r0, #5]
		}
		sendCommand_array(data,DATA_LCD,6);
     48c:	3a0c      	subs	r2, #12
     48e:	312f      	adds	r1, #47	; 0x2f
     490:	4b47      	ldr	r3, [pc, #284]	; (5b0 <_Z8lcd_putcc+0x16c>)
     492:	4798      	blx	r3
		break;
     494:	e012      	b.n	4bc <_Z8lcd_putcc+0x78>
	if( c < 127-32 ) {
     496:	2b5e      	cmp	r3, #94	; 0x5e
     498:	dc11      	bgt.n	4be <_Z8lcd_putcc+0x7a>
			data[i] = ssd1306oled_font6x8[c * 6 + i];	// print font to ram, print 6 columns
     49a:	0059      	lsls	r1, r3, #1
     49c:	18c9      	adds	r1, r1, r3
     49e:	004a      	lsls	r2, r1, #1
     4a0:	2300      	movs	r3, #0
     4a2:	4842      	ldr	r0, [pc, #264]	; (5ac <_Z8lcd_putcc+0x168>)
     4a4:	4943      	ldr	r1, [pc, #268]	; (5b4 <_Z8lcd_putcc+0x170>)
     4a6:	1889      	adds	r1, r1, r2
     4a8:	5cca      	ldrb	r2, [r1, r3]
     4aa:	541a      	strb	r2, [r3, r0]
     4ac:	3301      	adds	r3, #1
		for (uint8_t i = 0; i < 6; i++)
     4ae:	2b06      	cmp	r3, #6
     4b0:	d1fa      	bne.n	4a8 <_Z8lcd_putcc+0x64>
		sendCommand_array(data,DATA_LCD,6);
     4b2:	2206      	movs	r2, #6
     4b4:	2140      	movs	r1, #64	; 0x40
     4b6:	483d      	ldr	r0, [pc, #244]	; (5ac <_Z8lcd_putcc+0x168>)
     4b8:	4b3d      	ldr	r3, [pc, #244]	; (5b0 <_Z8lcd_putcc+0x16c>)
     4ba:	4798      	blx	r3
		default:
		break;
	}
	
}
     4bc:	bd10      	pop	{r4, pc}
	switch (c) {
     4be:	3b64      	subs	r3, #100	; 0x64
     4c0:	b2da      	uxtb	r2, r3
     4c2:	2a38      	cmp	r2, #56	; 0x38
     4c4:	d8fa      	bhi.n	4bc <_Z8lcd_putcc+0x78>
     4c6:	0093      	lsls	r3, r2, #2
     4c8:	4a3b      	ldr	r2, [pc, #236]	; (5b8 <_Z8lcd_putcc+0x174>)
     4ca:	58d3      	ldr	r3, [r2, r3]
     4cc:	469f      	mov	pc, r3
			data[i] = ssd1306oled_font6x8[c * 6 + i];	// print font to ram, print 6 columns
     4ce:	4837      	ldr	r0, [pc, #220]	; (5ac <_Z8lcd_putcc+0x168>)
     4d0:	2300      	movs	r3, #0
     4d2:	7003      	strb	r3, [r0, #0]
     4d4:	2239      	movs	r2, #57	; 0x39
     4d6:	7042      	strb	r2, [r0, #1]
     4d8:	3344      	adds	r3, #68	; 0x44
     4da:	7083      	strb	r3, [r0, #2]
     4dc:	70c3      	strb	r3, [r0, #3]
     4de:	7103      	strb	r3, [r0, #4]
     4e0:	7142      	strb	r2, [r0, #5]
		sendCommand_array(data,DATA_LCD,6);
     4e2:	3a33      	subs	r2, #51	; 0x33
     4e4:	2140      	movs	r1, #64	; 0x40
     4e6:	4b32      	ldr	r3, [pc, #200]	; (5b0 <_Z8lcd_putcc+0x16c>)
     4e8:	4798      	blx	r3
		break;
     4ea:	e7e7      	b.n	4bc <_Z8lcd_putcc+0x78>
			data[i] = ssd1306oled_font6x8[c * 6 + i];	// print font to ram, print 6 columns
     4ec:	482f      	ldr	r0, [pc, #188]	; (5ac <_Z8lcd_putcc+0x168>)
     4ee:	2300      	movs	r3, #0
     4f0:	7003      	strb	r3, [r0, #0]
     4f2:	2202      	movs	r2, #2
     4f4:	7042      	strb	r2, [r0, #1]
     4f6:	2105      	movs	r1, #5
     4f8:	7081      	strb	r1, [r0, #2]
     4fa:	70c2      	strb	r2, [r0, #3]
     4fc:	7103      	strb	r3, [r0, #4]
     4fe:	7143      	strb	r3, [r0, #5]
		sendCommand_array(data,DATA_LCD,6);
     500:	3204      	adds	r2, #4
     502:	313b      	adds	r1, #59	; 0x3b
     504:	4b2a      	ldr	r3, [pc, #168]	; (5b0 <_Z8lcd_putcc+0x16c>)
     506:	4798      	blx	r3
		break;
     508:	e7d8      	b.n	4bc <_Z8lcd_putcc+0x78>
			data[i] = ssd1306oled_font6x8[c * 6 + i];	// print font to ram, print 6 columns
     50a:	4828      	ldr	r0, [pc, #160]	; (5ac <_Z8lcd_putcc+0x168>)
     50c:	2300      	movs	r3, #0
     50e:	7003      	strb	r3, [r0, #0]
     510:	3321      	adds	r3, #33	; 0x21
     512:	7043      	strb	r3, [r0, #1]
     514:	3333      	adds	r3, #51	; 0x33
     516:	7083      	strb	r3, [r0, #2]
     518:	70c3      	strb	r3, [r0, #3]
     51a:	7103      	strb	r3, [r0, #4]
     51c:	3325      	adds	r3, #37	; 0x25
     51e:	7143      	strb	r3, [r0, #5]
		sendCommand_array(data,DATA_LCD,6);
     520:	2206      	movs	r2, #6
     522:	2140      	movs	r1, #64	; 0x40
     524:	4b22      	ldr	r3, [pc, #136]	; (5b0 <_Z8lcd_putcc+0x16c>)
     526:	4798      	blx	r3
		break;
     528:	e7c8      	b.n	4bc <_Z8lcd_putcc+0x78>
			data[i] = ssd1306oled_font6x8[c * 6 + i];	// print font to ram, print 6 columns
     52a:	4820      	ldr	r0, [pc, #128]	; (5ac <_Z8lcd_putcc+0x168>)
     52c:	2300      	movs	r3, #0
     52e:	7003      	strb	r3, [r0, #0]
     530:	337e      	adds	r3, #126	; 0x7e
     532:	7043      	strb	r3, [r0, #1]
     534:	3b7d      	subs	r3, #125	; 0x7d
     536:	7083      	strb	r3, [r0, #2]
     538:	3348      	adds	r3, #72	; 0x48
     53a:	70c3      	strb	r3, [r0, #3]
     53c:	330c      	adds	r3, #12
     53e:	7103      	strb	r3, [r0, #4]
     540:	331e      	adds	r3, #30
     542:	7143      	strb	r3, [r0, #5]
		sendCommand_array(data,DATA_LCD,6);
     544:	2206      	movs	r2, #6
     546:	2140      	movs	r1, #64	; 0x40
     548:	4b19      	ldr	r3, [pc, #100]	; (5b0 <_Z8lcd_putcc+0x16c>)
     54a:	4798      	blx	r3
		break;
     54c:	e7b6      	b.n	4bc <_Z8lcd_putcc+0x78>
			data[i] = ssd1306oled_font6x8[c * 6 + i];	// print font to ram, print 6 columns
     54e:	4817      	ldr	r0, [pc, #92]	; (5ac <_Z8lcd_putcc+0x168>)
     550:	2300      	movs	r3, #0
     552:	7003      	strb	r3, [r0, #0]
     554:	223d      	movs	r2, #61	; 0x3d
     556:	7042      	strb	r2, [r0, #1]
     558:	3340      	adds	r3, #64	; 0x40
     55a:	7083      	strb	r3, [r0, #2]
     55c:	70c3      	strb	r3, [r0, #3]
     55e:	7103      	strb	r3, [r0, #4]
     560:	7142      	strb	r2, [r0, #5]
		sendCommand_array(data,DATA_LCD,6);
     562:	3a37      	subs	r2, #55	; 0x37
     564:	2140      	movs	r1, #64	; 0x40
     566:	4b12      	ldr	r3, [pc, #72]	; (5b0 <_Z8lcd_putcc+0x16c>)
     568:	4798      	blx	r3
		break;
     56a:	e7a7      	b.n	4bc <_Z8lcd_putcc+0x78>
			data[i] = ssd1306oled_font6x8[c * 6 + i];	// print font to ram, print 6 columns
     56c:	480f      	ldr	r0, [pc, #60]	; (5ac <_Z8lcd_putcc+0x168>)
     56e:	2300      	movs	r3, #0
     570:	7003      	strb	r3, [r0, #0]
     572:	223d      	movs	r2, #61	; 0x3d
     574:	7042      	strb	r2, [r0, #1]
     576:	3342      	adds	r3, #66	; 0x42
     578:	7083      	strb	r3, [r0, #2]
     57a:	70c3      	strb	r3, [r0, #3]
     57c:	7103      	strb	r3, [r0, #4]
     57e:	7142      	strb	r2, [r0, #5]
		sendCommand_array(data,DATA_LCD,6);
     580:	3a37      	subs	r2, #55	; 0x37
     582:	2140      	movs	r1, #64	; 0x40
     584:	4b0a      	ldr	r3, [pc, #40]	; (5b0 <_Z8lcd_putcc+0x16c>)
     586:	4798      	blx	r3
		break;
     588:	e798      	b.n	4bc <_Z8lcd_putcc+0x78>
			data[i] = ssd1306oled_font6x8[c * 6 + i];	// print font to ram, print 6 columns
     58a:	4808      	ldr	r0, [pc, #32]	; (5ac <_Z8lcd_putcc+0x168>)
     58c:	2300      	movs	r3, #0
     58e:	7003      	strb	r3, [r0, #0]
     590:	333d      	adds	r3, #61	; 0x3d
     592:	7043      	strb	r3, [r0, #1]
     594:	3303      	adds	r3, #3
     596:	7083      	strb	r3, [r0, #2]
     598:	70c3      	strb	r3, [r0, #3]
     59a:	3b20      	subs	r3, #32
     59c:	7103      	strb	r3, [r0, #4]
     59e:	335d      	adds	r3, #93	; 0x5d
     5a0:	7143      	strb	r3, [r0, #5]
		sendCommand_array(data,DATA_LCD,6);
     5a2:	2206      	movs	r2, #6
     5a4:	2140      	movs	r1, #64	; 0x40
     5a6:	4b02      	ldr	r3, [pc, #8]	; (5b0 <_Z8lcd_putcc+0x16c>)
     5a8:	4798      	blx	r3
		break;
     5aa:	e787      	b.n	4bc <_Z8lcd_putcc+0x78>
     5ac:	20000cdc 	.word	0x20000cdc
     5b0:	000002c9 	.word	0x000002c9
     5b4:	00008b0c 	.word	0x00008b0c
     5b8:	00008944 	.word	0x00008944

000005bc <_Z15lcd_putc_invertc>:

void lcd_putc_invert(char c){
     5bc:	b510      	push	{r4, lr}
	static uint8_t data[6];
	if((c > 127 ||
     5be:	0003      	movs	r3, r0
     5c0:	3b20      	subs	r3, #32
     5c2:	b2db      	uxtb	r3, r3
     5c4:	2b5f      	cmp	r3, #95	; 0x5f
     5c6:	d923      	bls.n	610 <_Z15lcd_putc_invertc+0x54>
	c < 32) &&
     5c8:	28bc      	cmp	r0, #188	; 0xbc
     5ca:	d100      	bne.n	5ce <_Z15lcd_putc_invertc+0x12>
     5cc:	e0a3      	b.n	716 <_Z15lcd_putc_invertc+0x15a>
	(c != 188 &&
     5ce:	28b6      	cmp	r0, #182	; 0xb6
     5d0:	d03d      	beq.n	64e <_Z15lcd_putc_invertc+0x92>
	c != 182 &&
     5d2:	28b0      	cmp	r0, #176	; 0xb0
     5d4:	d04b      	beq.n	66e <_Z15lcd_putc_invertc+0xb2>
	c != 176 &&
     5d6:	28a4      	cmp	r0, #164	; 0xa4
     5d8:	d059      	beq.n	68e <_Z15lcd_putc_invertc+0xd2>
	c != 164 &&
     5da:	289f      	cmp	r0, #159	; 0x9f
     5dc:	d068      	beq.n	6b0 <_Z15lcd_putc_invertc+0xf4>
	c != 159 &&
     5de:	289c      	cmp	r0, #156	; 0x9c
     5e0:	d100      	bne.n	5e4 <_Z15lcd_putc_invertc+0x28>
     5e2:	e078      	b.n	6d6 <_Z15lcd_putc_invertc+0x11a>
	c != 156 &&
     5e4:	2896      	cmp	r0, #150	; 0x96
     5e6:	d100      	bne.n	5ea <_Z15lcd_putc_invertc+0x2e>
     5e8:	e085      	b.n	6f6 <_Z15lcd_putc_invertc+0x13a>
	c != 150 &&
     5ea:	2884      	cmp	r0, #132	; 0x84
     5ec:	d126      	bne.n	63c <_Z15lcd_putc_invertc+0x80>
		break;
		case 100:
		c = 98; // Ä
		for (uint8_t i = 0; i < 6; i++)
		{
			data[i] = ssd1306oled_font6x8[c * 6 + i]^0xff;	// print font to ram, print 6 columns
     5ee:	4853      	ldr	r0, [pc, #332]	; (73c <_Z15lcd_putc_invertc+0x180>)
     5f0:	23ff      	movs	r3, #255	; 0xff
     5f2:	7203      	strb	r3, [r0, #8]
     5f4:	3b7d      	subs	r3, #125	; 0x7d
     5f6:	7243      	strb	r3, [r0, #9]
     5f8:	22ed      	movs	r2, #237	; 0xed
     5fa:	7282      	strb	r2, [r0, #10]
     5fc:	21ee      	movs	r1, #238	; 0xee
     5fe:	72c1      	strb	r1, [r0, #11]
     600:	7302      	strb	r2, [r0, #12]
     602:	7343      	strb	r3, [r0, #13]
		}
		sendCommand_array(data,DATA_LCD,6);
     604:	3008      	adds	r0, #8
     606:	3ae7      	subs	r2, #231	; 0xe7
     608:	39ae      	subs	r1, #174	; 0xae
     60a:	4b4d      	ldr	r3, [pc, #308]	; (740 <_Z15lcd_putc_invertc+0x184>)
     60c:	4798      	blx	r3
		break;
     60e:	e015      	b.n	63c <_Z15lcd_putc_invertc+0x80>
	if( c < 127-32 ) {
     610:	2b5e      	cmp	r3, #94	; 0x5e
     612:	dc14      	bgt.n	63e <_Z15lcd_putc_invertc+0x82>
			data[i] = ssd1306oled_font6x8[c * 6 + i]^0xff;	// print font to ram, print 6 columns
     614:	0059      	lsls	r1, r3, #1
     616:	18c9      	adds	r1, r1, r3
     618:	004a      	lsls	r2, r1, #1
     61a:	2300      	movs	r3, #0
     61c:	4847      	ldr	r0, [pc, #284]	; (73c <_Z15lcd_putc_invertc+0x180>)
     61e:	3008      	adds	r0, #8
     620:	4948      	ldr	r1, [pc, #288]	; (744 <_Z15lcd_putc_invertc+0x188>)
     622:	1889      	adds	r1, r1, r2
     624:	5cca      	ldrb	r2, [r1, r3]
     626:	43d2      	mvns	r2, r2
     628:	541a      	strb	r2, [r3, r0]
     62a:	3301      	adds	r3, #1
		for (uint8_t i = 0; i < 6; i++)
     62c:	2b06      	cmp	r3, #6
     62e:	d1f9      	bne.n	624 <_Z15lcd_putc_invertc+0x68>
		sendCommand_array(data,DATA_LCD,6);
     630:	2206      	movs	r2, #6
     632:	2140      	movs	r1, #64	; 0x40
     634:	4841      	ldr	r0, [pc, #260]	; (73c <_Z15lcd_putc_invertc+0x180>)
     636:	3008      	adds	r0, #8
     638:	4b41      	ldr	r3, [pc, #260]	; (740 <_Z15lcd_putc_invertc+0x184>)
     63a:	4798      	blx	r3
		default:
		break;
	}
	
}
     63c:	bd10      	pop	{r4, pc}
	switch (c) {
     63e:	3b64      	subs	r3, #100	; 0x64
     640:	b2da      	uxtb	r2, r3
     642:	2a38      	cmp	r2, #56	; 0x38
     644:	d8fa      	bhi.n	63c <_Z15lcd_putc_invertc+0x80>
     646:	0093      	lsls	r3, r2, #2
     648:	4a3f      	ldr	r2, [pc, #252]	; (748 <_Z15lcd_putc_invertc+0x18c>)
     64a:	58d3      	ldr	r3, [r2, r3]
     64c:	469f      	mov	pc, r3
			data[i] = ssd1306oled_font6x8[c * 6 + i]^0xff;	// print font to ram, print 6 columns
     64e:	483b      	ldr	r0, [pc, #236]	; (73c <_Z15lcd_putc_invertc+0x180>)
     650:	23ff      	movs	r3, #255	; 0xff
     652:	7203      	strb	r3, [r0, #8]
     654:	22c6      	movs	r2, #198	; 0xc6
     656:	7242      	strb	r2, [r0, #9]
     658:	3b44      	subs	r3, #68	; 0x44
     65a:	7283      	strb	r3, [r0, #10]
     65c:	72c3      	strb	r3, [r0, #11]
     65e:	7303      	strb	r3, [r0, #12]
     660:	7342      	strb	r2, [r0, #13]
		sendCommand_array(data,DATA_LCD,6);
     662:	3008      	adds	r0, #8
     664:	3ac0      	subs	r2, #192	; 0xc0
     666:	2140      	movs	r1, #64	; 0x40
     668:	4b35      	ldr	r3, [pc, #212]	; (740 <_Z15lcd_putc_invertc+0x184>)
     66a:	4798      	blx	r3
		break;
     66c:	e7e6      	b.n	63c <_Z15lcd_putc_invertc+0x80>
			data[i] = ssd1306oled_font6x8[c * 6 + i]^0xff;	// print font to ram, print 6 columns
     66e:	4833      	ldr	r0, [pc, #204]	; (73c <_Z15lcd_putc_invertc+0x180>)
     670:	23ff      	movs	r3, #255	; 0xff
     672:	7203      	strb	r3, [r0, #8]
     674:	22fd      	movs	r2, #253	; 0xfd
     676:	7242      	strb	r2, [r0, #9]
     678:	21fa      	movs	r1, #250	; 0xfa
     67a:	7281      	strb	r1, [r0, #10]
     67c:	72c2      	strb	r2, [r0, #11]
     67e:	7303      	strb	r3, [r0, #12]
     680:	7343      	strb	r3, [r0, #13]
		sendCommand_array(data,DATA_LCD,6);
     682:	3008      	adds	r0, #8
     684:	3af7      	subs	r2, #247	; 0xf7
     686:	39ba      	subs	r1, #186	; 0xba
     688:	4b2d      	ldr	r3, [pc, #180]	; (740 <_Z15lcd_putc_invertc+0x184>)
     68a:	4798      	blx	r3
		break;
     68c:	e7d6      	b.n	63c <_Z15lcd_putc_invertc+0x80>
			data[i] = ssd1306oled_font6x8[c * 6 + i]^0xff;	// print font to ram, print 6 columns
     68e:	482b      	ldr	r0, [pc, #172]	; (73c <_Z15lcd_putc_invertc+0x180>)
     690:	23ff      	movs	r3, #255	; 0xff
     692:	7203      	strb	r3, [r0, #8]
     694:	3b21      	subs	r3, #33	; 0x21
     696:	7243      	strb	r3, [r0, #9]
     698:	3b33      	subs	r3, #51	; 0x33
     69a:	7283      	strb	r3, [r0, #10]
     69c:	72c3      	strb	r3, [r0, #11]
     69e:	7303      	strb	r3, [r0, #12]
     6a0:	3b25      	subs	r3, #37	; 0x25
     6a2:	7343      	strb	r3, [r0, #13]
		sendCommand_array(data,DATA_LCD,6);
     6a4:	3008      	adds	r0, #8
     6a6:	2206      	movs	r2, #6
     6a8:	2140      	movs	r1, #64	; 0x40
     6aa:	4b25      	ldr	r3, [pc, #148]	; (740 <_Z15lcd_putc_invertc+0x184>)
     6ac:	4798      	blx	r3
		break;
     6ae:	e7c5      	b.n	63c <_Z15lcd_putc_invertc+0x80>
			data[i] = ssd1306oled_font6x8[c * 6 + i]^0xff;	// print font to ram, print 6 columns
     6b0:	4822      	ldr	r0, [pc, #136]	; (73c <_Z15lcd_putc_invertc+0x180>)
     6b2:	23ff      	movs	r3, #255	; 0xff
     6b4:	7203      	strb	r3, [r0, #8]
     6b6:	3b7e      	subs	r3, #126	; 0x7e
     6b8:	7243      	strb	r3, [r0, #9]
     6ba:	337d      	adds	r3, #125	; 0x7d
     6bc:	7283      	strb	r3, [r0, #10]
     6be:	3b48      	subs	r3, #72	; 0x48
     6c0:	72c3      	strb	r3, [r0, #11]
     6c2:	3b0c      	subs	r3, #12
     6c4:	7303      	strb	r3, [r0, #12]
     6c6:	3b1e      	subs	r3, #30
     6c8:	7343      	strb	r3, [r0, #13]
		sendCommand_array(data,DATA_LCD,6);
     6ca:	3008      	adds	r0, #8
     6cc:	2206      	movs	r2, #6
     6ce:	2140      	movs	r1, #64	; 0x40
     6d0:	4b1b      	ldr	r3, [pc, #108]	; (740 <_Z15lcd_putc_invertc+0x184>)
     6d2:	4798      	blx	r3
		break;
     6d4:	e7b2      	b.n	63c <_Z15lcd_putc_invertc+0x80>
			data[i] = ssd1306oled_font6x8[c * 6 + i]^0xff;	// print font to ram, print 6 columns
     6d6:	4819      	ldr	r0, [pc, #100]	; (73c <_Z15lcd_putc_invertc+0x180>)
     6d8:	23ff      	movs	r3, #255	; 0xff
     6da:	7203      	strb	r3, [r0, #8]
     6dc:	22c2      	movs	r2, #194	; 0xc2
     6de:	7242      	strb	r2, [r0, #9]
     6e0:	3b40      	subs	r3, #64	; 0x40
     6e2:	7283      	strb	r3, [r0, #10]
     6e4:	72c3      	strb	r3, [r0, #11]
     6e6:	7303      	strb	r3, [r0, #12]
     6e8:	7342      	strb	r2, [r0, #13]
		sendCommand_array(data,DATA_LCD,6);
     6ea:	3008      	adds	r0, #8
     6ec:	3abc      	subs	r2, #188	; 0xbc
     6ee:	2140      	movs	r1, #64	; 0x40
     6f0:	4b13      	ldr	r3, [pc, #76]	; (740 <_Z15lcd_putc_invertc+0x184>)
     6f2:	4798      	blx	r3
		break;
     6f4:	e7a2      	b.n	63c <_Z15lcd_putc_invertc+0x80>
			data[i] = ssd1306oled_font6x8[c * 6 + i]^0xff;	// print font to ram, print 6 columns
     6f6:	4811      	ldr	r0, [pc, #68]	; (73c <_Z15lcd_putc_invertc+0x180>)
     6f8:	23ff      	movs	r3, #255	; 0xff
     6fa:	7203      	strb	r3, [r0, #8]
     6fc:	22c2      	movs	r2, #194	; 0xc2
     6fe:	7242      	strb	r2, [r0, #9]
     700:	3b42      	subs	r3, #66	; 0x42
     702:	7283      	strb	r3, [r0, #10]
     704:	72c3      	strb	r3, [r0, #11]
     706:	7303      	strb	r3, [r0, #12]
     708:	7342      	strb	r2, [r0, #13]
		sendCommand_array(data,DATA_LCD,6);
     70a:	3008      	adds	r0, #8
     70c:	3abc      	subs	r2, #188	; 0xbc
     70e:	2140      	movs	r1, #64	; 0x40
     710:	4b0b      	ldr	r3, [pc, #44]	; (740 <_Z15lcd_putc_invertc+0x184>)
     712:	4798      	blx	r3
		break;
     714:	e792      	b.n	63c <_Z15lcd_putc_invertc+0x80>
			data[i] = ssd1306oled_font6x8[c * 6 + i]^0xff;	// print font to ram, print 6 columns
     716:	4809      	ldr	r0, [pc, #36]	; (73c <_Z15lcd_putc_invertc+0x180>)
     718:	23ff      	movs	r3, #255	; 0xff
     71a:	7203      	strb	r3, [r0, #8]
     71c:	3b3d      	subs	r3, #61	; 0x3d
     71e:	7243      	strb	r3, [r0, #9]
     720:	3b03      	subs	r3, #3
     722:	7283      	strb	r3, [r0, #10]
     724:	72c3      	strb	r3, [r0, #11]
     726:	3320      	adds	r3, #32
     728:	7303      	strb	r3, [r0, #12]
     72a:	3b5d      	subs	r3, #93	; 0x5d
     72c:	7343      	strb	r3, [r0, #13]
		sendCommand_array(data,DATA_LCD,6);
     72e:	3008      	adds	r0, #8
     730:	2206      	movs	r2, #6
     732:	2140      	movs	r1, #64	; 0x40
     734:	4b02      	ldr	r3, [pc, #8]	; (740 <_Z15lcd_putc_invertc+0x184>)
     736:	4798      	blx	r3
		break;
     738:	e780      	b.n	63c <_Z15lcd_putc_invertc+0x80>
     73a:	46c0      	nop			; (mov r8, r8)
     73c:	20000cdc 	.word	0x20000cdc
     740:	000002c9 	.word	0x000002c9
     744:	00008b0c 	.word	0x00008b0c
     748:	00008a28 	.word	0x00008a28

0000074c <_Z8lcd_putsPKc>:
void lcd_puts(const char* s){
     74c:	b570      	push	{r4, r5, r6, lr}
     74e:	0004      	movs	r4, r0
	while (*s) {
     750:	7800      	ldrb	r0, [r0, #0]
     752:	2800      	cmp	r0, #0
     754:	d005      	beq.n	762 <_Z8lcd_putsPKc+0x16>
		lcd_putc(*s++);
     756:	4d03      	ldr	r5, [pc, #12]	; (764 <_Z8lcd_putsPKc+0x18>)
     758:	3401      	adds	r4, #1
     75a:	47a8      	blx	r5
	while (*s) {
     75c:	7820      	ldrb	r0, [r4, #0]
     75e:	2800      	cmp	r0, #0
     760:	d1fa      	bne.n	758 <_Z8lcd_putsPKc+0xc>
	}
}
     762:	bd70      	pop	{r4, r5, r6, pc}
     764:	00000445 	.word	0x00000445

00000768 <_Z15lcd_puts_invertPKc>:
void lcd_puts_invert(const char* s){
     768:	b570      	push	{r4, r5, r6, lr}
     76a:	0004      	movs	r4, r0
	while (*s) {
     76c:	7800      	ldrb	r0, [r0, #0]
     76e:	2800      	cmp	r0, #0
     770:	d005      	beq.n	77e <_Z15lcd_puts_invertPKc+0x16>
		lcd_putc_invert(*s++);
     772:	4d03      	ldr	r5, [pc, #12]	; (780 <_Z15lcd_puts_invertPKc+0x18>)
     774:	3401      	adds	r4, #1
     776:	47a8      	blx	r5
	while (*s) {
     778:	7820      	ldrb	r0, [r4, #0]
     77a:	2800      	cmp	r0, #0
     77c:	d1fa      	bne.n	774 <_Z15lcd_puts_invertPKc+0xc>
	}
}
     77e:	bd70      	pop	{r4, r5, r6, pc}
     780:	000005bd 	.word	0x000005bd

00000784 <RTC_Handler>:
static int8_t last;
bool running =  false;
uint16_t counter_power = 0;

void RTC_Handler()
{
     784:	b510      	push	{r4, lr}
     786:	b082      	sub	sp, #8
	if(RTC->MODE0.INTFLAG.bit.PER7)  // 1 Second
     788:	4b1b      	ldr	r3, [pc, #108]	; (7f8 <RTC_Handler+0x74>)
     78a:	899b      	ldrh	r3, [r3, #12]
     78c:	061b      	lsls	r3, r3, #24
     78e:	d50d      	bpl.n	7ac <RTC_Handler+0x28>
	{
		RTC->MODE0.INTFLAG.bit.PER7 = 1;
     790:	4a19      	ldr	r2, [pc, #100]	; (7f8 <RTC_Handler+0x74>)
     792:	8993      	ldrh	r3, [r2, #12]
     794:	2180      	movs	r1, #128	; 0x80
     796:	430b      	orrs	r3, r1
     798:	8193      	strh	r3, [r2, #12]
		counter_power++;
		counter_power %= cycle_time_calc;
     79a:	4c18      	ldr	r4, [pc, #96]	; (7fc <RTC_Handler+0x78>)
		counter_power++;
     79c:	8820      	ldrh	r0, [r4, #0]
     79e:	3001      	adds	r0, #1
		counter_power %= cycle_time_calc;
     7a0:	b280      	uxth	r0, r0
     7a2:	2196      	movs	r1, #150	; 0x96
     7a4:	0049      	lsls	r1, r1, #1
     7a6:	4b16      	ldr	r3, [pc, #88]	; (800 <RTC_Handler+0x7c>)
     7a8:	4798      	blx	r3
     7aa:	8021      	strh	r1, [r4, #0]
	}
	if(RTC->MODE0.INTFLAG.bit.PER6)  // 0,5 Second
     7ac:	4b12      	ldr	r3, [pc, #72]	; (7f8 <RTC_Handler+0x74>)
     7ae:	899b      	ldrh	r3, [r3, #12]
     7b0:	065b      	lsls	r3, r3, #25
     7b2:	d504      	bpl.n	7be <RTC_Handler+0x3a>
	{
		RTC->MODE0.INTFLAG.bit.PER6 = 1;
     7b4:	4a10      	ldr	r2, [pc, #64]	; (7f8 <RTC_Handler+0x74>)
     7b6:	8993      	ldrh	r3, [r2, #12]
     7b8:	2140      	movs	r1, #64	; 0x40
     7ba:	430b      	orrs	r3, r1
     7bc:	8193      	strh	r3, [r2, #12]
	}
	if(RTC->MODE0.INTFLAG.bit.PER5)  // 0,25 Second
     7be:	4b0e      	ldr	r3, [pc, #56]	; (7f8 <RTC_Handler+0x74>)
     7c0:	899b      	ldrh	r3, [r3, #12]
     7c2:	069b      	lsls	r3, r3, #26
     7c4:	d401      	bmi.n	7ca <RTC_Handler+0x46>
		RTC->MODE0.INTFLAG.bit.PER5 = 1;
		blink++;
		PID_calculations(&PID,&temp,&setpoint,&output,false,running);
		
	}
}
     7c6:	b002      	add	sp, #8
     7c8:	bd10      	pop	{r4, pc}
		RTC->MODE0.INTFLAG.bit.PER5 = 1;
     7ca:	4a0b      	ldr	r2, [pc, #44]	; (7f8 <RTC_Handler+0x74>)
     7cc:	8993      	ldrh	r3, [r2, #12]
     7ce:	2120      	movs	r1, #32
     7d0:	430b      	orrs	r3, r1
     7d2:	8193      	strh	r3, [r2, #12]
		blink++;
     7d4:	4a09      	ldr	r2, [pc, #36]	; (7fc <RTC_Handler+0x78>)
     7d6:	7893      	ldrb	r3, [r2, #2]
     7d8:	3301      	adds	r3, #1
     7da:	b2db      	uxtb	r3, r3
     7dc:	7093      	strb	r3, [r2, #2]
		PID_calculations(&PID,&temp,&setpoint,&output,false,running);
     7de:	1d13      	adds	r3, r2, #4
     7e0:	0011      	movs	r1, r2
     7e2:	3108      	adds	r1, #8
     7e4:	0010      	movs	r0, r2
     7e6:	300c      	adds	r0, #12
     7e8:	7f12      	ldrb	r2, [r2, #28]
     7ea:	9201      	str	r2, [sp, #4]
     7ec:	2200      	movs	r2, #0
     7ee:	9200      	str	r2, [sp, #0]
     7f0:	4a04      	ldr	r2, [pc, #16]	; (804 <RTC_Handler+0x80>)
     7f2:	4c05      	ldr	r4, [pc, #20]	; (808 <RTC_Handler+0x84>)
     7f4:	47a0      	blx	r4
}
     7f6:	e7e6      	b.n	7c6 <RTC_Handler+0x42>
     7f8:	40002400 	.word	0x40002400
     7fc:	20000cec 	.word	0x20000cec
     800:	00001cfd 	.word	0x00001cfd
     804:	20000004 	.word	0x20000004
     808:	000016d1 	.word	0x000016d1

0000080c <TCC0_Handler>:

void TCC0_Handler()
{
	if (TCC0->INTFLAG.bit.OVF) {
     80c:	4b41      	ldr	r3, [pc, #260]	; (914 <TCC0_Handler+0x108>)
     80e:	6adb      	ldr	r3, [r3, #44]	; 0x2c
     810:	07db      	lsls	r3, r3, #31
     812:	d520      	bpl.n	856 <TCC0_Handler+0x4a>
		TCC0->INTFLAG.bit.OVF = 1;
     814:	4a3f      	ldr	r2, [pc, #252]	; (914 <TCC0_Handler+0x108>)
     816:	6ad3      	ldr	r3, [r2, #44]	; 0x2c
     818:	2101      	movs	r1, #1
     81a:	430b      	orrs	r3, r1
     81c:	62d3      	str	r3, [r2, #44]	; 0x2c
		PORT->Group[0].OUTCLR.reg = PORT_PA22;
     81e:	2280      	movs	r2, #128	; 0x80
     820:	03d2      	lsls	r2, r2, #15
     822:	2382      	movs	r3, #130	; 0x82
     824:	05db      	lsls	r3, r3, #23
     826:	615a      	str	r2, [r3, #20]
		//PORT->Group[0].OUTCLR.reg = PORT_PA15;
		if(counter >= 32)
     828:	4b3b      	ldr	r3, [pc, #236]	; (918 <TCC0_Handler+0x10c>)
     82a:	685b      	ldr	r3, [r3, #4]
     82c:	2b1f      	cmp	r3, #31
     82e:	d94c      	bls.n	8ca <TCC0_Handler+0xbe>
		{
			if(!_end)
     830:	4b3a      	ldr	r3, [pc, #232]	; (91c <TCC0_Handler+0x110>)
     832:	7f5b      	ldrb	r3, [r3, #29]
     834:	2b00      	cmp	r3, #0
     836:	d13a      	bne.n	8ae <TCC0_Handler+0xa2>
			{
				REG_TCC0_PERBUF =  0x1C250;
     838:	4a39      	ldr	r2, [pc, #228]	; (920 <TCC0_Handler+0x114>)
     83a:	4b3a      	ldr	r3, [pc, #232]	; (924 <TCC0_Handler+0x118>)
     83c:	601a      	str	r2, [r3, #0]
				REG_TCC0_CCBUF0 =  0x1400;
     83e:	22a0      	movs	r2, #160	; 0xa0
     840:	0152      	lsls	r2, r2, #5
     842:	4b39      	ldr	r3, [pc, #228]	; (928 <TCC0_Handler+0x11c>)
     844:	601a      	str	r2, [r3, #0]
				TCC0->CTRLBCLR.bit.LUPD = 1;
     846:	4a33      	ldr	r2, [pc, #204]	; (914 <TCC0_Handler+0x108>)
     848:	7913      	ldrb	r3, [r2, #4]
     84a:	2102      	movs	r1, #2
     84c:	430b      	orrs	r3, r1
     84e:	7113      	strb	r3, [r2, #4]
				_end = true;
     850:	2201      	movs	r2, #1
     852:	4b32      	ldr	r3, [pc, #200]	; (91c <TCC0_Handler+0x110>)
     854:	775a      	strb	r2, [r3, #29]
		REG_TCC0_CCBUF0 =  0x1400;
		
		
		//PORT->Group[0].OUTTGL.reg = PORT_PA15;
	}
	if (TCC0->INTFLAG.bit.MC0) {
     856:	4b2f      	ldr	r3, [pc, #188]	; (914 <TCC0_Handler+0x108>)
     858:	6adb      	ldr	r3, [r3, #44]	; 0x2c
     85a:	03db      	lsls	r3, r3, #15
     85c:	d559      	bpl.n	912 <TCC0_Handler+0x106>
		TCC0->INTFLAG.bit.MC0 = 1;
     85e:	4a2d      	ldr	r2, [pc, #180]	; (914 <TCC0_Handler+0x108>)
     860:	6ad1      	ldr	r1, [r2, #44]	; 0x2c
     862:	2380      	movs	r3, #128	; 0x80
     864:	025b      	lsls	r3, r3, #9
     866:	430b      	orrs	r3, r1
     868:	62d3      	str	r3, [r2, #44]	; 0x2c
		PORT->Group[0].OUTSET.reg =  PORT_PA22;
     86a:	2280      	movs	r2, #128	; 0x80
     86c:	03d2      	lsls	r2, r2, #15
     86e:	2382      	movs	r3, #130	; 0x82
     870:	05db      	lsls	r3, r3, #23
     872:	619a      	str	r2, [r3, #24]
		//PORT->Group[0].OUTSET.reg = PORT_PA15;
		if(!praeamble && !_end)
     874:	4b29      	ldr	r3, [pc, #164]	; (91c <TCC0_Handler+0x110>)
     876:	7f9b      	ldrb	r3, [r3, #30]
     878:	2b00      	cmp	r3, #0
     87a:	d13b      	bne.n	8f4 <TCC0_Handler+0xe8>
     87c:	4b27      	ldr	r3, [pc, #156]	; (91c <TCC0_Handler+0x110>)
     87e:	7f5b      	ldrb	r3, [r3, #29]
     880:	2b00      	cmp	r3, #0
     882:	d137      	bne.n	8f4 <TCC0_Handler+0xe8>
		{
			if(CMD[Power_level][counter] == 0)
     884:	4b25      	ldr	r3, [pc, #148]	; (91c <TCC0_Handler+0x110>)
     886:	7fdb      	ldrb	r3, [r3, #31]
     888:	4a23      	ldr	r2, [pc, #140]	; (918 <TCC0_Handler+0x10c>)
     88a:	6851      	ldr	r1, [r2, #4]
     88c:	015b      	lsls	r3, r3, #5
     88e:	185b      	adds	r3, r3, r1
     890:	009b      	lsls	r3, r3, #2
     892:	18d3      	adds	r3, r2, r3
     894:	689b      	ldr	r3, [r3, #8]
     896:	2b00      	cmp	r3, #0
     898:	d020      	beq.n	8dc <TCC0_Handler+0xd0>
				REG_TCC0_PERBUF = 0x27B0;
				TCC0->CTRLBCLR.bit.LUPD = 1;
			}
			else
			{
				REG_TCC0_PERBUF = 0x6200;
     89a:	22c4      	movs	r2, #196	; 0xc4
     89c:	01d2      	lsls	r2, r2, #7
     89e:	4b21      	ldr	r3, [pc, #132]	; (924 <TCC0_Handler+0x118>)
     8a0:	601a      	str	r2, [r3, #0]
				TCC0->CTRLBCLR.bit.LUPD = 1;
     8a2:	4a1c      	ldr	r2, [pc, #112]	; (914 <TCC0_Handler+0x108>)
     8a4:	7913      	ldrb	r3, [r2, #4]
     8a6:	2102      	movs	r1, #2
     8a8:	430b      	orrs	r3, r1
     8aa:	7113      	strb	r3, [r2, #4]
     8ac:	e01e      	b.n	8ec <TCC0_Handler+0xe0>
				praeamble = true;
     8ae:	4a1b      	ldr	r2, [pc, #108]	; (91c <TCC0_Handler+0x110>)
     8b0:	2301      	movs	r3, #1
     8b2:	7793      	strb	r3, [r2, #30]
				_end = false;
     8b4:	2300      	movs	r3, #0
     8b6:	7753      	strb	r3, [r2, #29]
				counter = 0;
     8b8:	4a17      	ldr	r2, [pc, #92]	; (918 <TCC0_Handler+0x10c>)
     8ba:	6053      	str	r3, [r2, #4]
				REG_TCC0_PERBUF =  0x11288;
     8bc:	4a1b      	ldr	r2, [pc, #108]	; (92c <TCC0_Handler+0x120>)
     8be:	4b19      	ldr	r3, [pc, #100]	; (924 <TCC0_Handler+0x118>)
     8c0:	601a      	str	r2, [r3, #0]
				REG_TCC0_CCBUF0 =  0xC670;
     8c2:	4a1b      	ldr	r2, [pc, #108]	; (930 <TCC0_Handler+0x124>)
     8c4:	4b18      	ldr	r3, [pc, #96]	; (928 <TCC0_Handler+0x11c>)
     8c6:	601a      	str	r2, [r3, #0]
     8c8:	e7c5      	b.n	856 <TCC0_Handler+0x4a>
		if(!praeamble)
     8ca:	4b14      	ldr	r3, [pc, #80]	; (91c <TCC0_Handler+0x110>)
     8cc:	7f9b      	ldrb	r3, [r3, #30]
     8ce:	2b00      	cmp	r3, #0
     8d0:	d1c1      	bne.n	856 <TCC0_Handler+0x4a>
		REG_TCC0_CCBUF0 =  0x1400;
     8d2:	22a0      	movs	r2, #160	; 0xa0
     8d4:	0152      	lsls	r2, r2, #5
     8d6:	4b14      	ldr	r3, [pc, #80]	; (928 <TCC0_Handler+0x11c>)
     8d8:	601a      	str	r2, [r3, #0]
     8da:	e7bc      	b.n	856 <TCC0_Handler+0x4a>
				REG_TCC0_PERBUF = 0x27B0;
     8dc:	4a15      	ldr	r2, [pc, #84]	; (934 <TCC0_Handler+0x128>)
     8de:	4b11      	ldr	r3, [pc, #68]	; (924 <TCC0_Handler+0x118>)
     8e0:	601a      	str	r2, [r3, #0]
				TCC0->CTRLBCLR.bit.LUPD = 1;
     8e2:	4a0c      	ldr	r2, [pc, #48]	; (914 <TCC0_Handler+0x108>)
     8e4:	7913      	ldrb	r3, [r2, #4]
     8e6:	2102      	movs	r1, #2
     8e8:	430b      	orrs	r3, r1
     8ea:	7113      	strb	r3, [r2, #4]
			}
			
			counter++;
     8ec:	4a0a      	ldr	r2, [pc, #40]	; (918 <TCC0_Handler+0x10c>)
     8ee:	6853      	ldr	r3, [r2, #4]
     8f0:	3301      	adds	r3, #1
     8f2:	6053      	str	r3, [r2, #4]
		}
		if(praeamble)
     8f4:	4b09      	ldr	r3, [pc, #36]	; (91c <TCC0_Handler+0x110>)
     8f6:	7f9b      	ldrb	r3, [r3, #30]
     8f8:	2b00      	cmp	r3, #0
     8fa:	d00a      	beq.n	912 <TCC0_Handler+0x106>
		{
			
			REG_TCC0_PERBUF = 0x11288;
     8fc:	4a0b      	ldr	r2, [pc, #44]	; (92c <TCC0_Handler+0x120>)
     8fe:	4b09      	ldr	r3, [pc, #36]	; (924 <TCC0_Handler+0x118>)
     900:	601a      	str	r2, [r3, #0]
			TCC0->CTRLBCLR.bit.LUPD = 1;
     902:	4a04      	ldr	r2, [pc, #16]	; (914 <TCC0_Handler+0x108>)
     904:	7913      	ldrb	r3, [r2, #4]
     906:	2102      	movs	r1, #2
     908:	430b      	orrs	r3, r1
     90a:	7113      	strb	r3, [r2, #4]
			
			praeamble = false;
     90c:	2200      	movs	r2, #0
     90e:	4b03      	ldr	r3, [pc, #12]	; (91c <TCC0_Handler+0x110>)
     910:	779a      	strb	r2, [r3, #30]
		}
	}
	

}
     912:	4770      	bx	lr
     914:	42002400 	.word	0x42002400
     918:	20000004 	.word	0x20000004
     91c:	20000cec 	.word	0x20000cec
     920:	0001c250 	.word	0x0001c250
     924:	4200246c 	.word	0x4200246c
     928:	42002470 	.word	0x42002470
     92c:	00011288 	.word	0x00011288
     930:	0000c670 	.word	0x0000c670
     934:	000027b0 	.word	0x000027b0

00000938 <TCC2_Handler>:

void TCC2_Handler()
{
	if (TCC1->INTFLAG.bit.MC1) {
     938:	4b07      	ldr	r3, [pc, #28]	; (958 <TCC2_Handler+0x20>)
     93a:	6adb      	ldr	r3, [r3, #44]	; 0x2c
     93c:	039b      	lsls	r3, r3, #14
     93e:	d50a      	bpl.n	956 <TCC2_Handler+0x1e>
		//TCC1->INTFLAG.bit.MC0 = 1;
		//TCC1->INTFLAG.bit.MC1 = 1;
		count_1 = TCC2->CC[0].reg;
     940:	4a06      	ldr	r2, [pc, #24]	; (95c <TCC2_Handler+0x24>)
     942:	6c51      	ldr	r1, [r2, #68]	; 0x44
     944:	4b06      	ldr	r3, [pc, #24]	; (960 <TCC2_Handler+0x28>)
     946:	6219      	str	r1, [r3, #32]
		count_2 = TCC2->CC[1].reg;
     948:	6c92      	ldr	r2, [r2, #72]	; 0x48
     94a:	625a      	str	r2, [r3, #36]	; 0x24
		PORT->Group[0].OUTTGL.reg = PORT_PA15;
     94c:	2280      	movs	r2, #128	; 0x80
     94e:	0212      	lsls	r2, r2, #8
     950:	2382      	movs	r3, #130	; 0x82
     952:	05db      	lsls	r3, r3, #23
     954:	61da      	str	r2, [r3, #28]
		
	}
}
     956:	4770      	bx	lr
     958:	42002800 	.word	0x42002800
     95c:	42002c00 	.word	0x42002c00
     960:	20000cec 	.word	0x20000cec

00000964 <EIC_Handler>:

void EIC_Handler()
{
	if (EIC->INTFLAG.bit.EXTINT) {
     964:	4b06      	ldr	r3, [pc, #24]	; (980 <EIC_Handler+0x1c>)
     966:	695b      	ldr	r3, [r3, #20]
     968:	b29b      	uxth	r3, r3
     96a:	2b00      	cmp	r3, #0
     96c:	d006      	beq.n	97c <EIC_Handler+0x18>
		EIC->INTFLAG.reg = 0xFFFF;
     96e:	4a05      	ldr	r2, [pc, #20]	; (984 <EIC_Handler+0x20>)
     970:	4b03      	ldr	r3, [pc, #12]	; (980 <EIC_Handler+0x1c>)
     972:	615a      	str	r2, [r3, #20]
		Data_ready = true;
     974:	2101      	movs	r1, #1
     976:	2328      	movs	r3, #40	; 0x28
     978:	4a03      	ldr	r2, [pc, #12]	; (988 <EIC_Handler+0x24>)
     97a:	54d1      	strb	r1, [r2, r3]
	}
}
     97c:	4770      	bx	lr
     97e:	46c0      	nop			; (mov r8, r8)
     980:	40002800 	.word	0x40002800
     984:	0000ffff 	.word	0x0000ffff
     988:	20000cec 	.word	0x20000cec

0000098c <TC0_Handler>:

void TC0_Handler()
{
	if (TC0->COUNT16.INTFLAG.bit.MC0) {
     98c:	4b12      	ldr	r3, [pc, #72]	; (9d8 <TC0_Handler+0x4c>)
     98e:	7a9b      	ldrb	r3, [r3, #10]
     990:	06db      	lsls	r3, r3, #27
     992:	d518      	bpl.n	9c6 <TC0_Handler+0x3a>
		// The interrupt flag is cleared by reading CC
		cap0[nCap] = TC0->COUNT16.CC[0].bit.CC;
     994:	4b11      	ldr	r3, [pc, #68]	; (9dc <TC0_Handler+0x50>)
     996:	6ada      	ldr	r2, [r3, #44]	; 0x2c
     998:	480f      	ldr	r0, [pc, #60]	; (9d8 <TC0_Handler+0x4c>)
     99a:	8b81      	ldrh	r1, [r0, #28]
     99c:	b289      	uxth	r1, r1
     99e:	0052      	lsls	r2, r2, #1
     9a0:	189a      	adds	r2, r3, r2
     9a2:	8611      	strh	r1, [r2, #48]	; 0x30
		cap1[nCap] = TC0->COUNT16.CC[1].bit.CC;
     9a4:	6ada      	ldr	r2, [r3, #44]	; 0x2c
     9a6:	8bc1      	ldrh	r1, [r0, #30]
     9a8:	b289      	uxth	r1, r1
     9aa:	0050      	lsls	r0, r2, #1
     9ac:	4a0c      	ldr	r2, [pc, #48]	; (9e0 <TC0_Handler+0x54>)
     9ae:	1812      	adds	r2, r2, r0
     9b0:	8611      	strh	r1, [r2, #48]	; 0x30
		PORT->Group[0].OUTTGL.reg = PORT_PA15 | PORT_PA09;
     9b2:	2182      	movs	r1, #130	; 0x82
     9b4:	0209      	lsls	r1, r1, #8
     9b6:	2282      	movs	r2, #130	; 0x82
     9b8:	05d2      	lsls	r2, r2, #23
     9ba:	61d1      	str	r1, [r2, #28]
		if (++nCap == sizeof(cap0)/sizeof(cap0[0])) {
     9bc:	6ada      	ldr	r2, [r3, #44]	; 0x2c
     9be:	3201      	adds	r2, #1
     9c0:	62da      	str	r2, [r3, #44]	; 0x2c
     9c2:	2a80      	cmp	r2, #128	; 0x80
     9c4:	d000      	beq.n	9c8 <TC0_Handler+0x3c>
			done++;
			nCap = 0;
		
		}
	}
}
     9c6:	4770      	bx	lr
			done++;
     9c8:	4a06      	ldr	r2, [pc, #24]	; (9e4 <TC0_Handler+0x58>)
     9ca:	6b13      	ldr	r3, [r2, #48]	; 0x30
     9cc:	3301      	adds	r3, #1
     9ce:	6313      	str	r3, [r2, #48]	; 0x30
			nCap = 0;
     9d0:	2200      	movs	r2, #0
     9d2:	4b02      	ldr	r3, [pc, #8]	; (9dc <TC0_Handler+0x50>)
     9d4:	62da      	str	r2, [r3, #44]	; 0x2c
}
     9d6:	e7f6      	b.n	9c6 <TC0_Handler+0x3a>
     9d8:	42003000 	.word	0x42003000
     9dc:	20000cec 	.word	0x20000cec
     9e0:	20000dec 	.word	0x20000dec
     9e4:	20000eec 	.word	0x20000eec

000009e8 <_Z10setupTimerv>:

void setupTimer(void)
{
	MCLK->APBCMASK.bit.TCC0_ = 1;
     9e8:	4a3e      	ldr	r2, [pc, #248]	; (ae4 <_Z10setupTimerv+0xfc>)
     9ea:	69d1      	ldr	r1, [r2, #28]
     9ec:	2380      	movs	r3, #128	; 0x80
     9ee:	009b      	lsls	r3, r3, #2
     9f0:	430b      	orrs	r3, r1
     9f2:	61d3      	str	r3, [r2, #28]
	GCLK->PCHCTRL[TCC0_GCLK_ID].bit.GEN = 0;
     9f4:	4a3c      	ldr	r2, [pc, #240]	; (ae8 <_Z10setupTimerv+0x100>)
     9f6:	23f0      	movs	r3, #240	; 0xf0
     9f8:	58d1      	ldr	r1, [r2, r3]
     9fa:	200f      	movs	r0, #15
     9fc:	4381      	bics	r1, r0
     9fe:	50d1      	str	r1, [r2, r3]
	GCLK->PCHCTRL[TCC0_GCLK_ID].bit.CHEN = 1;
     a00:	58d1      	ldr	r1, [r2, r3]
     a02:	3031      	adds	r0, #49	; 0x31
     a04:	4301      	orrs	r1, r0
     a06:	50d1      	str	r1, [r2, r3]
	while(GCLK->PCHCTRL[TCC0_GCLK_ID].bit.CHEN != 1);
     a08:	0011      	movs	r1, r2
     a0a:	22f0      	movs	r2, #240	; 0xf0
     a0c:	588b      	ldr	r3, [r1, r2]
     a0e:	065b      	lsls	r3, r3, #25
     a10:	d5fc      	bpl.n	a0c <_Z10setupTimerv+0x24>
	TCC0->CTRLA.bit.ENABLE = 0;
     a12:	4a36      	ldr	r2, [pc, #216]	; (aec <_Z10setupTimerv+0x104>)
     a14:	6813      	ldr	r3, [r2, #0]
     a16:	2102      	movs	r1, #2
     a18:	438b      	bics	r3, r1
     a1a:	6013      	str	r3, [r2, #0]
	while (TCC0->SYNCBUSY.bit.ENABLE);
     a1c:	6893      	ldr	r3, [r2, #8]
     a1e:	079b      	lsls	r3, r3, #30
     a20:	d4fc      	bmi.n	a1c <_Z10setupTimerv+0x34>

	TCC0->CTRLA.reg |= TCC_CTRLA_PRESCALER_DIV1;
     a22:	4b32      	ldr	r3, [pc, #200]	; (aec <_Z10setupTimerv+0x104>)
     a24:	681a      	ldr	r2, [r3, #0]
     a26:	601a      	str	r2, [r3, #0]
	REG_TCC0_PERBUF = 0x5000;
     a28:	21a0      	movs	r1, #160	; 0xa0
     a2a:	01c9      	lsls	r1, r1, #7
     a2c:	4a30      	ldr	r2, [pc, #192]	; (af0 <_Z10setupTimerv+0x108>)
     a2e:	6011      	str	r1, [r2, #0]
	REG_TCC0_CCBUF0 = 0x2800;
     a30:	21a0      	movs	r1, #160	; 0xa0
     a32:	0189      	lsls	r1, r1, #6
     a34:	4a2f      	ldr	r2, [pc, #188]	; (af4 <_Z10setupTimerv+0x10c>)
     a36:	6011      	str	r1, [r2, #0]
	//while (TCC0->SYNCBUSY.bit.PER);
	TCC0->CTRLBSET.bit.CMD = 0x03;
     a38:	7959      	ldrb	r1, [r3, #5]
     a3a:	221f      	movs	r2, #31
     a3c:	400a      	ands	r2, r1
     a3e:	2160      	movs	r1, #96	; 0x60
     a40:	430a      	orrs	r2, r1
     a42:	715a      	strb	r2, [r3, #5]
	//TCC0->EVCTRL.reg = TCC_EVCTRL_TCEI1 |  // enable input event
	//TCC_EVCTRL_EVACT1_PPW; // event action = PPW
	// | TCC_EVCTRL_MCEI0 | TCC_EVCTRL_MCEI1;

	// Interrupts
	TCC0->INTENSET.bit.OVF = 1;
     a44:	6a9a      	ldr	r2, [r3, #40]	; 0x28
     a46:	2101      	movs	r1, #1
     a48:	430a      	orrs	r2, r1
     a4a:	629a      	str	r2, [r3, #40]	; 0x28
	TCC0->INTENSET.bit.MC0 = 1;
     a4c:	6a99      	ldr	r1, [r3, #40]	; 0x28
     a4e:	2280      	movs	r2, #128	; 0x80
     a50:	0252      	lsls	r2, r2, #9
     a52:	430a      	orrs	r2, r1
     a54:	629a      	str	r2, [r3, #40]	; 0x28
 */
__STATIC_INLINE void __NVIC_EnableIRQ(IRQn_Type IRQn)
{
  if ((int32_t)(IRQn) >= 0)
  {
    NVIC->ISER[0U] = (uint32_t)(1UL << (((uint32_t)(int32_t)IRQn) & 0x1FUL));
     a56:	2180      	movs	r1, #128	; 0x80
     a58:	0289      	lsls	r1, r1, #10
     a5a:	4a27      	ldr	r2, [pc, #156]	; (af8 <_Z10setupTimerv+0x110>)
     a5c:	6011      	str	r1, [r2, #0]
	//TCC0->INTENSET.bit.MC1 = 1; // Not needed, can read out both in MC0 interrupt
	NVIC_EnableIRQ(TCC0_IRQn);
	// Enable TCC
	TCC0->CTRLA.bit.ENABLE = 1;
     a5e:	681a      	ldr	r2, [r3, #0]
     a60:	2102      	movs	r1, #2
     a62:	430a      	orrs	r2, r1
     a64:	601a      	str	r2, [r3, #0]
	while (TCC0->SYNCBUSY.bit.ENABLE); // wait for sync
     a66:	001a      	movs	r2, r3
     a68:	6893      	ldr	r3, [r2, #8]
     a6a:	079b      	lsls	r3, r3, #30
     a6c:	d4fc      	bmi.n	a68 <_Z10setupTimerv+0x80>
	

	MCLK->APBCMASK.bit.TCC1_ = 1;
     a6e:	4a1d      	ldr	r2, [pc, #116]	; (ae4 <_Z10setupTimerv+0xfc>)
     a70:	69d1      	ldr	r1, [r2, #28]
     a72:	2380      	movs	r3, #128	; 0x80
     a74:	00db      	lsls	r3, r3, #3
     a76:	430b      	orrs	r3, r1
     a78:	61d3      	str	r3, [r2, #28]
	GCLK->PCHCTRL[TCC1_GCLK_ID].bit.GEN = 0;
     a7a:	4a1b      	ldr	r2, [pc, #108]	; (ae8 <_Z10setupTimerv+0x100>)
     a7c:	23f0      	movs	r3, #240	; 0xf0
     a7e:	58d1      	ldr	r1, [r2, r3]
     a80:	200f      	movs	r0, #15
     a82:	4381      	bics	r1, r0
     a84:	50d1      	str	r1, [r2, r3]
	GCLK->PCHCTRL[TCC1_GCLK_ID].bit.CHEN = 1;
     a86:	58d1      	ldr	r1, [r2, r3]
     a88:	3031      	adds	r0, #49	; 0x31
     a8a:	4301      	orrs	r1, r0
     a8c:	50d1      	str	r1, [r2, r3]
	while(GCLK->PCHCTRL[TCC1_GCLK_ID].bit.CHEN != 1);
     a8e:	0011      	movs	r1, r2
     a90:	22f0      	movs	r2, #240	; 0xf0
     a92:	588b      	ldr	r3, [r1, r2]
     a94:	065b      	lsls	r3, r3, #25
     a96:	d5fc      	bpl.n	a92 <_Z10setupTimerv+0xaa>
	TCC1->CTRLA.bit.ENABLE = 0;
     a98:	4a18      	ldr	r2, [pc, #96]	; (afc <_Z10setupTimerv+0x114>)
     a9a:	6813      	ldr	r3, [r2, #0]
     a9c:	2102      	movs	r1, #2
     a9e:	438b      	bics	r3, r1
     aa0:	6013      	str	r3, [r2, #0]
	while (TCC1->SYNCBUSY.bit.ENABLE);
     aa2:	6893      	ldr	r3, [r2, #8]
     aa4:	079b      	lsls	r3, r3, #30
     aa6:	d4fc      	bmi.n	aa2 <_Z10setupTimerv+0xba>

	TCC1->CTRLA.reg |= TCC_CTRLA_PRESCALER_DIV1;
     aa8:	4b14      	ldr	r3, [pc, #80]	; (afc <_Z10setupTimerv+0x114>)
     aaa:	681a      	ldr	r2, [r3, #0]
     aac:	601a      	str	r2, [r3, #0]
	REG_TCC1_PERBUF = 0xE64;
     aae:	4914      	ldr	r1, [pc, #80]	; (b00 <_Z10setupTimerv+0x118>)
     ab0:	4a14      	ldr	r2, [pc, #80]	; (b04 <_Z10setupTimerv+0x11c>)
     ab2:	6011      	str	r1, [r2, #0]
	//while (TCC1->SYNCBUSY.bit.PER);
	TCC1->CTRLBSET.bit.CMD = 0x03;
     ab4:	7959      	ldrb	r1, [r3, #5]
     ab6:	221f      	movs	r2, #31
     ab8:	400a      	ands	r2, r1
     aba:	2160      	movs	r1, #96	; 0x60
     abc:	430a      	orrs	r2, r1
     abe:	715a      	strb	r2, [r3, #5]
	//TCC1->EVCTRL.reg = TCC_EVCTRL_TCEI1 |  // enable input event
	//TCC_EVCTRL_EVACT1_PPW; // event action = PPW
	// | TCC_EVCTRL_MCEI0 | TCC_EVCTRL_MCEI1;

	// Interrupts
	TCC1->INTENSET.bit.OVF = 1;
     ac0:	6a9a      	ldr	r2, [r3, #40]	; 0x28
     ac2:	2101      	movs	r1, #1
     ac4:	430a      	orrs	r2, r1
     ac6:	629a      	str	r2, [r3, #40]	; 0x28
     ac8:	2180      	movs	r1, #128	; 0x80
     aca:	02c9      	lsls	r1, r1, #11
     acc:	4a0a      	ldr	r2, [pc, #40]	; (af8 <_Z10setupTimerv+0x110>)
     ace:	6011      	str	r1, [r2, #0]
	//TCC1->INTENSET.bit.MC1 = 1; // Not needed, can read out both in MC0 interrupt
	NVIC_EnableIRQ(TCC1_IRQn);

	// Enable TCC
	TCC1->CTRLA.bit.ENABLE = 1;
     ad0:	681a      	ldr	r2, [r3, #0]
     ad2:	2102      	movs	r1, #2
     ad4:	430a      	orrs	r2, r1
     ad6:	601a      	str	r2, [r3, #0]
	while (TCC1->SYNCBUSY.bit.ENABLE); // wait for sync
     ad8:	001a      	movs	r2, r3
     ada:	6893      	ldr	r3, [r2, #8]
     adc:	079b      	lsls	r3, r3, #30
     ade:	d4fc      	bmi.n	ada <_Z10setupTimerv+0xf2>
	//// EVSYS_CHANNEL_EDGSEL_BOTH_EDGES // not usable with  PATH_ASYNCHRONOUS
	//EVSYS->CHANNEL[1].reg = EVSYS_CHANNEL_PATH_ASYNCHRONOUS|EVSYS_CHANNEL_EVGEN(EVSYS_ID_GEN_EIC_EXTINT_7);
	//while(EVSYS->CHSTATUS.bit.CHBUSY1);

	
}
     ae0:	4770      	bx	lr
     ae2:	46c0      	nop			; (mov r8, r8)
     ae4:	40000800 	.word	0x40000800
     ae8:	40001c00 	.word	0x40001c00
     aec:	42002400 	.word	0x42002400
     af0:	4200246c 	.word	0x4200246c
     af4:	42002470 	.word	0x42002470
     af8:	e000e100 	.word	0xe000e100
     afc:	42002800 	.word	0x42002800
     b00:	00000e64 	.word	0x00000e64
     b04:	4200286c 	.word	0x4200286c

00000b08 <TCC1_Handler>:

void TCC1_Handler()
{
     b08:	b530      	push	{r4, r5, lr}
     b0a:	b083      	sub	sp, #12
	if (TCC1->INTFLAG.bit.OVF) {
     b0c:	4b41      	ldr	r3, [pc, #260]	; (c14 <TCC1_Handler+0x10c>)
     b0e:	6adb      	ldr	r3, [r3, #44]	; 0x2c
     b10:	07db      	lsls	r3, r3, #31
     b12:	d56a      	bpl.n	bea <TCC1_Handler+0xe2>
		TCC1->INTFLAG.bit.OVF = 1;
     b14:	4a3f      	ldr	r2, [pc, #252]	; (c14 <TCC1_Handler+0x10c>)
     b16:	6ad3      	ldr	r3, [r2, #44]	; 0x2c
     b18:	2101      	movs	r1, #1
     b1a:	430b      	orrs	r3, r1
     b1c:	62d3      	str	r3, [r2, #44]	; 0x2c
		static uint32_t counter = 0;
		if(counter%10 == 0)
     b1e:	4b3e      	ldr	r3, [pc, #248]	; (c18 <TCC1_Handler+0x110>)
     b20:	6b58      	ldr	r0, [r3, #52]	; 0x34
     b22:	3109      	adds	r1, #9
     b24:	4b3d      	ldr	r3, [pc, #244]	; (c1c <TCC1_Handler+0x114>)
     b26:	4798      	blx	r3
     b28:	2900      	cmp	r1, #0
     b2a:	d138      	bne.n	b9e <TCC1_Handler+0x96>
		{
			static uint32_t ct0 = ~0x00, ct1 = ~0x00, rpt;
			volatile uint32_t i;
			i = PORT->Group[1].IN.reg & PORT_PB13;
     b2c:	2282      	movs	r2, #130	; 0x82
     b2e:	05d2      	lsls	r2, r2, #23
     b30:	23a0      	movs	r3, #160	; 0xa0
     b32:	58d3      	ldr	r3, [r2, r3]
     b34:	2180      	movs	r1, #128	; 0x80
     b36:	0189      	lsls	r1, r1, #6
     b38:	400b      	ands	r3, r1
     b3a:	9301      	str	r3, [sp, #4]
			i += PORT->Group[0].IN.reg & (1<<KEY0);
     b3c:	6a13      	ldr	r3, [r2, #32]
     b3e:	9a01      	ldr	r2, [sp, #4]
     b40:	2080      	movs	r0, #128	; 0x80
     b42:	0540      	lsls	r0, r0, #21
     b44:	4003      	ands	r3, r0
     b46:	189b      	adds	r3, r3, r2
     b48:	9301      	str	r3, [sp, #4]
			i = ~i;
     b4a:	9b01      	ldr	r3, [sp, #4]
     b4c:	43db      	mvns	r3, r3
     b4e:	9301      	str	r3, [sp, #4]
			i = key_state ^ i;                      // key changed ?
     b50:	4a31      	ldr	r2, [pc, #196]	; (c18 <TCC1_Handler+0x110>)
     b52:	6b93      	ldr	r3, [r2, #56]	; 0x38
     b54:	9901      	ldr	r1, [sp, #4]
     b56:	404b      	eors	r3, r1
     b58:	9301      	str	r3, [sp, #4]
			ct0 = ~( ct0 & i );                             // reset or count ct0
     b5a:	9901      	ldr	r1, [sp, #4]
     b5c:	4c30      	ldr	r4, [pc, #192]	; (c20 <TCC1_Handler+0x118>)
     b5e:	68a3      	ldr	r3, [r4, #8]
     b60:	4019      	ands	r1, r3
     b62:	43c9      	mvns	r1, r1
     b64:	60a1      	str	r1, [r4, #8]
			ct1 = ct0 ^ (ct1 & i);                          // reset or count ct1
     b66:	9b01      	ldr	r3, [sp, #4]
     b68:	68e5      	ldr	r5, [r4, #12]
     b6a:	402b      	ands	r3, r5
     b6c:	404b      	eors	r3, r1
     b6e:	60e3      	str	r3, [r4, #12]
			i &= ct0 & ct1;                                 // count until roll over ?
     b70:	9c01      	ldr	r4, [sp, #4]
     b72:	4021      	ands	r1, r4
     b74:	400b      	ands	r3, r1
     b76:	9301      	str	r3, [sp, #4]
			key_state ^= i;                                 // then toggle debounced state
     b78:	9b01      	ldr	r3, [sp, #4]
     b7a:	6b91      	ldr	r1, [r2, #56]	; 0x38
     b7c:	404b      	eors	r3, r1
     b7e:	6393      	str	r3, [r2, #56]	; 0x38
			key_press |= key_state & i;                     // 0->1: key press detect
     b80:	6b94      	ldr	r4, [r2, #56]	; 0x38
     b82:	9b01      	ldr	r3, [sp, #4]
     b84:	6bd1      	ldr	r1, [r2, #60]	; 0x3c
     b86:	4023      	ands	r3, r4
     b88:	430b      	orrs	r3, r1
     b8a:	63d3      	str	r3, [r2, #60]	; 0x3c
			
			if( (key_state & REPEAT_MASK) == 0 )            // check repeat function
     b8c:	6b93      	ldr	r3, [r2, #56]	; 0x38
     b8e:	4203      	tst	r3, r0
     b90:	d12d      	bne.n	bee <TCC1_Handler+0xe6>
			rpt = REPEAT_START;                          // start delay
			if( --rpt == 0 ){
     b92:	2231      	movs	r2, #49	; 0x31
     b94:	4b20      	ldr	r3, [pc, #128]	; (c18 <TCC1_Handler+0x110>)
     b96:	641a      	str	r2, [r3, #64]	; 0x40
				rpt = REPEAT_NEXT;                            // repeat delay
				key_rpt |= key_state & REPEAT_MASK;
			}
			counter = 0;
     b98:	2200      	movs	r2, #0
     b9a:	4b1f      	ldr	r3, [pc, #124]	; (c18 <TCC1_Handler+0x110>)
     b9c:	635a      	str	r2, [r3, #52]	; 0x34
		}
		counter++;
     b9e:	4a1e      	ldr	r2, [pc, #120]	; (c18 <TCC1_Handler+0x110>)
     ba0:	6b53      	ldr	r3, [r2, #52]	; 0x34
     ba2:	3301      	adds	r3, #1
     ba4:	6353      	str	r3, [r2, #52]	; 0x34
		
		int32_t _new, diff;

		_new = 0;
		if( PORT->Group[1].IN.reg & PORT_PB04 ) _new = 3;
     ba6:	23a0      	movs	r3, #160	; 0xa0
     ba8:	2282      	movs	r2, #130	; 0x82
     baa:	05d2      	lsls	r2, r2, #23
     bac:	58d3      	ldr	r3, [r2, r3]
		_new = 0;
     bae:	2100      	movs	r1, #0
		if( PORT->Group[1].IN.reg & PORT_PB04 ) _new = 3;
     bb0:	06db      	lsls	r3, r3, #27
     bb2:	d500      	bpl.n	bb6 <TCC1_Handler+0xae>
     bb4:	3103      	adds	r1, #3
		if( PORT->Group[1].IN.reg & PORT_PB30 ) _new ^= 1;          // convert gray to binary
     bb6:	23a0      	movs	r3, #160	; 0xa0
     bb8:	2282      	movs	r2, #130	; 0x82
     bba:	05d2      	lsls	r2, r2, #23
     bbc:	58d3      	ldr	r3, [r2, r3]
     bbe:	005b      	lsls	r3, r3, #1
     bc0:	d501      	bpl.n	bc6 <TCC1_Handler+0xbe>
     bc2:	2301      	movs	r3, #1
     bc4:	4059      	eors	r1, r3
		diff = last - _new;               // difference last - new
     bc6:	2348      	movs	r3, #72	; 0x48
     bc8:	4a13      	ldr	r2, [pc, #76]	; (c18 <TCC1_Handler+0x110>)
     bca:	56d2      	ldrsb	r2, [r2, r3]
     bcc:	1a52      	subs	r2, r2, r1
		if( diff & 1 ) {                 // bit 0 = value (1)
     bce:	07d3      	lsls	r3, r2, #31
     bd0:	d50b      	bpl.n	bea <TCC1_Handler+0xe2>
			last = _new;                    // store new as next last
     bd2:	4811      	ldr	r0, [pc, #68]	; (c18 <TCC1_Handler+0x110>)
     bd4:	2348      	movs	r3, #72	; 0x48
     bd6:	54c1      	strb	r1, [r0, r3]
			enc_delta += (diff & 2) - 1;   // bit 1 = direction (+/-)
     bd8:	2449      	movs	r4, #73	; 0x49
     bda:	5d01      	ldrb	r1, [r0, r4]
     bdc:	b249      	sxtb	r1, r1
     bde:	3b46      	subs	r3, #70	; 0x46
     be0:	4013      	ands	r3, r2
     be2:	3901      	subs	r1, #1
     be4:	185b      	adds	r3, r3, r1
     be6:	b25b      	sxtb	r3, r3
     be8:	5503      	strb	r3, [r0, r4]
		}
		
		
	}
	
}
     bea:	b003      	add	sp, #12
     bec:	bd30      	pop	{r4, r5, pc}
			if( --rpt == 0 ){
     bee:	4b0a      	ldr	r3, [pc, #40]	; (c18 <TCC1_Handler+0x110>)
     bf0:	6c1b      	ldr	r3, [r3, #64]	; 0x40
     bf2:	3b01      	subs	r3, #1
     bf4:	2b00      	cmp	r3, #0
     bf6:	d10a      	bne.n	c0e <TCC1_Handler+0x106>
				rpt = REPEAT_NEXT;                            // repeat delay
     bf8:	4a07      	ldr	r2, [pc, #28]	; (c18 <TCC1_Handler+0x110>)
     bfa:	2314      	movs	r3, #20
     bfc:	6413      	str	r3, [r2, #64]	; 0x40
				key_rpt |= key_state & REPEAT_MASK;
     bfe:	6b93      	ldr	r3, [r2, #56]	; 0x38
     c00:	6c51      	ldr	r1, [r2, #68]	; 0x44
     c02:	2080      	movs	r0, #128	; 0x80
     c04:	0540      	lsls	r0, r0, #21
     c06:	4003      	ands	r3, r0
     c08:	430b      	orrs	r3, r1
     c0a:	6453      	str	r3, [r2, #68]	; 0x44
     c0c:	e7c4      	b.n	b98 <TCC1_Handler+0x90>
			if( --rpt == 0 ){
     c0e:	4a02      	ldr	r2, [pc, #8]	; (c18 <TCC1_Handler+0x110>)
     c10:	6413      	str	r3, [r2, #64]	; 0x40
     c12:	e7c1      	b.n	b98 <TCC1_Handler+0x90>
     c14:	42002800 	.word	0x42002800
     c18:	20000eec 	.word	0x20000eec
     c1c:	00001b29 	.word	0x00001b29
     c20:	20000304 	.word	0x20000304

00000c24 <_Z14setupInput_TC0v>:

void setupInput_TC0(void)
{
     c24:	b510      	push	{r4, lr}
	MCLK->APBAMASK.bit.EIC_ = 1;
     c26:	4a20      	ldr	r2, [pc, #128]	; (ca8 <_Z14setupInput_TC0v+0x84>)
     c28:	6951      	ldr	r1, [r2, #20]
     c2a:	2380      	movs	r3, #128	; 0x80
     c2c:	00db      	lsls	r3, r3, #3
     c2e:	430b      	orrs	r3, r1
     c30:	6153      	str	r3, [r2, #20]
	GCLK->PCHCTRL[EIC_GCLK_ID].bit.GEN = 0;
     c32:	4a1e      	ldr	r2, [pc, #120]	; (cac <_Z14setupInput_TC0v+0x88>)
     c34:	2388      	movs	r3, #136	; 0x88
     c36:	58d1      	ldr	r1, [r2, r3]
     c38:	200f      	movs	r0, #15
     c3a:	4381      	bics	r1, r0
     c3c:	50d1      	str	r1, [r2, r3]
	GCLK->PCHCTRL[EIC_GCLK_ID].bit.CHEN = 1;
     c3e:	58d1      	ldr	r1, [r2, r3]
     c40:	3031      	adds	r0, #49	; 0x31
     c42:	4301      	orrs	r1, r0
     c44:	50d1      	str	r1, [r2, r3]
	while(GCLK->PCHCTRL[EIC_GCLK_ID].bit.CHEN != 1);
     c46:	0011      	movs	r1, r2
     c48:	2288      	movs	r2, #136	; 0x88
     c4a:	588b      	ldr	r3, [r1, r2]
     c4c:	065b      	lsls	r3, r3, #25
     c4e:	d5fc      	bpl.n	c4a <_Z14setupInput_TC0v+0x26>
	// Input on PA22 which is EXTINT6
	PORT->Group[0].PMUX[23/2].bit.PMUXE = MUX_PA23A_EIC_EXTINT7;
     c50:	2382      	movs	r3, #130	; 0x82
     c52:	05db      	lsls	r3, r3, #23
     c54:	213b      	movs	r1, #59	; 0x3b
     c56:	5c5a      	ldrb	r2, [r3, r1]
     c58:	200f      	movs	r0, #15
     c5a:	4382      	bics	r2, r0
     c5c:	545a      	strb	r2, [r3, r1]
	PORT->Group[0].PINCFG[23].bit.PMUXEN = 1;
     c5e:	2257      	movs	r2, #87	; 0x57
     c60:	5c99      	ldrb	r1, [r3, r2]
     c62:	2001      	movs	r0, #1
     c64:	4301      	orrs	r1, r0
     c66:	5499      	strb	r1, [r3, r2]
	PORT->Group[0].PINCFG[23].bit.INEN = 1;
     c68:	5c99      	ldrb	r1, [r3, r2]
     c6a:	2402      	movs	r4, #2
     c6c:	4321      	orrs	r1, r4
     c6e:	5499      	strb	r1, [r3, r2]
	PORT->Group[0].PINCFG[23].bit.PULLEN = 1;
     c70:	5c99      	ldrb	r1, [r3, r2]
     c72:	2004      	movs	r0, #4
     c74:	4301      	orrs	r1, r0
     c76:	5499      	strb	r1, [r3, r2]
	PORT->Group[0].OUTSET.reg = PORT_PA23;
     c78:	2280      	movs	r2, #128	; 0x80
     c7a:	0412      	lsls	r2, r2, #16
     c7c:	619a      	str	r2, [r3, #24]
	//PORT->Group[0].PINCFG[22].reg = pincfg.reg;
	EIC->CONFIG[0].bit.SENSE7 = EIC_CONFIG_SENSE7_HIGH_Val;
     c7e:	4a0c      	ldr	r2, [pc, #48]	; (cb0 <_Z14setupInput_TC0v+0x8c>)
     c80:	69d1      	ldr	r1, [r2, #28]
     c82:	480c      	ldr	r0, [pc, #48]	; (cb4 <_Z14setupInput_TC0v+0x90>)
     c84:	4008      	ands	r0, r1
     c86:	2180      	movs	r1, #128	; 0x80
     c88:	05c9      	lsls	r1, r1, #23
     c8a:	4301      	orrs	r1, r0
     c8c:	61d1      	str	r1, [r2, #28]
	EIC->EVCTRL.bit.EXTINTEO = 1 << 7;
     c8e:	6893      	ldr	r3, [r2, #8]
     c90:	0c1b      	lsrs	r3, r3, #16
     c92:	041b      	lsls	r3, r3, #16
     c94:	2180      	movs	r1, #128	; 0x80
     c96:	430b      	orrs	r3, r1
     c98:	6093      	str	r3, [r2, #8]
	EIC->CTRLA.bit.ENABLE = 1;
     c9a:	7813      	ldrb	r3, [r2, #0]
     c9c:	4323      	orrs	r3, r4
     c9e:	7013      	strb	r3, [r2, #0]
	while (EIC->SYNCBUSY.bit.ENABLE == 1);
     ca0:	6853      	ldr	r3, [r2, #4]
     ca2:	079b      	lsls	r3, r3, #30
     ca4:	d4fc      	bmi.n	ca0 <_Z14setupInput_TC0v+0x7c>
}
     ca6:	bd10      	pop	{r4, pc}
     ca8:	40000800 	.word	0x40000800
     cac:	40001c00 	.word	0x40001c00
     cb0:	40002800 	.word	0x40002800
     cb4:	8fffffff 	.word	0x8fffffff

00000cb8 <_Z14setupTimer_TC0v>:
}


void setupTimer_TC0(void)
{
	MCLK->APBCMASK.bit.TC0_ = 1;
     cb8:	4a3c      	ldr	r2, [pc, #240]	; (dac <_Z14setupTimer_TC0v+0xf4>)
     cba:	69d1      	ldr	r1, [r2, #28]
     cbc:	2380      	movs	r3, #128	; 0x80
     cbe:	015b      	lsls	r3, r3, #5
     cc0:	430b      	orrs	r3, r1
     cc2:	61d3      	str	r3, [r2, #28]
	GCLK->PCHCTRL[TC0_GCLK_ID].bit.GEN = 0;
     cc4:	4a3a      	ldr	r2, [pc, #232]	; (db0 <_Z14setupTimer_TC0v+0xf8>)
     cc6:	23f8      	movs	r3, #248	; 0xf8
     cc8:	58d1      	ldr	r1, [r2, r3]
     cca:	200f      	movs	r0, #15
     ccc:	4381      	bics	r1, r0
     cce:	50d1      	str	r1, [r2, r3]
	GCLK->PCHCTRL[TC0_GCLK_ID].bit.CHEN = 1;
     cd0:	58d1      	ldr	r1, [r2, r3]
     cd2:	3031      	adds	r0, #49	; 0x31
     cd4:	4301      	orrs	r1, r0
     cd6:	50d1      	str	r1, [r2, r3]
	while(GCLK->PCHCTRL[TC0_GCLK_ID].bit.CHEN != 1);
     cd8:	0011      	movs	r1, r2
     cda:	22f8      	movs	r2, #248	; 0xf8
     cdc:	588b      	ldr	r3, [r1, r2]
     cde:	065b      	lsls	r3, r3, #25
     ce0:	d5fc      	bpl.n	cdc <_Z14setupTimer_TC0v+0x24>
	
	TC0->COUNT16.CTRLA.bit.ENABLE = 0;
     ce2:	4a34      	ldr	r2, [pc, #208]	; (db4 <_Z14setupTimer_TC0v+0xfc>)
     ce4:	6813      	ldr	r3, [r2, #0]
     ce6:	2102      	movs	r1, #2
     ce8:	438b      	bics	r3, r1
     cea:	6013      	str	r3, [r2, #0]
	while (TC0->COUNT16.SYNCBUSY.reg);
     cec:	6913      	ldr	r3, [r2, #16]
     cee:	2b00      	cmp	r3, #0
     cf0:	d1fc      	bne.n	cec <_Z14setupTimer_TC0v+0x34>
	TC0->COUNT16.CTRLA.bit.MODE = TC_CTRLA_MODE_COUNT16;
     cf2:	4b30      	ldr	r3, [pc, #192]	; (db4 <_Z14setupTimer_TC0v+0xfc>)
     cf4:	681a      	ldr	r2, [r3, #0]
     cf6:	210c      	movs	r1, #12
     cf8:	438a      	bics	r2, r1
     cfa:	601a      	str	r2, [r3, #0]
	TC0->COUNT16.CTRLA.bit.PRESCALER = TC_CTRLA_PRESCALER_DIV1_Val;
     cfc:	681a      	ldr	r2, [r3, #0]
     cfe:	492e      	ldr	r1, [pc, #184]	; (db8 <_Z14setupTimer_TC0v+0x100>)
     d00:	400a      	ands	r2, r1
     d02:	601a      	str	r2, [r3, #0]
	TC0->COUNT16.CTRLA.bit.CAPTEN0 = 1;
     d04:	6819      	ldr	r1, [r3, #0]
     d06:	2280      	movs	r2, #128	; 0x80
     d08:	0252      	lsls	r2, r2, #9
     d0a:	430a      	orrs	r2, r1
     d0c:	601a      	str	r2, [r3, #0]
	TC0->COUNT16.CTRLA.bit.CAPTEN1 = 1;
     d0e:	6819      	ldr	r1, [r3, #0]
     d10:	2280      	movs	r2, #128	; 0x80
     d12:	0292      	lsls	r2, r2, #10
     d14:	430a      	orrs	r2, r1
     d16:	601a      	str	r2, [r3, #0]
	TC0->COUNT16.CTRLA.bit.COPEN0 = 0;
     d18:	681a      	ldr	r2, [r3, #0]
     d1a:	4928      	ldr	r1, [pc, #160]	; (dbc <_Z14setupTimer_TC0v+0x104>)
     d1c:	400a      	ands	r2, r1
     d1e:	601a      	str	r2, [r3, #0]
	TC0->COUNT16.CTRLA.bit.COPEN1 = 0;
     d20:	681a      	ldr	r2, [r3, #0]
     d22:	4927      	ldr	r1, [pc, #156]	; (dc0 <_Z14setupTimer_TC0v+0x108>)
     d24:	400a      	ands	r2, r1
     d26:	601a      	str	r2, [r3, #0]
	while (TC0->COUNT16.SYNCBUSY.reg);
     d28:	001a      	movs	r2, r3
     d2a:	6913      	ldr	r3, [r2, #16]
     d2c:	2b00      	cmp	r3, #0
     d2e:	d1fc      	bne.n	d2a <_Z14setupTimer_TC0v+0x72>

	TC0->COUNT16.EVCTRL.bit.TCEI = 1;
     d30:	4b20      	ldr	r3, [pc, #128]	; (db4 <_Z14setupTimer_TC0v+0xfc>)
     d32:	88da      	ldrh	r2, [r3, #6]
     d34:	2120      	movs	r1, #32
     d36:	430a      	orrs	r2, r1
     d38:	80da      	strh	r2, [r3, #6]
	TC0->COUNT16.EVCTRL.bit.TCINV = 1;
     d3a:	88da      	ldrh	r2, [r3, #6]
     d3c:	2110      	movs	r1, #16
     d3e:	430a      	orrs	r2, r1
     d40:	80da      	strh	r2, [r3, #6]
	TC0->COUNT16.EVCTRL.bit.EVACT = TC_EVCTRL_EVACT_PPW_Val;
     d42:	88da      	ldrh	r2, [r3, #6]
     d44:	2107      	movs	r1, #7
     d46:	438a      	bics	r2, r1
     d48:	2105      	movs	r1, #5
     d4a:	430a      	orrs	r2, r1
     d4c:	80da      	strh	r2, [r3, #6]
	// Interrupts
	TC0->COUNT16.INTENSET.bit.MC0 = 1;
     d4e:	7a5a      	ldrb	r2, [r3, #9]
     d50:	2110      	movs	r1, #16
     d52:	430a      	orrs	r2, r1
     d54:	725a      	strb	r2, [r3, #9]
	TC0->COUNT16.INTENSET.bit.MC1 = 0; // Not needed, can read out both in MC0 interrupt
     d56:	7a5a      	ldrb	r2, [r3, #9]
     d58:	2120      	movs	r1, #32
     d5a:	438a      	bics	r2, r1
     d5c:	725a      	strb	r2, [r3, #9]
	
	// Enable TC
	TC0->COUNT16.CTRLA.bit.ENABLE = 1;
     d5e:	681a      	ldr	r2, [r3, #0]
     d60:	391e      	subs	r1, #30
     d62:	430a      	orrs	r2, r1
     d64:	601a      	str	r2, [r3, #0]
	while (TC0->COUNT16.SYNCBUSY.reg);
     d66:	001a      	movs	r2, r3
     d68:	6913      	ldr	r3, [r2, #16]
     d6a:	2b00      	cmp	r3, #0
     d6c:	d1fc      	bne.n	d68 <_Z14setupTimer_TC0v+0xb0>
     d6e:	2280      	movs	r2, #128	; 0x80
     d70:	0352      	lsls	r2, r2, #13
     d72:	4b14      	ldr	r3, [pc, #80]	; (dc4 <_Z14setupTimer_TC0v+0x10c>)
     d74:	601a      	str	r2, [r3, #0]
	
	// Enable InterruptVector
	NVIC_EnableIRQ(TC0_IRQn);

	MCLK->APBCMASK.bit.EVSYS_ = 1;
     d76:	4a0d      	ldr	r2, [pc, #52]	; (dac <_Z14setupTimer_TC0v+0xf4>)
     d78:	69d3      	ldr	r3, [r2, #28]
     d7a:	2101      	movs	r1, #1
     d7c:	430b      	orrs	r3, r1
     d7e:	61d3      	str	r3, [r2, #28]
	// EVSYS GCLK is needed for interrupts and sync path (so not now)
	EVSYS->USER[EVSYS_ID_USER_TC0_EVU].bit.CHANNEL = 2; // Channel n-1 selected so 1 here
     d80:	2184      	movs	r1, #132	; 0x84
     d82:	05c9      	lsls	r1, r1, #23
     d84:	22dc      	movs	r2, #220	; 0xdc
     d86:	588b      	ldr	r3, [r1, r2]
     d88:	201f      	movs	r0, #31
     d8a:	4383      	bics	r3, r0
     d8c:	381d      	subs	r0, #29
     d8e:	4303      	orrs	r3, r0
     d90:	508b      	str	r3, [r1, r2]
	while(!EVSYS->CHSTATUS.bit.USRRDY1);
     d92:	000a      	movs	r2, r1
     d94:	68d3      	ldr	r3, [r2, #12]
     d96:	079b      	lsls	r3, r3, #30
     d98:	d5fc      	bpl.n	d94 <_Z14setupTimer_TC0v+0xdc>
	
	// EVSYS_CHANNEL_EDGSEL_BOTH_EDGES // not usable with  PATH_ASYNCHRONOUS
	EVSYS->CHANNEL[1].reg = EVSYS_CHANNEL_PATH_ASYNCHRONOUS|EVSYS_CHANNEL_EVGEN(EVSYS_ID_GEN_EIC_EXTINT_7);
     d9a:	4a0b      	ldr	r2, [pc, #44]	; (dc8 <_Z14setupTimer_TC0v+0x110>)
     d9c:	2384      	movs	r3, #132	; 0x84
     d9e:	05db      	lsls	r3, r3, #23
     da0:	625a      	str	r2, [r3, #36]	; 0x24
	while(EVSYS->CHSTATUS.bit.CHBUSY1);
     da2:	001a      	movs	r2, r3
     da4:	68d3      	ldr	r3, [r2, #12]
     da6:	039b      	lsls	r3, r3, #14
     da8:	d4fc      	bmi.n	da4 <_Z14setupTimer_TC0v+0xec>
}
     daa:	4770      	bx	lr
     dac:	40000800 	.word	0x40000800
     db0:	40001c00 	.word	0x40001c00
     db4:	42003000 	.word	0x42003000
     db8:	fffff8ff 	.word	0xfffff8ff
     dbc:	ffefffff 	.word	0xffefffff
     dc0:	ffdfffff 	.word	0xffdfffff
     dc4:	e000e100 	.word	0xe000e100
     dc8:	00000215 	.word	0x00000215

00000dcc <_Z11encode_initv>:
void encode_init( void )
{
	int8_t _new;

	_new = 0;
	if( PHASE_A ) _new = 3;
     dcc:	23a0      	movs	r3, #160	; 0xa0
     dce:	2282      	movs	r2, #130	; 0x82
     dd0:	05d2      	lsls	r2, r2, #23
     dd2:	58d2      	ldr	r2, [r2, r3]
	_new = 0;
     dd4:	2300      	movs	r3, #0
	if( PHASE_A ) _new = 3;
     dd6:	06d2      	lsls	r2, r2, #27
     dd8:	d500      	bpl.n	ddc <_Z11encode_initv+0x10>
     dda:	3303      	adds	r3, #3
	if( PHASE_B ) _new ^= 1;       // convert gray to binary
     ddc:	22a0      	movs	r2, #160	; 0xa0
     dde:	2182      	movs	r1, #130	; 0x82
     de0:	05c9      	lsls	r1, r1, #23
     de2:	588a      	ldr	r2, [r1, r2]
     de4:	06d2      	lsls	r2, r2, #27
     de6:	d501      	bpl.n	dec <_Z11encode_initv+0x20>
     de8:	2201      	movs	r2, #1
     dea:	4053      	eors	r3, r2
	last = _new;                   // power on state
     dec:	2248      	movs	r2, #72	; 0x48
     dee:	4901      	ldr	r1, [pc, #4]	; (df4 <_Z11encode_initv+0x28>)
     df0:	548b      	strb	r3, [r1, r2]
	
}
     df2:	4770      	bx	lr
     df4:	20000eec 	.word	0x20000eec

00000df8 <_Z12encode_read4v>:
  __ASM volatile ("cpsid i" : : : "memory");
     df8:	b672      	cpsid	i
int8_t encode_read4( void )         // read four step encoders
{
	int8_t val;

	cli();
	val = enc_delta;
     dfa:	4905      	ldr	r1, [pc, #20]	; (e10 <_Z12encode_read4v+0x18>)
     dfc:	2249      	movs	r2, #73	; 0x49
     dfe:	5c88      	ldrb	r0, [r1, r2]
     e00:	b240      	sxtb	r0, r0
	enc_delta = val & 3;
     e02:	2303      	movs	r3, #3
     e04:	4003      	ands	r3, r0
     e06:	548b      	strb	r3, [r1, r2]
  __ASM volatile ("cpsie i" : : : "memory");
     e08:	b662      	cpsie	i
	sei();
	return val >> 2;
     e0a:	1080      	asrs	r0, r0, #2
}
     e0c:	4770      	bx	lr
     e0e:	46c0      	nop			; (mov r8, r8)
     e10:	20000eec 	.word	0x20000eec

00000e14 <_Z13get_key_pressm>:
// only once
//
uint32_t get_key_press( uint32_t key_mask__ )
{
	//NVIC_DisableIRQ(TCC1_IRQn);                                        // read and clear atomic !
	key_mask__ &= key_press;                          // read key(s)
     e14:	4b03      	ldr	r3, [pc, #12]	; (e24 <_Z13get_key_pressm+0x10>)
     e16:	6bda      	ldr	r2, [r3, #60]	; 0x3c
     e18:	4010      	ands	r0, r2
	key_press ^= key_mask__;                          // clear key(s)
     e1a:	6bda      	ldr	r2, [r3, #60]	; 0x3c
     e1c:	4042      	eors	r2, r0
     e1e:	63da      	str	r2, [r3, #60]	; 0x3c
	//NVIC_EnableIRQ(TCC1_IRQn);
	return key_mask__;
}
     e20:	4770      	bx	lr
     e22:	46c0      	nop			; (mov r8, r8)
     e24:	20000eec 	.word	0x20000eec

00000e28 <_Z13get_key_shortm>:
}

///////////////////////////////////////////////////////////////////
//
uint32_t get_key_short( uint32_t key_mask_ )
{
     e28:	b510      	push	{r4, lr}
	//NVIC_DisableIRQ(TCC1_IRQn);                                         // read key state and key press atomic !
	return get_key_press( ~key_state & key_mask_ );
     e2a:	4b03      	ldr	r3, [pc, #12]	; (e38 <_Z13get_key_shortm+0x10>)
     e2c:	6b9b      	ldr	r3, [r3, #56]	; 0x38
     e2e:	4398      	bics	r0, r3
     e30:	4b02      	ldr	r3, [pc, #8]	; (e3c <_Z13get_key_shortm+0x14>)
     e32:	4798      	blx	r3
}
     e34:	bd10      	pop	{r4, pc}
     e36:	46c0      	nop			; (mov r8, r8)
     e38:	20000eec 	.word	0x20000eec
     e3c:	00000e15 	.word	0x00000e15

00000e40 <main>:
	return get_key_press( get_key_rpt( key_mask ));
}


int main(void)
{
     e40:	b5f0      	push	{r4, r5, r6, r7, lr}
     e42:	46de      	mov	lr, fp
     e44:	4657      	mov	r7, sl
     e46:	464e      	mov	r6, r9
     e48:	4645      	mov	r5, r8
     e4a:	b5e0      	push	{r5, r6, r7, lr}
     e4c:	b095      	sub	sp, #84	; 0x54
	bool change_heizung = false;
	bool change_setpoint = false;
	bool change_power_limit = false;
	uint8_t status_heizung = 0;
	uint8_t menu_point = 0;
	PID.cycle_time = 0.25;
     e4e:	4de4      	ldr	r5, [pc, #912]	; (11e0 <main+0x3a0>)
     e50:	23fa      	movs	r3, #250	; 0xfa
     e52:	059b      	lsls	r3, r3, #22
     e54:	61ab      	str	r3, [r5, #24]
	PID.Kp = 10;
     e56:	4be3      	ldr	r3, [pc, #908]	; (11e4 <main+0x3a4>)
     e58:	60eb      	str	r3, [r5, #12]
	PID.Tv = 1.2;
     e5a:	4be3      	ldr	r3, [pc, #908]	; (11e8 <main+0x3a8>)
     e5c:	616b      	str	r3, [r5, #20]
	PID.Tn = 20;
     e5e:	4be3      	ldr	r3, [pc, #908]	; (11ec <main+0x3ac>)
     e60:	612b      	str	r3, [r5, #16]
	PORT->Group[1].PINCFG[4].bit.PULLEN = true;
     e62:	2482      	movs	r4, #130	; 0x82
     e64:	05e4      	lsls	r4, r4, #23
     e66:	21c4      	movs	r1, #196	; 0xc4
     e68:	5c63      	ldrb	r3, [r4, r1]
     e6a:	2704      	movs	r7, #4
     e6c:	433b      	orrs	r3, r7
     e6e:	5463      	strb	r3, [r4, r1]
	PORT->Group[1].PINCFG[30].bit.PULLEN = true;
     e70:	22de      	movs	r2, #222	; 0xde
     e72:	5ca3      	ldrb	r3, [r4, r2]
     e74:	433b      	orrs	r3, r7
     e76:	54a3      	strb	r3, [r4, r2]
	PORT->Group[1].PINCFG[13].bit.PULLEN = true;
     e78:	23cd      	movs	r3, #205	; 0xcd
     e7a:	5ce0      	ldrb	r0, [r4, r3]
     e7c:	4338      	orrs	r0, r7
     e7e:	54e0      	strb	r0, [r4, r3]
	PORT->Group[1].PINCFG[4].bit.INEN = true;
     e80:	5c60      	ldrb	r0, [r4, r1]
     e82:	2602      	movs	r6, #2
     e84:	4330      	orrs	r0, r6
     e86:	5460      	strb	r0, [r4, r1]
	PORT->Group[1].PINCFG[30].bit.INEN = true;
     e88:	5ca1      	ldrb	r1, [r4, r2]
     e8a:	4331      	orrs	r1, r6
     e8c:	54a1      	strb	r1, [r4, r2]
	PORT->Group[1].PINCFG[13].bit.INEN = true;
     e8e:	5ce2      	ldrb	r2, [r4, r3]
     e90:	4332      	orrs	r2, r6
     e92:	54e2      	strb	r2, [r4, r3]
	PORT->Group[1].OUTSET.reg = PORT_PB04 | PORT_PB30 | PORT_PB13;;
     e94:	3b35      	subs	r3, #53	; 0x35
     e96:	4698      	mov	r8, r3
     e98:	4bd5      	ldr	r3, [pc, #852]	; (11f0 <main+0x3b0>)
     e9a:	4642      	mov	r2, r8
     e9c:	50a3      	str	r3, [r4, r2]
    /* Initialize the SAM system */
	char text_buffer[5];
    SystemInit();
     e9e:	4bd5      	ldr	r3, [pc, #852]	; (11f4 <main+0x3b4>)
     ea0:	4798      	blx	r3
	setupInput_TC0();
     ea2:	4bd5      	ldr	r3, [pc, #852]	; (11f8 <main+0x3b8>)
     ea4:	4798      	blx	r3
	setupTimer_TC0();
     ea6:	4bd5      	ldr	r3, [pc, #852]	; (11fc <main+0x3bc>)
     ea8:	4798      	blx	r3
	setupTimer();
     eaa:	4bd5      	ldr	r3, [pc, #852]	; (1200 <main+0x3c0>)
     eac:	4798      	blx	r3
	init_i2c();
     eae:	4bd5      	ldr	r3, [pc, #852]	; (1204 <main+0x3c4>)
     eb0:	4798      	blx	r3
	rtc_init();
     eb2:	4bd5      	ldr	r3, [pc, #852]	; (1208 <main+0x3c8>)
     eb4:	4798      	blx	r3
	init_SPI();
     eb6:	4bd5      	ldr	r3, [pc, #852]	; (120c <main+0x3cc>)
     eb8:	4798      	blx	r3
	RTD_Init();
     eba:	4bd5      	ldr	r3, [pc, #852]	; (1210 <main+0x3d0>)
     ebc:	4798      	blx	r3
	encode_init();
     ebe:	4bd5      	ldr	r3, [pc, #852]	; (1214 <main+0x3d4>)
     ec0:	4798      	blx	r3
	PORT->Group[0].DIRSET.reg = PORT_PA15 | PORT_PA22 | PORT_PA09;
     ec2:	4bd5      	ldr	r3, [pc, #852]	; (1218 <main+0x3d8>)
     ec4:	60a3      	str	r3, [r4, #8]
	PORT->Group[0].OUTTGL.reg = PORT_PA15 | PORT_PA22;
     ec6:	2181      	movs	r1, #129	; 0x81
     ec8:	03c9      	lsls	r1, r1, #15
     eca:	61e1      	str	r1, [r4, #28]
	PORT->Group[0].DIRCLR.reg = PORT_PA28;
     ecc:	2080      	movs	r0, #128	; 0x80
     ece:	0540      	lsls	r0, r0, #21
     ed0:	6060      	str	r0, [r4, #4]
	PORT->Group[0].PINCFG[28].bit.PULLEN = true;
     ed2:	235c      	movs	r3, #92	; 0x5c
     ed4:	5ce2      	ldrb	r2, [r4, r3]
     ed6:	4317      	orrs	r7, r2
     ed8:	54e7      	strb	r7, [r4, r3]
	PORT->Group[0].OUTSET.reg = PORT_PA28;
     eda:	61a0      	str	r0, [r4, #24]
	PORT->Group[0].PINCFG[28].bit.INEN = true;
     edc:	5ce2      	ldrb	r2, [r4, r3]
     ede:	4316      	orrs	r6, r2
     ee0:	54e6      	strb	r6, [r4, r3]
	PORT->Group[1].DIRSET.reg = PORT_PB05 |PORT_PB06 |PORT_PB07;
     ee2:	22e0      	movs	r2, #224	; 0xe0
     ee4:	332c      	adds	r3, #44	; 0x2c
     ee6:	50e2      	str	r2, [r4, r3]
	PORT->Group[1].OUTSET.reg = PORT_PB05;
     ee8:	3b68      	subs	r3, #104	; 0x68
     eea:	4642      	mov	r2, r8
     eec:	50a3      	str	r3, [r4, r2]
	PORT->Group[0].DIRSET.reg = PORT_PA15 | PORT_PA22;
     eee:	60a1      	str	r1, [r4, #8]
	init_LCD();
     ef0:	4bca      	ldr	r3, [pc, #808]	; (121c <main+0x3dc>)
     ef2:	4798      	blx	r3
	lcd_gotoxy(1,0);
     ef4:	2100      	movs	r1, #0
     ef6:	2001      	movs	r0, #1
     ef8:	4ec9      	ldr	r6, [pc, #804]	; (1220 <main+0x3e0>)
     efa:	47b0      	blx	r6
	lcd_puts("IDS2 Brauregelung");
     efc:	48c9      	ldr	r0, [pc, #804]	; (1224 <main+0x3e4>)
     efe:	4cca      	ldr	r4, [pc, #808]	; (1228 <main+0x3e8>)
     f00:	47a0      	blx	r4
	lcd_gotoxy(1,1);
     f02:	2101      	movs	r1, #1
     f04:	2001      	movs	r0, #1
     f06:	47b0      	blx	r6
	lcd_puts("PWR-Level: ");
     f08:	48c8      	ldr	r0, [pc, #800]	; (122c <main+0x3ec>)
     f0a:	47a0      	blx	r4
	utoa(Power_level,text_buffer,10);
     f0c:	7fe8      	ldrb	r0, [r5, #31]
     f0e:	b2c0      	uxtb	r0, r0
     f10:	220a      	movs	r2, #10
     f12:	a90a      	add	r1, sp, #40	; 0x28
     f14:	4bc6      	ldr	r3, [pc, #792]	; (1230 <main+0x3f0>)
     f16:	4798      	blx	r3
	lcd_puts(text_buffer);
     f18:	a80a      	add	r0, sp, #40	; 0x28
     f1a:	47a0      	blx	r4
	uint8_t menu_point = 0;
     f1c:	2400      	movs	r4, #0
	uint8_t status_heizung = 0;
     f1e:	2300      	movs	r3, #0
     f20:	9301      	str	r3, [sp, #4]
	bool change_power_limit = false;
     f22:	469a      	mov	sl, r3
	bool change_setpoint = false;
     f24:	2700      	movs	r7, #0
	bool change_heizung = false;
     f26:	2500      	movs	r5, #0
	uint8_t Power_level_limit = 5;
     f28:	3305      	adds	r3, #5
     f2a:	4699      	mov	r9, r3
    /* Replace with your application code */
    while (1) 
    {
		
		static float delta = 0;
		delta = setpoint - temp;
     f2c:	4bc1      	ldr	r3, [pc, #772]	; (1234 <main+0x3f4>)
     f2e:	4698      	mov	r8, r3
     f30:	e37d      	b.n	162e <main+0x7ee>
		if(delta >= -1.5 && delta <= 1.5 )
			PORT->Group[1].OUTSET.reg = PORT_PB07;
		else
			PORT->Group[1].OUTCLR.reg = PORT_PB07;
     f32:	2180      	movs	r1, #128	; 0x80
     f34:	2394      	movs	r3, #148	; 0x94
     f36:	2282      	movs	r2, #130	; 0x82
     f38:	05d2      	lsls	r2, r2, #23
     f3a:	50d1      	str	r1, [r2, r3]
		Encoder_status = 0;
		if(change_power_limit)
			Encoder_status =+ 0x01;
		if(change_heizung)
     f3c:	2d00      	cmp	r5, #0
     f3e:	d000      	beq.n	f42 <main+0x102>
     f40:	e39f      	b.n	1682 <main+0x842>
		Encoder_status = 0;
     f42:	4653      	mov	r3, sl
			Encoder_status =+ 0x02;
		if(change_setpoint)
     f44:	2f00      	cmp	r7, #0
     f46:	d000      	beq.n	f4a <main+0x10a>
     f48:	e39e      	b.n	1688 <main+0x848>
			Encoder_status =+ 0x04;
		switch(Encoder_status)
     f4a:	2b01      	cmp	r3, #1
     f4c:	d100      	bne.n	f50 <main+0x110>
     f4e:	e0b0      	b.n	10b2 <main+0x272>
     f50:	2b00      	cmp	r3, #0
     f52:	d00e      	beq.n	f72 <main+0x132>
     f54:	2b02      	cmp	r3, #2
     f56:	d100      	bne.n	f5a <main+0x11a>
     f58:	e0b5      	b.n	10c6 <main+0x286>
     f5a:	2b04      	cmp	r3, #4
     f5c:	d100      	bne.n	f60 <main+0x120>
     f5e:	e393      	b.n	1688 <main+0x848>
				
			}
			break;
			default:
			{
				menu_point += encode_read4();
     f60:	4bb5      	ldr	r3, [pc, #724]	; (1238 <main+0x3f8>)
     f62:	4798      	blx	r3
     f64:	1820      	adds	r0, r4, r0
     f66:	b2c0      	uxtb	r0, r0
				menu_point %= 3;
     f68:	2103      	movs	r1, #3
     f6a:	4bb4      	ldr	r3, [pc, #720]	; (123c <main+0x3fc>)
     f6c:	4798      	blx	r3
     f6e:	b2cc      	uxtb	r4, r1
			}
			break;
     f70:	e004      	b.n	f7c <main+0x13c>
				menu_point += encode_read4();
     f72:	4bb1      	ldr	r3, [pc, #708]	; (1238 <main+0x3f8>)
     f74:	4798      	blx	r3
     f76:	1824      	adds	r4, r4, r0
				menu_point %= 4;
     f78:	2103      	movs	r1, #3
     f7a:	400c      	ands	r4, r1
		}
		
		
		switch(menu_point)
     f7c:	2c01      	cmp	r4, #1
     f7e:	d100      	bne.n	f82 <main+0x142>
     f80:	e0c0      	b.n	1104 <main+0x2c4>
     f82:	2c00      	cmp	r4, #0
     f84:	d100      	bne.n	f88 <main+0x148>
     f86:	e0a7      	b.n	10d8 <main+0x298>
     f88:	2c02      	cmp	r4, #2
     f8a:	d100      	bne.n	f8e <main+0x14e>
     f8c:	e0f4      	b.n	1178 <main+0x338>
     f8e:	2c03      	cmp	r4, #3
     f90:	d100      	bne.n	f94 <main+0x154>
     f92:	e171      	b.n	1278 <main+0x438>
			break;
		}
		
		
		
		if(Data_ready || override)
     f94:	2328      	movs	r3, #40	; 0x28
     f96:	4a92      	ldr	r2, [pc, #584]	; (11e0 <main+0x3a0>)
     f98:	5cd3      	ldrb	r3, [r2, r3]
     f9a:	2b00      	cmp	r3, #0
     f9c:	d000      	beq.n	fa0 <main+0x160>
     f9e:	e1c2      	b.n	1326 <main+0x4e6>
     fa0:	334a      	adds	r3, #74	; 0x4a
     fa2:	4aa7      	ldr	r2, [pc, #668]	; (1240 <main+0x400>)
     fa4:	5cd3      	ldrb	r3, [r2, r3]
     fa6:	2b00      	cmp	r3, #0
     fa8:	d000      	beq.n	fac <main+0x16c>
     faa:	e1bc      	b.n	1326 <main+0x4e6>
			char temperature[30];
			sprintf(temperature,"Temperatur: %.2f",temp);
			lcd_gotoxy(1,2);
			lcd_puts(temperature);
		}
		if(PORT->Group[1].IN.reg & (1<<31))
     fac:	23a0      	movs	r3, #160	; 0xa0
     fae:	2282      	movs	r2, #130	; 0x82
     fb0:	05d2      	lsls	r2, r2, #23
     fb2:	58d3      	ldr	r3, [r2, r3]
     fb4:	2b00      	cmp	r3, #0
     fb6:	da00      	bge.n	fba <main+0x17a>
     fb8:	e21b      	b.n	13f2 <main+0x5b2>
		{
			override = false;
		}
		else
		{
			override = true;
     fba:	2101      	movs	r1, #1
     fbc:	234a      	movs	r3, #74	; 0x4a
     fbe:	4aa0      	ldr	r2, [pc, #640]	; (1240 <main+0x400>)
     fc0:	54d1      	strb	r1, [r2, r3]
		}
		if(!change_setpoint)
     fc2:	2f00      	cmp	r7, #0
     fc4:	d100      	bne.n	fc8 <main+0x188>
     fc6:	e219      	b.n	13fc <main+0x5bc>
		{
			sprintf(temperature,"Sollwert: %.2f",setpoint);
			lcd_gotoxy(1,3);
			lcd_puts(temperature);
		}
		sprintf(temperature,"Stellgrad: %d %",output);
     fc8:	4b85      	ldr	r3, [pc, #532]	; (11e0 <main+0x3a0>)
     fca:	889a      	ldrh	r2, [r3, #4]
     fcc:	499d      	ldr	r1, [pc, #628]	; (1244 <main+0x404>)
     fce:	a80c      	add	r0, sp, #48	; 0x30
     fd0:	4b9d      	ldr	r3, [pc, #628]	; (1248 <main+0x408>)
     fd2:	4798      	blx	r3
		lcd_gotoxy(1,4);
     fd4:	2104      	movs	r1, #4
     fd6:	2001      	movs	r0, #1
     fd8:	4b91      	ldr	r3, [pc, #580]	; (1220 <main+0x3e0>)
     fda:	4798      	blx	r3
		lcd_puts(temperature);
     fdc:	a80c      	add	r0, sp, #48	; 0x30
     fde:	4b92      	ldr	r3, [pc, #584]	; (1228 <main+0x3e8>)
     fe0:	4798      	blx	r3
		
		if(get_key_short(1<<KEY0))
     fe2:	2080      	movs	r0, #128	; 0x80
     fe4:	0540      	lsls	r0, r0, #21
     fe6:	4b99      	ldr	r3, [pc, #612]	; (124c <main+0x40c>)
     fe8:	4798      	blx	r3
     fea:	2800      	cmp	r0, #0
     fec:	d018      	beq.n	1020 <main+0x1e0>
		{
			
			if(Power_level<=1)
     fee:	4b7c      	ldr	r3, [pc, #496]	; (11e0 <main+0x3a0>)
     ff0:	7fdb      	ldrb	r3, [r3, #31]
     ff2:	b2db      	uxtb	r3, r3
     ff4:	2b01      	cmp	r3, #1
     ff6:	dc00      	bgt.n	ffa <main+0x1ba>
     ff8:	e212      	b.n	1420 <main+0x5e0>
				Power_level++;
			else
				Power_level = 0;
     ffa:	2200      	movs	r2, #0
     ffc:	4b78      	ldr	r3, [pc, #480]	; (11e0 <main+0x3a0>)
     ffe:	77da      	strb	r2, [r3, #31]
			
			lcd_gotoxy(1,1);
    1000:	2101      	movs	r1, #1
    1002:	2001      	movs	r0, #1
    1004:	4b86      	ldr	r3, [pc, #536]	; (1220 <main+0x3e0>)
    1006:	4798      	blx	r3
			lcd_puts("PWR-Level: ");
    1008:	4888      	ldr	r0, [pc, #544]	; (122c <main+0x3ec>)
    100a:	4e87      	ldr	r6, [pc, #540]	; (1228 <main+0x3e8>)
    100c:	47b0      	blx	r6
			utoa(Power_level,text_buffer,10);
    100e:	4b74      	ldr	r3, [pc, #464]	; (11e0 <main+0x3a0>)
    1010:	7fd8      	ldrb	r0, [r3, #31]
    1012:	b2c0      	uxtb	r0, r0
    1014:	220a      	movs	r2, #10
    1016:	a90a      	add	r1, sp, #40	; 0x28
    1018:	4b85      	ldr	r3, [pc, #532]	; (1230 <main+0x3f0>)
    101a:	4798      	blx	r3
			lcd_puts(text_buffer);
    101c:	a80a      	add	r0, sp, #40	; 0x28
    101e:	47b0      	blx	r6
			
		}
		if(!change_power_limit)
    1020:	4653      	mov	r3, sl
    1022:	2b00      	cmp	r3, #0
    1024:	d100      	bne.n	1028 <main+0x1e8>
    1026:	e201      	b.n	142c <main+0x5ec>
			sprintf(temperature,"PWR-Level: %d/%d",Power_level,Power_level_limit);
			lcd_gotoxy(1,1);
			lcd_puts(temperature);
		}
		
		if(running)
    1028:	4b6d      	ldr	r3, [pc, #436]	; (11e0 <main+0x3a0>)
    102a:	7f1b      	ldrb	r3, [r3, #28]
    102c:	2b00      	cmp	r3, #0
    102e:	d100      	bne.n	1032 <main+0x1f2>
    1030:	e2e4      	b.n	15fc <main+0x7bc>
		{
			uint16_t power_level_calc = 0;
			if(output<= 10)
    1032:	4b6b      	ldr	r3, [pc, #428]	; (11e0 <main+0x3a0>)
    1034:	889b      	ldrh	r3, [r3, #4]
    1036:	2b0a      	cmp	r3, #10
    1038:	dc02      	bgt.n	1040 <main+0x200>
				Power_level = 0;
    103a:	2100      	movs	r1, #0
    103c:	4a68      	ldr	r2, [pc, #416]	; (11e0 <main+0x3a0>)
    103e:	77d1      	strb	r1, [r2, #31]
			if(output > 10 && output <=20)
    1040:	001a      	movs	r2, r3
    1042:	3a0b      	subs	r2, #11
    1044:	b292      	uxth	r2, r2
    1046:	2a09      	cmp	r2, #9
    1048:	d819      	bhi.n	107e <main+0x23e>
			{
				power_level_calc = output - 10;
    104a:	3b0a      	subs	r3, #10
    104c:	b29b      	uxth	r3, r3
				power_level_calc *= 15;
    104e:	011a      	lsls	r2, r3, #4
    1050:	1ad2      	subs	r2, r2, r3
				if(power_level_calc >= counter_power)
    1052:	b292      	uxth	r2, r2
    1054:	4b62      	ldr	r3, [pc, #392]	; (11e0 <main+0x3a0>)
    1056:	881b      	ldrh	r3, [r3, #0]
    1058:	429a      	cmp	r2, r3
    105a:	da00      	bge.n	105e <main+0x21e>
    105c:	e1f6      	b.n	144c <main+0x60c>
					Power_level = 1;
    105e:	2001      	movs	r0, #1
    1060:	495f      	ldr	r1, [pc, #380]	; (11e0 <main+0x3a0>)
    1062:	77c8      	strb	r0, [r1, #31]
				else
					Power_level = 0;
				sprintf(temperature,"Power: %d/%d",power_level_calc,counter_power);
    1064:	497a      	ldr	r1, [pc, #488]	; (1250 <main+0x410>)
    1066:	a80c      	add	r0, sp, #48	; 0x30
    1068:	4e77      	ldr	r6, [pc, #476]	; (1248 <main+0x408>)
    106a:	47b0      	blx	r6
				lcd_gotoxy(1,5);
    106c:	2105      	movs	r1, #5
    106e:	2001      	movs	r0, #1
    1070:	4b6b      	ldr	r3, [pc, #428]	; (1220 <main+0x3e0>)
    1072:	4798      	blx	r3
				lcd_puts(temperature);
    1074:	a80c      	add	r0, sp, #48	; 0x30
    1076:	4e6c      	ldr	r6, [pc, #432]	; (1228 <main+0x3e8>)
    1078:	47b0      	blx	r6
				lcd_puts("  ");
    107a:	4876      	ldr	r0, [pc, #472]	; (1254 <main+0x414>)
    107c:	47b0      	blx	r6
				
			}
			if(output > 20 && output <=40)
    107e:	4b58      	ldr	r3, [pc, #352]	; (11e0 <main+0x3a0>)
    1080:	889b      	ldrh	r3, [r3, #4]
    1082:	001a      	movs	r2, r3
    1084:	3a15      	subs	r2, #21
    1086:	b292      	uxth	r2, r2
    1088:	2a13      	cmp	r2, #19
    108a:	d900      	bls.n	108e <main+0x24e>
    108c:	e1f6      	b.n	147c <main+0x63c>
			{
				power_level_calc = output - 20;
    108e:	3b14      	subs	r3, #20
    1090:	b29b      	uxth	r3, r3
				power_level_calc *= 15;
    1092:	011a      	lsls	r2, r3, #4
    1094:	1ad2      	subs	r2, r2, r3
				if(power_level_calc >= counter_power)
    1096:	b292      	uxth	r2, r2
    1098:	4b51      	ldr	r3, [pc, #324]	; (11e0 <main+0x3a0>)
    109a:	881b      	ldrh	r3, [r3, #0]
    109c:	429a      	cmp	r2, r3
    109e:	da00      	bge.n	10a2 <main+0x262>
    10a0:	e1dc      	b.n	145c <main+0x61c>
				if(Power_level_limit>=2)
    10a2:	4649      	mov	r1, r9
    10a4:	2901      	cmp	r1, #1
    10a6:	dc00      	bgt.n	10aa <main+0x26a>
    10a8:	e1d4      	b.n	1454 <main+0x614>
					Power_level = 2;
    10aa:	2002      	movs	r0, #2
    10ac:	494c      	ldr	r1, [pc, #304]	; (11e0 <main+0x3a0>)
    10ae:	77c8      	strb	r0, [r1, #31]
    10b0:	e1d7      	b.n	1462 <main+0x622>
				Power_level_limit +=encode_read4();
    10b2:	4b61      	ldr	r3, [pc, #388]	; (1238 <main+0x3f8>)
    10b4:	4798      	blx	r3
    10b6:	4448      	add	r0, r9
    10b8:	b2c0      	uxtb	r0, r0
				Power_level_limit %= 6;
    10ba:	2106      	movs	r1, #6
    10bc:	4b5f      	ldr	r3, [pc, #380]	; (123c <main+0x3fc>)
    10be:	4798      	blx	r3
    10c0:	b2cb      	uxtb	r3, r1
    10c2:	4699      	mov	r9, r3
			break;
    10c4:	e75a      	b.n	f7c <main+0x13c>
				status_heizung +=encode_read4();
    10c6:	4b5c      	ldr	r3, [pc, #368]	; (1238 <main+0x3f8>)
    10c8:	4798      	blx	r3
    10ca:	9b01      	ldr	r3, [sp, #4]
    10cc:	469c      	mov	ip, r3
    10ce:	4460      	add	r0, ip
				status_heizung %= 2;
    10d0:	2301      	movs	r3, #1
    10d2:	4018      	ands	r0, r3
    10d4:	9001      	str	r0, [sp, #4]
			break;
    10d6:	e751      	b.n	f7c <main+0x13c>
				get_key_short(1<<KEY1);
    10d8:	2000      	movs	r0, #0
    10da:	4b5c      	ldr	r3, [pc, #368]	; (124c <main+0x40c>)
    10dc:	4798      	blx	r3
				lcd_gotoxy(0,1);
    10de:	2101      	movs	r1, #1
    10e0:	2000      	movs	r0, #0
    10e2:	4b4f      	ldr	r3, [pc, #316]	; (1220 <main+0x3e0>)
    10e4:	469b      	mov	fp, r3
    10e6:	4798      	blx	r3
				lcd_puts(" ");
    10e8:	485b      	ldr	r0, [pc, #364]	; (1258 <main+0x418>)
    10ea:	4e4f      	ldr	r6, [pc, #316]	; (1228 <main+0x3e8>)
    10ec:	47b0      	blx	r6
				lcd_gotoxy(0,3);
    10ee:	2103      	movs	r1, #3
    10f0:	2000      	movs	r0, #0
    10f2:	47d8      	blx	fp
				lcd_puts(" ");
    10f4:	4858      	ldr	r0, [pc, #352]	; (1258 <main+0x418>)
    10f6:	47b0      	blx	r6
				lcd_gotoxy(0,7);
    10f8:	2107      	movs	r1, #7
    10fa:	2000      	movs	r0, #0
    10fc:	47d8      	blx	fp
				lcd_puts(" ");
    10fe:	4856      	ldr	r0, [pc, #344]	; (1258 <main+0x418>)
    1100:	47b0      	blx	r6
			break;
    1102:	e747      	b.n	f94 <main+0x154>
				get_key_short(1<<KEY1);
    1104:	2000      	movs	r0, #0
    1106:	4b51      	ldr	r3, [pc, #324]	; (124c <main+0x40c>)
    1108:	4798      	blx	r3
				lcd_gotoxy(0,1);
    110a:	2101      	movs	r1, #1
    110c:	2000      	movs	r0, #0
    110e:	4b44      	ldr	r3, [pc, #272]	; (1220 <main+0x3e0>)
    1110:	469b      	mov	fp, r3
    1112:	4798      	blx	r3
				lcd_puts(">");
    1114:	4851      	ldr	r0, [pc, #324]	; (125c <main+0x41c>)
    1116:	4e44      	ldr	r6, [pc, #272]	; (1228 <main+0x3e8>)
    1118:	47b0      	blx	r6
				lcd_gotoxy(0,3);
    111a:	2103      	movs	r1, #3
    111c:	2000      	movs	r0, #0
    111e:	47d8      	blx	fp
				lcd_puts(" ");
    1120:	484d      	ldr	r0, [pc, #308]	; (1258 <main+0x418>)
    1122:	47b0      	blx	r6
				lcd_gotoxy(0,7);
    1124:	2107      	movs	r1, #7
    1126:	2000      	movs	r0, #0
    1128:	47d8      	blx	fp
				lcd_puts(" ");
    112a:	484b      	ldr	r0, [pc, #300]	; (1258 <main+0x418>)
    112c:	47b0      	blx	r6
				if(change_power_limit)
    112e:	4653      	mov	r3, sl
    1130:	2b00      	cmp	r3, #0
    1132:	d10b      	bne.n	114c <main+0x30c>
				if(get_key_short(PORT_PB13))
    1134:	2080      	movs	r0, #128	; 0x80
    1136:	0180      	lsls	r0, r0, #6
    1138:	4b44      	ldr	r3, [pc, #272]	; (124c <main+0x40c>)
    113a:	4798      	blx	r3
    113c:	2800      	cmp	r0, #0
    113e:	d100      	bne.n	1142 <main+0x302>
    1140:	e728      	b.n	f94 <main+0x154>
					if(change_power_limit)
    1142:	2301      	movs	r3, #1
    1144:	4652      	mov	r2, sl
    1146:	405a      	eors	r2, r3
    1148:	4692      	mov	sl, r2
    114a:	e723      	b.n	f94 <main+0x154>
					lcd_gotoxy(1,1);
    114c:	2101      	movs	r1, #1
    114e:	2001      	movs	r0, #1
    1150:	4b33      	ldr	r3, [pc, #204]	; (1220 <main+0x3e0>)
    1152:	4798      	blx	r3
					sprintf(temperature,"PWR-Level: %d/",Power_level);
    1154:	4b22      	ldr	r3, [pc, #136]	; (11e0 <main+0x3a0>)
    1156:	7fda      	ldrb	r2, [r3, #31]
    1158:	b2d2      	uxtb	r2, r2
    115a:	4941      	ldr	r1, [pc, #260]	; (1260 <main+0x420>)
    115c:	a80c      	add	r0, sp, #48	; 0x30
    115e:	4e3a      	ldr	r6, [pc, #232]	; (1248 <main+0x408>)
    1160:	47b0      	blx	r6
					lcd_puts(temperature);
    1162:	a80c      	add	r0, sp, #48	; 0x30
    1164:	4b30      	ldr	r3, [pc, #192]	; (1228 <main+0x3e8>)
    1166:	4798      	blx	r3
					sprintf(temperature,"%d",Power_level_limit);
    1168:	464a      	mov	r2, r9
    116a:	493e      	ldr	r1, [pc, #248]	; (1264 <main+0x424>)
    116c:	a80c      	add	r0, sp, #48	; 0x30
    116e:	47b0      	blx	r6
					lcd_puts_invert(temperature);
    1170:	a80c      	add	r0, sp, #48	; 0x30
    1172:	4b3d      	ldr	r3, [pc, #244]	; (1268 <main+0x428>)
    1174:	4798      	blx	r3
    1176:	e7dd      	b.n	1134 <main+0x2f4>
				lcd_gotoxy(0,1);
    1178:	2101      	movs	r1, #1
    117a:	2000      	movs	r0, #0
    117c:	4b28      	ldr	r3, [pc, #160]	; (1220 <main+0x3e0>)
    117e:	469b      	mov	fp, r3
    1180:	4798      	blx	r3
				lcd_puts(" ");
    1182:	4835      	ldr	r0, [pc, #212]	; (1258 <main+0x418>)
    1184:	4e28      	ldr	r6, [pc, #160]	; (1228 <main+0x3e8>)
    1186:	47b0      	blx	r6
				lcd_gotoxy(0,3);
    1188:	2103      	movs	r1, #3
    118a:	2000      	movs	r0, #0
    118c:	47d8      	blx	fp
				lcd_puts(">");
    118e:	4833      	ldr	r0, [pc, #204]	; (125c <main+0x41c>)
    1190:	47b0      	blx	r6
				lcd_gotoxy(0,7);
    1192:	2107      	movs	r1, #7
    1194:	2000      	movs	r0, #0
    1196:	47d8      	blx	fp
				lcd_puts(" ");
    1198:	482f      	ldr	r0, [pc, #188]	; (1258 <main+0x418>)
    119a:	47b0      	blx	r6
				if(change_setpoint)
    119c:	2f00      	cmp	r7, #0
    119e:	d109      	bne.n	11b4 <main+0x374>
				if(get_key_short(PORT_PB13))
    11a0:	2080      	movs	r0, #128	; 0x80
    11a2:	0180      	lsls	r0, r0, #6
    11a4:	4b29      	ldr	r3, [pc, #164]	; (124c <main+0x40c>)
    11a6:	4798      	blx	r3
    11a8:	2800      	cmp	r0, #0
    11aa:	d100      	bne.n	11ae <main+0x36e>
    11ac:	e6f2      	b.n	f94 <main+0x154>
					if(change_setpoint)
    11ae:	2301      	movs	r3, #1
    11b0:	405f      	eors	r7, r3
    11b2:	e6ef      	b.n	f94 <main+0x154>
					lcd_gotoxy(1,3);
    11b4:	2103      	movs	r1, #3
    11b6:	2001      	movs	r0, #1
    11b8:	4b19      	ldr	r3, [pc, #100]	; (1220 <main+0x3e0>)
    11ba:	4798      	blx	r3
					lcd_puts("Sollwert: ");
    11bc:	482b      	ldr	r0, [pc, #172]	; (126c <main+0x42c>)
    11be:	4b1a      	ldr	r3, [pc, #104]	; (1228 <main+0x3e8>)
    11c0:	4798      	blx	r3
					sprintf(temperature,"%.2f",setpoint);
    11c2:	4b1c      	ldr	r3, [pc, #112]	; (1234 <main+0x3f4>)
    11c4:	6818      	ldr	r0, [r3, #0]
    11c6:	4b2a      	ldr	r3, [pc, #168]	; (1270 <main+0x430>)
    11c8:	4798      	blx	r3
    11ca:	0002      	movs	r2, r0
    11cc:	000b      	movs	r3, r1
    11ce:	4929      	ldr	r1, [pc, #164]	; (1274 <main+0x434>)
    11d0:	a80c      	add	r0, sp, #48	; 0x30
    11d2:	4e1d      	ldr	r6, [pc, #116]	; (1248 <main+0x408>)
    11d4:	47b0      	blx	r6
					lcd_puts_invert(temperature);
    11d6:	a80c      	add	r0, sp, #48	; 0x30
    11d8:	4b23      	ldr	r3, [pc, #140]	; (1268 <main+0x428>)
    11da:	4798      	blx	r3
    11dc:	e7e0      	b.n	11a0 <main+0x360>
    11de:	46c0      	nop			; (mov r8, r8)
    11e0:	20000cec 	.word	0x20000cec
    11e4:	41200000 	.word	0x41200000
    11e8:	3f99999a 	.word	0x3f99999a
    11ec:	41a00000 	.word	0x41a00000
    11f0:	40002010 	.word	0x40002010
    11f4:	000001b9 	.word	0x000001b9
    11f8:	00000c25 	.word	0x00000c25
    11fc:	00000cb9 	.word	0x00000cb9
    1200:	000009e9 	.word	0x000009e9
    1204:	000001c9 	.word	0x000001c9
    1208:	000017d9 	.word	0x000017d9
    120c:	00001859 	.word	0x00001859
    1210:	000019a9 	.word	0x000019a9
    1214:	00000dcd 	.word	0x00000dcd
    1218:	00408200 	.word	0x00408200
    121c:	000003c9 	.word	0x000003c9
    1220:	00000371 	.word	0x00000371
    1224:	00008d78 	.word	0x00008d78
    1228:	0000074d 	.word	0x0000074d
    122c:	00008d8c 	.word	0x00008d8c
    1230:	0000436d 	.word	0x0000436d
    1234:	20000004 	.word	0x20000004
    1238:	00000df9 	.word	0x00000df9
    123c:	00001b29 	.word	0x00001b29
    1240:	20000eec 	.word	0x20000eec
    1244:	00008dfc 	.word	0x00008dfc
    1248:	00002c95 	.word	0x00002c95
    124c:	00000e29 	.word	0x00000e29
    1250:	00008e20 	.word	0x00008e20
    1254:	00008e30 	.word	0x00008e30
    1258:	00008d98 	.word	0x00008d98
    125c:	00008d9c 	.word	0x00008d9c
    1260:	00008da0 	.word	0x00008da0
    1264:	00008db0 	.word	0x00008db0
    1268:	00000769 	.word	0x00000769
    126c:	00008db4 	.word	0x00008db4
    1270:	00002ad9 	.word	0x00002ad9
    1274:	00008de4 	.word	0x00008de4
				lcd_gotoxy(0,1);
    1278:	2101      	movs	r1, #1
    127a:	2000      	movs	r0, #0
    127c:	4bc9      	ldr	r3, [pc, #804]	; (15a4 <main+0x764>)
    127e:	469b      	mov	fp, r3
    1280:	4798      	blx	r3
				lcd_puts(" ");
    1282:	48c9      	ldr	r0, [pc, #804]	; (15a8 <main+0x768>)
    1284:	4ec9      	ldr	r6, [pc, #804]	; (15ac <main+0x76c>)
    1286:	47b0      	blx	r6
				lcd_gotoxy(0,3);
    1288:	2103      	movs	r1, #3
    128a:	2000      	movs	r0, #0
    128c:	47d8      	blx	fp
				lcd_puts(" ");
    128e:	48c6      	ldr	r0, [pc, #792]	; (15a8 <main+0x768>)
    1290:	47b0      	blx	r6
				lcd_gotoxy(0,7);
    1292:	2107      	movs	r1, #7
    1294:	2000      	movs	r0, #0
    1296:	47d8      	blx	fp
				lcd_puts(">");
    1298:	48c5      	ldr	r0, [pc, #788]	; (15b0 <main+0x770>)
    129a:	47b0      	blx	r6
				if(change_heizung)
    129c:	2d00      	cmp	r5, #0
    129e:	d028      	beq.n	12f2 <main+0x4b2>
					if(status_heizung == 1)
    12a0:	9b01      	ldr	r3, [sp, #4]
    12a2:	2b01      	cmp	r3, #1
    12a4:	d012      	beq.n	12cc <main+0x48c>
						lcd_gotoxy(1,7);
    12a6:	2107      	movs	r1, #7
    12a8:	2001      	movs	r0, #1
    12aa:	4bbe      	ldr	r3, [pc, #760]	; (15a4 <main+0x764>)
    12ac:	4798      	blx	r3
						lcd_puts_invert("Heizung aus");
    12ae:	48c1      	ldr	r0, [pc, #772]	; (15b4 <main+0x774>)
    12b0:	4bc1      	ldr	r3, [pc, #772]	; (15b8 <main+0x778>)
    12b2:	4798      	blx	r3
				if(get_key_short(PORT_PB13))
    12b4:	2080      	movs	r0, #128	; 0x80
    12b6:	0180      	lsls	r0, r0, #6
    12b8:	4bc0      	ldr	r3, [pc, #768]	; (15bc <main+0x77c>)
    12ba:	4798      	blx	r3
    12bc:	2800      	cmp	r0, #0
    12be:	d100      	bne.n	12c2 <main+0x482>
    12c0:	e668      	b.n	f94 <main+0x154>
							running = false;
    12c2:	2200      	movs	r2, #0
    12c4:	4bbe      	ldr	r3, [pc, #760]	; (15c0 <main+0x780>)
    12c6:	771a      	strb	r2, [r3, #28]
						change_heizung = false;
    12c8:	2500      	movs	r5, #0
    12ca:	e663      	b.n	f94 <main+0x154>
						lcd_gotoxy(1,7);
    12cc:	2107      	movs	r1, #7
    12ce:	2001      	movs	r0, #1
    12d0:	4bb4      	ldr	r3, [pc, #720]	; (15a4 <main+0x764>)
    12d2:	4798      	blx	r3
						lcd_puts_invert("Heizung an ");
    12d4:	48bb      	ldr	r0, [pc, #748]	; (15c4 <main+0x784>)
    12d6:	4bb8      	ldr	r3, [pc, #736]	; (15b8 <main+0x778>)
    12d8:	4798      	blx	r3
				if(get_key_short(PORT_PB13))
    12da:	2080      	movs	r0, #128	; 0x80
    12dc:	0180      	lsls	r0, r0, #6
    12de:	4bb7      	ldr	r3, [pc, #732]	; (15bc <main+0x77c>)
    12e0:	4798      	blx	r3
    12e2:	2800      	cmp	r0, #0
    12e4:	d100      	bne.n	12e8 <main+0x4a8>
    12e6:	e655      	b.n	f94 <main+0x154>
							running = true;
    12e8:	2201      	movs	r2, #1
    12ea:	4bb5      	ldr	r3, [pc, #724]	; (15c0 <main+0x780>)
    12ec:	771a      	strb	r2, [r3, #28]
						change_heizung = false;
    12ee:	2500      	movs	r5, #0
    12f0:	e650      	b.n	f94 <main+0x154>
					if(status_heizung == 1)
    12f2:	9b01      	ldr	r3, [sp, #4]
    12f4:	2b01      	cmp	r3, #1
    12f6:	d00e      	beq.n	1316 <main+0x4d6>
						lcd_gotoxy(1,7);
    12f8:	2107      	movs	r1, #7
    12fa:	2001      	movs	r0, #1
    12fc:	4ba9      	ldr	r3, [pc, #676]	; (15a4 <main+0x764>)
    12fe:	4798      	blx	r3
						lcd_puts("Heizung aus");
    1300:	48ac      	ldr	r0, [pc, #688]	; (15b4 <main+0x774>)
    1302:	4baa      	ldr	r3, [pc, #680]	; (15ac <main+0x76c>)
    1304:	4798      	blx	r3
				if(get_key_short(PORT_PB13))
    1306:	2080      	movs	r0, #128	; 0x80
    1308:	0180      	lsls	r0, r0, #6
    130a:	4bac      	ldr	r3, [pc, #688]	; (15bc <main+0x77c>)
    130c:	4798      	blx	r3
    130e:	1e45      	subs	r5, r0, #1
    1310:	41a8      	sbcs	r0, r5
    1312:	b2c5      	uxtb	r5, r0
    1314:	e63e      	b.n	f94 <main+0x154>
						lcd_gotoxy(1,7);
    1316:	2107      	movs	r1, #7
    1318:	2001      	movs	r0, #1
    131a:	4ba2      	ldr	r3, [pc, #648]	; (15a4 <main+0x764>)
    131c:	4798      	blx	r3
						lcd_puts("Heizung an ");
    131e:	48a9      	ldr	r0, [pc, #676]	; (15c4 <main+0x784>)
    1320:	4ba2      	ldr	r3, [pc, #648]	; (15ac <main+0x76c>)
    1322:	4798      	blx	r3
    1324:	e7ef      	b.n	1306 <main+0x4c6>
			Data_ready = false;
    1326:	2100      	movs	r1, #0
    1328:	2328      	movs	r3, #40	; 0x28
    132a:	4aa5      	ldr	r2, [pc, #660]	; (15c0 <main+0x780>)
    132c:	54d1      	strb	r1, [r2, r3]
			CS_low;
    132e:	2280      	movs	r2, #128	; 0x80
    1330:	0512      	lsls	r2, r2, #20
    1332:	2382      	movs	r3, #130	; 0x82
    1334:	05db      	lsls	r3, r3, #23
    1336:	615a      	str	r2, [r3, #20]
			SERCOM5->SPI.DATA.reg = 0x01;  // Read RTD MSB
    1338:	2201      	movs	r2, #1
    133a:	4ba3      	ldr	r3, [pc, #652]	; (15c8 <main+0x788>)
    133c:	629a      	str	r2, [r3, #40]	; 0x28
			while(!SERCOM5->SPI.INTFLAG.bit.TXC);
    133e:	001a      	movs	r2, r3
    1340:	7e13      	ldrb	r3, [r2, #24]
    1342:	079b      	lsls	r3, r3, #30
    1344:	d5fc      	bpl.n	1340 <main+0x500>
			while(!SERCOM5->SPI.INTFLAG.bit.RXC);
    1346:	4aa0      	ldr	r2, [pc, #640]	; (15c8 <main+0x788>)
    1348:	7e13      	ldrb	r3, [r2, #24]
    134a:	075b      	lsls	r3, r3, #29
    134c:	d5fc      	bpl.n	1348 <main+0x508>
			RTD_data = SERCOM5->SPI.DATA.bit.DATA;
    134e:	4a9e      	ldr	r2, [pc, #632]	; (15c8 <main+0x788>)
    1350:	6a93      	ldr	r3, [r2, #40]	; 0x28
    1352:	05db      	lsls	r3, r3, #23
    1354:	0ddb      	lsrs	r3, r3, #23
    1356:	214c      	movs	r1, #76	; 0x4c
    1358:	489c      	ldr	r0, [pc, #624]	; (15cc <main+0x78c>)
    135a:	5243      	strh	r3, [r0, r1]
			SERCOM5->SPI.DATA.reg = 0x55; 
    135c:	2355      	movs	r3, #85	; 0x55
    135e:	6293      	str	r3, [r2, #40]	; 0x28
			while(!SERCOM5->SPI.INTFLAG.bit.TXC);
    1360:	7e13      	ldrb	r3, [r2, #24]
    1362:	079b      	lsls	r3, r3, #30
    1364:	d5fc      	bpl.n	1360 <main+0x520>
			while(!SERCOM5->SPI.INTFLAG.bit.RXC);
    1366:	4a98      	ldr	r2, [pc, #608]	; (15c8 <main+0x788>)
    1368:	7e13      	ldrb	r3, [r2, #24]
    136a:	075b      	lsls	r3, r3, #29
    136c:	d5fc      	bpl.n	1368 <main+0x528>
			RTD_data = SERCOM5->SPI.DATA.bit.DATA;
    136e:	4996      	ldr	r1, [pc, #600]	; (15c8 <main+0x788>)
    1370:	6a8b      	ldr	r3, [r1, #40]	; 0x28
    1372:	05db      	lsls	r3, r3, #23
    1374:	0ddb      	lsrs	r3, r3, #23
    1376:	4895      	ldr	r0, [pc, #596]	; (15cc <main+0x78c>)
    1378:	224c      	movs	r2, #76	; 0x4c
    137a:	5283      	strh	r3, [r0, r2]
			RTD_data = RTD_data << 8;
    137c:	5a83      	ldrh	r3, [r0, r2]
    137e:	021b      	lsls	r3, r3, #8
    1380:	b29b      	uxth	r3, r3
    1382:	5283      	strh	r3, [r0, r2]
			SERCOM5->SPI.DATA.reg = 0x55;
    1384:	2355      	movs	r3, #85	; 0x55
    1386:	628b      	str	r3, [r1, #40]	; 0x28
			while(!SERCOM5->SPI.INTFLAG.bit.TXC);
    1388:	000a      	movs	r2, r1
    138a:	7e13      	ldrb	r3, [r2, #24]
    138c:	079b      	lsls	r3, r3, #30
    138e:	d5fc      	bpl.n	138a <main+0x54a>
			while(!SERCOM5->SPI.INTFLAG.bit.RXC);
    1390:	4a8d      	ldr	r2, [pc, #564]	; (15c8 <main+0x788>)
    1392:	7e13      	ldrb	r3, [r2, #24]
    1394:	075b      	lsls	r3, r3, #29
    1396:	d5fc      	bpl.n	1392 <main+0x552>
			RTD_data += SERCOM5->SPI.DATA.bit.DATA;
    1398:	4b8b      	ldr	r3, [pc, #556]	; (15c8 <main+0x788>)
    139a:	6a9b      	ldr	r3, [r3, #40]	; 0x28
    139c:	05db      	lsls	r3, r3, #23
    139e:	0dda      	lsrs	r2, r3, #23
    13a0:	488a      	ldr	r0, [pc, #552]	; (15cc <main+0x78c>)
    13a2:	214c      	movs	r1, #76	; 0x4c
    13a4:	5a43      	ldrh	r3, [r0, r1]
    13a6:	189b      	adds	r3, r3, r2
    13a8:	b29b      	uxth	r3, r3
    13aa:	5243      	strh	r3, [r0, r1]
			temp = RTD_data >>1;
    13ac:	5a40      	ldrh	r0, [r0, r1]
			CS_high;
    13ae:	2280      	movs	r2, #128	; 0x80
    13b0:	0512      	lsls	r2, r2, #20
    13b2:	2382      	movs	r3, #130	; 0x82
    13b4:	05db      	lsls	r3, r3, #23
    13b6:	619a      	str	r2, [r3, #24]
			temp = RTD_data >>1;
    13b8:	0840      	lsrs	r0, r0, #1
    13ba:	4b85      	ldr	r3, [pc, #532]	; (15d0 <main+0x790>)
    13bc:	4798      	blx	r3
			temp /= 32;
    13be:	21f4      	movs	r1, #244	; 0xf4
    13c0:	0589      	lsls	r1, r1, #22
    13c2:	4b84      	ldr	r3, [pc, #528]	; (15d4 <main+0x794>)
    13c4:	4798      	blx	r3
			temp -= 256;
    13c6:	2187      	movs	r1, #135	; 0x87
    13c8:	05c9      	lsls	r1, r1, #23
    13ca:	4b83      	ldr	r3, [pc, #524]	; (15d8 <main+0x798>)
    13cc:	4798      	blx	r3
    13ce:	4b7c      	ldr	r3, [pc, #496]	; (15c0 <main+0x780>)
    13d0:	6098      	str	r0, [r3, #8]
			sprintf(temperature,"Temperatur: %.2f",temp);
    13d2:	4b82      	ldr	r3, [pc, #520]	; (15dc <main+0x79c>)
    13d4:	4798      	blx	r3
    13d6:	0002      	movs	r2, r0
    13d8:	000b      	movs	r3, r1
    13da:	4981      	ldr	r1, [pc, #516]	; (15e0 <main+0x7a0>)
    13dc:	a802      	add	r0, sp, #8
    13de:	4e81      	ldr	r6, [pc, #516]	; (15e4 <main+0x7a4>)
    13e0:	47b0      	blx	r6
			lcd_gotoxy(1,2);
    13e2:	2102      	movs	r1, #2
    13e4:	2001      	movs	r0, #1
    13e6:	4b6f      	ldr	r3, [pc, #444]	; (15a4 <main+0x764>)
    13e8:	4798      	blx	r3
			lcd_puts(temperature);
    13ea:	a802      	add	r0, sp, #8
    13ec:	4b6f      	ldr	r3, [pc, #444]	; (15ac <main+0x76c>)
    13ee:	4798      	blx	r3
    13f0:	e5dc      	b.n	fac <main+0x16c>
			override = false;
    13f2:	2100      	movs	r1, #0
    13f4:	234a      	movs	r3, #74	; 0x4a
    13f6:	4a75      	ldr	r2, [pc, #468]	; (15cc <main+0x78c>)
    13f8:	54d1      	strb	r1, [r2, r3]
    13fa:	e5e2      	b.n	fc2 <main+0x182>
			sprintf(temperature,"Sollwert: %.2f",setpoint);
    13fc:	4b7a      	ldr	r3, [pc, #488]	; (15e8 <main+0x7a8>)
    13fe:	6818      	ldr	r0, [r3, #0]
    1400:	4b76      	ldr	r3, [pc, #472]	; (15dc <main+0x79c>)
    1402:	4798      	blx	r3
    1404:	0002      	movs	r2, r0
    1406:	000b      	movs	r3, r1
    1408:	4978      	ldr	r1, [pc, #480]	; (15ec <main+0x7ac>)
    140a:	a80c      	add	r0, sp, #48	; 0x30
    140c:	4e75      	ldr	r6, [pc, #468]	; (15e4 <main+0x7a4>)
    140e:	47b0      	blx	r6
			lcd_gotoxy(1,3);
    1410:	2103      	movs	r1, #3
    1412:	2001      	movs	r0, #1
    1414:	4b63      	ldr	r3, [pc, #396]	; (15a4 <main+0x764>)
    1416:	4798      	blx	r3
			lcd_puts(temperature);
    1418:	a80c      	add	r0, sp, #48	; 0x30
    141a:	4b64      	ldr	r3, [pc, #400]	; (15ac <main+0x76c>)
    141c:	4798      	blx	r3
    141e:	e5d3      	b.n	fc8 <main+0x188>
				Power_level++;
    1420:	4a67      	ldr	r2, [pc, #412]	; (15c0 <main+0x780>)
    1422:	7fd3      	ldrb	r3, [r2, #31]
    1424:	3301      	adds	r3, #1
    1426:	b2db      	uxtb	r3, r3
    1428:	77d3      	strb	r3, [r2, #31]
    142a:	e5e9      	b.n	1000 <main+0x1c0>
			sprintf(temperature,"PWR-Level: %d/%d",Power_level,Power_level_limit);
    142c:	4b64      	ldr	r3, [pc, #400]	; (15c0 <main+0x780>)
    142e:	7fda      	ldrb	r2, [r3, #31]
    1430:	b2d2      	uxtb	r2, r2
    1432:	464b      	mov	r3, r9
    1434:	496e      	ldr	r1, [pc, #440]	; (15f0 <main+0x7b0>)
    1436:	a80c      	add	r0, sp, #48	; 0x30
    1438:	4e6a      	ldr	r6, [pc, #424]	; (15e4 <main+0x7a4>)
    143a:	47b0      	blx	r6
			lcd_gotoxy(1,1);
    143c:	2101      	movs	r1, #1
    143e:	2001      	movs	r0, #1
    1440:	4b58      	ldr	r3, [pc, #352]	; (15a4 <main+0x764>)
    1442:	4798      	blx	r3
			lcd_puts(temperature);
    1444:	a80c      	add	r0, sp, #48	; 0x30
    1446:	4b59      	ldr	r3, [pc, #356]	; (15ac <main+0x76c>)
    1448:	4798      	blx	r3
    144a:	e5ed      	b.n	1028 <main+0x1e8>
					Power_level = 0;
    144c:	2000      	movs	r0, #0
    144e:	495c      	ldr	r1, [pc, #368]	; (15c0 <main+0x780>)
    1450:	77c8      	strb	r0, [r1, #31]
    1452:	e607      	b.n	1064 <main+0x224>
				else
					Power_level = Power_level_limit;
    1454:	495a      	ldr	r1, [pc, #360]	; (15c0 <main+0x780>)
    1456:	4648      	mov	r0, r9
    1458:	77c8      	strb	r0, [r1, #31]
    145a:	e002      	b.n	1462 <main+0x622>
				else
					Power_level = 1;
    145c:	2001      	movs	r0, #1
    145e:	4958      	ldr	r1, [pc, #352]	; (15c0 <main+0x780>)
    1460:	77c8      	strb	r0, [r1, #31]
				sprintf(temperature,"Power: %d/%d",power_level_calc,counter_power);
    1462:	4964      	ldr	r1, [pc, #400]	; (15f4 <main+0x7b4>)
    1464:	a80c      	add	r0, sp, #48	; 0x30
    1466:	4e5f      	ldr	r6, [pc, #380]	; (15e4 <main+0x7a4>)
    1468:	47b0      	blx	r6
				lcd_gotoxy(1,5);
    146a:	2105      	movs	r1, #5
    146c:	2001      	movs	r0, #1
    146e:	4b4d      	ldr	r3, [pc, #308]	; (15a4 <main+0x764>)
    1470:	4798      	blx	r3
				lcd_puts(temperature);
    1472:	a80c      	add	r0, sp, #48	; 0x30
    1474:	4e4d      	ldr	r6, [pc, #308]	; (15ac <main+0x76c>)
    1476:	47b0      	blx	r6
				lcd_puts("  ");
    1478:	485f      	ldr	r0, [pc, #380]	; (15f8 <main+0x7b8>)
    147a:	47b0      	blx	r6
			}
			if(output > 40 && output <=60)
    147c:	4b50      	ldr	r3, [pc, #320]	; (15c0 <main+0x780>)
    147e:	889b      	ldrh	r3, [r3, #4]
    1480:	001a      	movs	r2, r3
    1482:	3a29      	subs	r2, #41	; 0x29
    1484:	b292      	uxth	r2, r2
    1486:	2a13      	cmp	r2, #19
    1488:	d81b      	bhi.n	14c2 <main+0x682>
			{
				power_level_calc = output - 40;
    148a:	3b28      	subs	r3, #40	; 0x28
    148c:	b29b      	uxth	r3, r3
				power_level_calc *= 15;
    148e:	011a      	lsls	r2, r3, #4
    1490:	1ad2      	subs	r2, r2, r3
				if(power_level_calc >= counter_power)
    1492:	b292      	uxth	r2, r2
    1494:	4b4a      	ldr	r3, [pc, #296]	; (15c0 <main+0x780>)
    1496:	881b      	ldrh	r3, [r3, #0]
    1498:	429a      	cmp	r2, r3
    149a:	db5a      	blt.n	1552 <main+0x712>
					if(Power_level_limit>=3)
    149c:	4649      	mov	r1, r9
    149e:	2902      	cmp	r1, #2
    14a0:	dd53      	ble.n	154a <main+0x70a>
						Power_level = 3;
    14a2:	2003      	movs	r0, #3
    14a4:	4946      	ldr	r1, [pc, #280]	; (15c0 <main+0x780>)
    14a6:	77c8      	strb	r0, [r1, #31]
				else
					if(Power_level_limit>=3)
						Power_level = 2;
					else
						Power_level = Power_level_limit;
				sprintf(temperature,"Power: %d/%d",power_level_calc,counter_power);
    14a8:	4952      	ldr	r1, [pc, #328]	; (15f4 <main+0x7b4>)
    14aa:	a80c      	add	r0, sp, #48	; 0x30
    14ac:	4e4d      	ldr	r6, [pc, #308]	; (15e4 <main+0x7a4>)
    14ae:	47b0      	blx	r6
				lcd_gotoxy(1,5);
    14b0:	2105      	movs	r1, #5
    14b2:	2001      	movs	r0, #1
    14b4:	4b3b      	ldr	r3, [pc, #236]	; (15a4 <main+0x764>)
    14b6:	4798      	blx	r3
				lcd_puts(temperature);
    14b8:	a80c      	add	r0, sp, #48	; 0x30
    14ba:	4e3c      	ldr	r6, [pc, #240]	; (15ac <main+0x76c>)
    14bc:	47b0      	blx	r6
				lcd_puts("  ");
    14be:	484e      	ldr	r0, [pc, #312]	; (15f8 <main+0x7b8>)
    14c0:	47b0      	blx	r6
			}
			if(output > 60 && output <=80)
    14c2:	4b3f      	ldr	r3, [pc, #252]	; (15c0 <main+0x780>)
    14c4:	889b      	ldrh	r3, [r3, #4]
    14c6:	001a      	movs	r2, r3
    14c8:	3a3d      	subs	r2, #61	; 0x3d
    14ca:	b292      	uxth	r2, r2
    14cc:	2a13      	cmp	r2, #19
    14ce:	d81b      	bhi.n	1508 <main+0x6c8>
			{
				power_level_calc = output - 60;
    14d0:	3b3c      	subs	r3, #60	; 0x3c
    14d2:	b29b      	uxth	r3, r3
				power_level_calc *= 15;
    14d4:	011a      	lsls	r2, r3, #4
    14d6:	1ad2      	subs	r2, r2, r3
				if(power_level_calc >= counter_power)
    14d8:	b292      	uxth	r2, r2
    14da:	4b39      	ldr	r3, [pc, #228]	; (15c0 <main+0x780>)
    14dc:	881b      	ldrh	r3, [r3, #0]
    14de:	429a      	cmp	r2, r3
    14e0:	db46      	blt.n	1570 <main+0x730>
					if(Power_level_limit>=4)
    14e2:	4649      	mov	r1, r9
    14e4:	2903      	cmp	r1, #3
    14e6:	dd3f      	ble.n	1568 <main+0x728>
						Power_level = 4;
    14e8:	2004      	movs	r0, #4
    14ea:	4935      	ldr	r1, [pc, #212]	; (15c0 <main+0x780>)
    14ec:	77c8      	strb	r0, [r1, #31]
				else
					if(Power_level_limit>=4)
						Power_level = 3;
					else
						Power_level = Power_level_limit;
				sprintf(temperature,"Power: %d/%d",power_level_calc,counter_power);
    14ee:	4941      	ldr	r1, [pc, #260]	; (15f4 <main+0x7b4>)
    14f0:	a80c      	add	r0, sp, #48	; 0x30
    14f2:	4e3c      	ldr	r6, [pc, #240]	; (15e4 <main+0x7a4>)
    14f4:	47b0      	blx	r6
				lcd_gotoxy(1,5);
    14f6:	2105      	movs	r1, #5
    14f8:	2001      	movs	r0, #1
    14fa:	4b2a      	ldr	r3, [pc, #168]	; (15a4 <main+0x764>)
    14fc:	4798      	blx	r3
				lcd_puts(temperature);
    14fe:	a80c      	add	r0, sp, #48	; 0x30
    1500:	4e2a      	ldr	r6, [pc, #168]	; (15ac <main+0x76c>)
    1502:	47b0      	blx	r6
				lcd_puts("  ");
    1504:	483c      	ldr	r0, [pc, #240]	; (15f8 <main+0x7b8>)
    1506:	47b0      	blx	r6
			}
			if(output > 80)
    1508:	4b2d      	ldr	r3, [pc, #180]	; (15c0 <main+0x780>)
    150a:	889b      	ldrh	r3, [r3, #4]
    150c:	2b50      	cmp	r3, #80	; 0x50
    150e:	dd78      	ble.n	1602 <main+0x7c2>
			{
				power_level_calc = output - 80;
    1510:	3b50      	subs	r3, #80	; 0x50
    1512:	b29b      	uxth	r3, r3
				power_level_calc *= 15;
    1514:	011a      	lsls	r2, r3, #4
    1516:	1ad2      	subs	r2, r2, r3
				if(power_level_calc >= counter_power)
    1518:	b292      	uxth	r2, r2
    151a:	4b29      	ldr	r3, [pc, #164]	; (15c0 <main+0x780>)
    151c:	881b      	ldrh	r3, [r3, #0]
    151e:	429a      	cmp	r2, r3
    1520:	db35      	blt.n	158e <main+0x74e>
					if(Power_level_limit>=5)
    1522:	4649      	mov	r1, r9
    1524:	2904      	cmp	r1, #4
    1526:	dd2e      	ble.n	1586 <main+0x746>
						Power_level = 5;
    1528:	2005      	movs	r0, #5
    152a:	4925      	ldr	r1, [pc, #148]	; (15c0 <main+0x780>)
    152c:	77c8      	strb	r0, [r1, #31]
				else
					if(Power_level_limit>=5)
						Power_level = 4;
					else
						Power_level = Power_level_limit;
				sprintf(temperature,"Power: %d/%d",power_level_calc,counter_power);
    152e:	4931      	ldr	r1, [pc, #196]	; (15f4 <main+0x7b4>)
    1530:	a80c      	add	r0, sp, #48	; 0x30
    1532:	4e2c      	ldr	r6, [pc, #176]	; (15e4 <main+0x7a4>)
    1534:	47b0      	blx	r6
				lcd_gotoxy(1,5);
    1536:	2105      	movs	r1, #5
    1538:	2001      	movs	r0, #1
    153a:	4b1a      	ldr	r3, [pc, #104]	; (15a4 <main+0x764>)
    153c:	4798      	blx	r3
				lcd_puts(temperature);
    153e:	a80c      	add	r0, sp, #48	; 0x30
    1540:	4e1a      	ldr	r6, [pc, #104]	; (15ac <main+0x76c>)
    1542:	47b0      	blx	r6
				lcd_puts("  ");
    1544:	482c      	ldr	r0, [pc, #176]	; (15f8 <main+0x7b8>)
    1546:	47b0      	blx	r6
    1548:	e05b      	b.n	1602 <main+0x7c2>
						Power_level = Power_level_limit;
    154a:	491d      	ldr	r1, [pc, #116]	; (15c0 <main+0x780>)
    154c:	4648      	mov	r0, r9
    154e:	77c8      	strb	r0, [r1, #31]
    1550:	e7aa      	b.n	14a8 <main+0x668>
					if(Power_level_limit>=3)
    1552:	4649      	mov	r1, r9
    1554:	2902      	cmp	r1, #2
    1556:	dd03      	ble.n	1560 <main+0x720>
						Power_level = 2;
    1558:	2002      	movs	r0, #2
    155a:	4919      	ldr	r1, [pc, #100]	; (15c0 <main+0x780>)
    155c:	77c8      	strb	r0, [r1, #31]
    155e:	e7a3      	b.n	14a8 <main+0x668>
						Power_level = Power_level_limit;
    1560:	4917      	ldr	r1, [pc, #92]	; (15c0 <main+0x780>)
    1562:	4648      	mov	r0, r9
    1564:	77c8      	strb	r0, [r1, #31]
    1566:	e79f      	b.n	14a8 <main+0x668>
						Power_level = Power_level_limit;
    1568:	4915      	ldr	r1, [pc, #84]	; (15c0 <main+0x780>)
    156a:	4648      	mov	r0, r9
    156c:	77c8      	strb	r0, [r1, #31]
    156e:	e7be      	b.n	14ee <main+0x6ae>
					if(Power_level_limit>=4)
    1570:	4649      	mov	r1, r9
    1572:	2903      	cmp	r1, #3
    1574:	dd03      	ble.n	157e <main+0x73e>
						Power_level = 3;
    1576:	2003      	movs	r0, #3
    1578:	4911      	ldr	r1, [pc, #68]	; (15c0 <main+0x780>)
    157a:	77c8      	strb	r0, [r1, #31]
    157c:	e7b7      	b.n	14ee <main+0x6ae>
						Power_level = Power_level_limit;
    157e:	4910      	ldr	r1, [pc, #64]	; (15c0 <main+0x780>)
    1580:	4648      	mov	r0, r9
    1582:	77c8      	strb	r0, [r1, #31]
    1584:	e7b3      	b.n	14ee <main+0x6ae>
						Power_level = Power_level_limit;
    1586:	490e      	ldr	r1, [pc, #56]	; (15c0 <main+0x780>)
    1588:	4648      	mov	r0, r9
    158a:	77c8      	strb	r0, [r1, #31]
    158c:	e7cf      	b.n	152e <main+0x6ee>
					if(Power_level_limit>=5)
    158e:	4649      	mov	r1, r9
    1590:	2904      	cmp	r1, #4
    1592:	dd03      	ble.n	159c <main+0x75c>
						Power_level = 4;
    1594:	2004      	movs	r0, #4
    1596:	490a      	ldr	r1, [pc, #40]	; (15c0 <main+0x780>)
    1598:	77c8      	strb	r0, [r1, #31]
    159a:	e7c8      	b.n	152e <main+0x6ee>
						Power_level = Power_level_limit;
    159c:	4908      	ldr	r1, [pc, #32]	; (15c0 <main+0x780>)
    159e:	4648      	mov	r0, r9
    15a0:	77c8      	strb	r0, [r1, #31]
    15a2:	e7c4      	b.n	152e <main+0x6ee>
    15a4:	00000371 	.word	0x00000371
    15a8:	00008d98 	.word	0x00008d98
    15ac:	0000074d 	.word	0x0000074d
    15b0:	00008d9c 	.word	0x00008d9c
    15b4:	00008dcc 	.word	0x00008dcc
    15b8:	00000769 	.word	0x00000769
    15bc:	00000e29 	.word	0x00000e29
    15c0:	20000cec 	.word	0x20000cec
    15c4:	00008dc0 	.word	0x00008dc0
    15c8:	42001800 	.word	0x42001800
    15cc:	20000eec 	.word	0x20000eec
    15d0:	00002a39 	.word	0x00002a39
    15d4:	00002481 	.word	0x00002481
    15d8:	000026c1 	.word	0x000026c1
    15dc:	00002ad9 	.word	0x00002ad9
    15e0:	00008dd8 	.word	0x00008dd8
    15e4:	00002c95 	.word	0x00002c95
    15e8:	20000004 	.word	0x20000004
    15ec:	00008dec 	.word	0x00008dec
    15f0:	00008e0c 	.word	0x00008e0c
    15f4:	00008e20 	.word	0x00008e20
    15f8:	00008e30 	.word	0x00008e30
			}	
			
		}
		else
			Power_level = 0;
    15fc:	2200      	movs	r2, #0
    15fe:	4b27      	ldr	r3, [pc, #156]	; (169c <main+0x85c>)
    1600:	77da      	strb	r2, [r3, #31]
		
		if(Power_level > 0)
    1602:	4b26      	ldr	r3, [pc, #152]	; (169c <main+0x85c>)
    1604:	7fdb      	ldrb	r3, [r3, #31]
    1606:	2b00      	cmp	r3, #0
    1608:	d02c      	beq.n	1664 <main+0x824>
			PORT->Group[1].OUTSET.reg = PORT_PB06;
    160a:	2140      	movs	r1, #64	; 0x40
    160c:	2398      	movs	r3, #152	; 0x98
    160e:	2282      	movs	r2, #130	; 0x82
    1610:	05d2      	lsls	r2, r2, #23
    1612:	50d1      	str	r1, [r2, r3]
		//else
		//{
			//PORT->Group[1].OUTCLR.reg = PORT_PB07;
		//}
		
		if(!change_heizung)
    1614:	2d00      	cmp	r5, #0
    1616:	d10a      	bne.n	162e <main+0x7ee>
		if(running)
    1618:	4b20      	ldr	r3, [pc, #128]	; (169c <main+0x85c>)
    161a:	7f1e      	ldrb	r6, [r3, #28]
    161c:	2e00      	cmp	r6, #0
    161e:	d027      	beq.n	1670 <main+0x830>
		{
			lcd_gotoxy(1,7);
    1620:	2107      	movs	r1, #7
    1622:	2001      	movs	r0, #1
    1624:	4b1e      	ldr	r3, [pc, #120]	; (16a0 <main+0x860>)
    1626:	4798      	blx	r3
			lcd_puts("Heizung an ");
    1628:	481e      	ldr	r0, [pc, #120]	; (16a4 <main+0x864>)
    162a:	4b1f      	ldr	r3, [pc, #124]	; (16a8 <main+0x868>)
    162c:	4798      	blx	r3
		delta = setpoint - temp;
    162e:	4b1b      	ldr	r3, [pc, #108]	; (169c <main+0x85c>)
    1630:	6899      	ldr	r1, [r3, #8]
    1632:	4643      	mov	r3, r8
    1634:	6818      	ldr	r0, [r3, #0]
    1636:	4b1d      	ldr	r3, [pc, #116]	; (16ac <main+0x86c>)
    1638:	4798      	blx	r3
    163a:	1c06      	adds	r6, r0, #0
		if(delta >= -1.5 && delta <= 1.5 )
    163c:	491c      	ldr	r1, [pc, #112]	; (16b0 <main+0x870>)
    163e:	4b1d      	ldr	r3, [pc, #116]	; (16b4 <main+0x874>)
    1640:	4798      	blx	r3
    1642:	2800      	cmp	r0, #0
    1644:	d100      	bne.n	1648 <main+0x808>
    1646:	e474      	b.n	f32 <main+0xf2>
    1648:	21ff      	movs	r1, #255	; 0xff
    164a:	0589      	lsls	r1, r1, #22
    164c:	1c30      	adds	r0, r6, #0
    164e:	4b1a      	ldr	r3, [pc, #104]	; (16b8 <main+0x878>)
    1650:	4798      	blx	r3
    1652:	2800      	cmp	r0, #0
    1654:	d100      	bne.n	1658 <main+0x818>
    1656:	e46c      	b.n	f32 <main+0xf2>
			PORT->Group[1].OUTSET.reg = PORT_PB07;
    1658:	2180      	movs	r1, #128	; 0x80
    165a:	2398      	movs	r3, #152	; 0x98
    165c:	2282      	movs	r2, #130	; 0x82
    165e:	05d2      	lsls	r2, r2, #23
    1660:	50d1      	str	r1, [r2, r3]
    1662:	e46b      	b.n	f3c <main+0xfc>
			PORT->Group[1].OUTCLR.reg = PORT_PB06;
    1664:	2140      	movs	r1, #64	; 0x40
    1666:	2394      	movs	r3, #148	; 0x94
    1668:	2282      	movs	r2, #130	; 0x82
    166a:	05d2      	lsls	r2, r2, #23
    166c:	50d1      	str	r1, [r2, r3]
    166e:	e7d1      	b.n	1614 <main+0x7d4>
		}
		else
		{
			lcd_gotoxy(1,7);
    1670:	2107      	movs	r1, #7
    1672:	2001      	movs	r0, #1
    1674:	4b0a      	ldr	r3, [pc, #40]	; (16a0 <main+0x860>)
    1676:	4798      	blx	r3
			lcd_puts("Heizung aus");
    1678:	4810      	ldr	r0, [pc, #64]	; (16bc <main+0x87c>)
    167a:	4b0b      	ldr	r3, [pc, #44]	; (16a8 <main+0x868>)
    167c:	4798      	blx	r3
    167e:	0035      	movs	r5, r6
    1680:	e7d5      	b.n	162e <main+0x7ee>
		if(change_setpoint)
    1682:	2f00      	cmp	r7, #0
    1684:	d100      	bne.n	1688 <main+0x848>
    1686:	e51e      	b.n	10c6 <main+0x286>
				setpoint +=encode_read4();
    1688:	4b0d      	ldr	r3, [pc, #52]	; (16c0 <main+0x880>)
    168a:	4798      	blx	r3
    168c:	4e0d      	ldr	r6, [pc, #52]	; (16c4 <main+0x884>)
    168e:	4b0e      	ldr	r3, [pc, #56]	; (16c8 <main+0x888>)
    1690:	4798      	blx	r3
    1692:	6831      	ldr	r1, [r6, #0]
    1694:	4b0d      	ldr	r3, [pc, #52]	; (16cc <main+0x88c>)
    1696:	4798      	blx	r3
    1698:	6030      	str	r0, [r6, #0]
			break;
    169a:	e46f      	b.n	f7c <main+0x13c>
    169c:	20000cec 	.word	0x20000cec
    16a0:	00000371 	.word	0x00000371
    16a4:	00008dc0 	.word	0x00008dc0
    16a8:	0000074d 	.word	0x0000074d
    16ac:	000026c1 	.word	0x000026c1
    16b0:	bfc00000 	.word	0xbfc00000
    16b4:	00001d69 	.word	0x00001d69
    16b8:	00001d41 	.word	0x00001d41
    16bc:	00008dcc 	.word	0x00008dcc
    16c0:	00000df9 	.word	0x00000df9
    16c4:	20000004 	.word	0x20000004
    16c8:	00002a39 	.word	0x00002a39
    16cc:	00001d7d 	.word	0x00001d7d

000016d0 <_Z16PID_calculationsP14PID_parametersPfS1_Ptbb>:
 */ 
#include "sam.h"
#include "PID.h"

void PID_calculations(p_PID_parameters_t PID,float *real_value, float *setpoint, uint16_t *output,bool reset_I,bool running)
{
    16d0:	b5f0      	push	{r4, r5, r6, r7, lr}
    16d2:	46de      	mov	lr, fp
    16d4:	4657      	mov	r7, sl
    16d6:	464e      	mov	r6, r9
    16d8:	b5c0      	push	{r6, r7, lr}
    16da:	b084      	sub	sp, #16
    16dc:	0004      	movs	r4, r0
    16de:	000d      	movs	r5, r1
    16e0:	9302      	str	r3, [sp, #8]
    16e2:	ab0c      	add	r3, sp, #48	; 0x30
    16e4:	7819      	ldrb	r1, [r3, #0]
    16e6:	ab0d      	add	r3, sp, #52	; 0x34
    16e8:	781b      	ldrb	r3, [r3, #0]
	if(running)
    16ea:	2b00      	cmp	r3, #0
    16ec:	d056      	beq.n	179c <_Z16PID_calculationsP14PID_parametersPfS1_Ptbb+0xcc>
	{
		static int32_t I_part = 0;
		static float old_real_value = 0;
		int32_t D_Part = 0;
		int32_t output_helper = 0;
		if(reset_I)
    16ee:	2900      	cmp	r1, #0
    16f0:	d002      	beq.n	16f8 <_Z16PID_calculationsP14PID_parametersPfS1_Ptbb+0x28>
		I_part = 0;
    16f2:	2100      	movs	r1, #0
    16f4:	4b2f      	ldr	r3, [pc, #188]	; (17b4 <_Z16PID_calculationsP14PID_parametersPfS1_Ptbb+0xe4>)
    16f6:	6019      	str	r1, [r3, #0]
		float error = *setpoint - *real_value;
    16f8:	682b      	ldr	r3, [r5, #0]
    16fa:	9303      	str	r3, [sp, #12]
    16fc:	1c19      	adds	r1, r3, #0
    16fe:	6810      	ldr	r0, [r2, #0]
    1700:	4b2d      	ldr	r3, [pc, #180]	; (17b8 <_Z16PID_calculationsP14PID_parametersPfS1_Ptbb+0xe8>)
    1702:	4798      	blx	r3
    1704:	1c06      	adds	r6, r0, #0
		output_helper = error * PID->Kp;  // P Part
    1706:	4f2d      	ldr	r7, [pc, #180]	; (17bc <_Z16PID_calculationsP14PID_parametersPfS1_Ptbb+0xec>)
    1708:	6821      	ldr	r1, [r4, #0]
    170a:	47b8      	blx	r7
    170c:	4b2c      	ldr	r3, [pc, #176]	; (17c0 <_Z16PID_calculationsP14PID_parametersPfS1_Ptbb+0xf0>)
    170e:	469a      	mov	sl, r3
    1710:	4798      	blx	r3
    1712:	4683      	mov	fp, r0
		I_part += error * (1/(PID->Tn * PID->cycle_time));
    1714:	68e3      	ldr	r3, [r4, #12]
    1716:	9301      	str	r3, [sp, #4]
    1718:	6861      	ldr	r1, [r4, #4]
    171a:	1c18      	adds	r0, r3, #0
    171c:	47b8      	blx	r7
    171e:	1c01      	adds	r1, r0, #0
    1720:	20fe      	movs	r0, #254	; 0xfe
    1722:	0580      	lsls	r0, r0, #22
    1724:	4b27      	ldr	r3, [pc, #156]	; (17c4 <_Z16PID_calculationsP14PID_parametersPfS1_Ptbb+0xf4>)
    1726:	4798      	blx	r3
    1728:	1c31      	adds	r1, r6, #0
    172a:	47b8      	blx	r7
    172c:	1c07      	adds	r7, r0, #0
    172e:	4e21      	ldr	r6, [pc, #132]	; (17b4 <_Z16PID_calculationsP14PID_parametersPfS1_Ptbb+0xe4>)
    1730:	6830      	ldr	r0, [r6, #0]
    1732:	4b25      	ldr	r3, [pc, #148]	; (17c8 <_Z16PID_calculationsP14PID_parametersPfS1_Ptbb+0xf8>)
    1734:	4798      	blx	r3
    1736:	1c01      	adds	r1, r0, #0
    1738:	1c38      	adds	r0, r7, #0
    173a:	4b24      	ldr	r3, [pc, #144]	; (17cc <_Z16PID_calculationsP14PID_parametersPfS1_Ptbb+0xfc>)
    173c:	4798      	blx	r3
    173e:	47d0      	blx	sl
    1740:	6030      	str	r0, [r6, #0]
		if(I_part > 10000)
    1742:	4b23      	ldr	r3, [pc, #140]	; (17d0 <_Z16PID_calculationsP14PID_parametersPfS1_Ptbb+0x100>)
    1744:	4298      	cmp	r0, r3
    1746:	dd2f      	ble.n	17a8 <_Z16PID_calculationsP14PID_parametersPfS1_Ptbb+0xd8>
		I_part = 10000;
    1748:	001a      	movs	r2, r3
    174a:	6032      	str	r2, [r6, #0]
		if(I_part < 0)
		I_part = 0; // Antiwindup
		output_helper += I_part / 100;  // I_Part
    174c:	4e19      	ldr	r6, [pc, #100]	; (17b4 <_Z16PID_calculationsP14PID_parametersPfS1_Ptbb+0xe4>)
    174e:	2164      	movs	r1, #100	; 0x64
    1750:	6830      	ldr	r0, [r6, #0]
    1752:	4b20      	ldr	r3, [pc, #128]	; (17d4 <_Z16PID_calculationsP14PID_parametersPfS1_Ptbb+0x104>)
    1754:	4798      	blx	r3
    1756:	4458      	add	r0, fp
    1758:	0007      	movs	r7, r0
		D_Part = PID->Tv * ((*real_value - old_real_value)/PID->cycle_time)*(1/PID->cycle_time); // D-part
    175a:	6871      	ldr	r1, [r6, #4]
    175c:	9803      	ldr	r0, [sp, #12]
    175e:	4b16      	ldr	r3, [pc, #88]	; (17b8 <_Z16PID_calculationsP14PID_parametersPfS1_Ptbb+0xe8>)
    1760:	4798      	blx	r3
    1762:	4b18      	ldr	r3, [pc, #96]	; (17c4 <_Z16PID_calculationsP14PID_parametersPfS1_Ptbb+0xf4>)
    1764:	4699      	mov	r9, r3
    1766:	9901      	ldr	r1, [sp, #4]
    1768:	4798      	blx	r3
    176a:	4e14      	ldr	r6, [pc, #80]	; (17bc <_Z16PID_calculationsP14PID_parametersPfS1_Ptbb+0xec>)
    176c:	68a1      	ldr	r1, [r4, #8]
    176e:	47b0      	blx	r6
    1770:	1c04      	adds	r4, r0, #0
    1772:	9901      	ldr	r1, [sp, #4]
    1774:	20fe      	movs	r0, #254	; 0xfe
    1776:	0580      	lsls	r0, r0, #22
    1778:	47c8      	blx	r9
    177a:	1c01      	adds	r1, r0, #0
    177c:	1c20      	adds	r0, r4, #0
    177e:	47b0      	blx	r6
    1780:	4b0f      	ldr	r3, [pc, #60]	; (17c0 <_Z16PID_calculationsP14PID_parametersPfS1_Ptbb+0xf0>)
    1782:	4798      	blx	r3
		output_helper += D_Part;
    1784:	19c0      	adds	r0, r0, r7
    1786:	2864      	cmp	r0, #100	; 0x64
    1788:	dd00      	ble.n	178c <_Z16PID_calculationsP14PID_parametersPfS1_Ptbb+0xbc>
    178a:	2064      	movs	r0, #100	; 0x64
		if(output_helper > 100)
		output_helper = 100;
		if(output_helper < 0)
		output_helper = 0;
		*output = output_helper ;
    178c:	43c3      	mvns	r3, r0
    178e:	17db      	asrs	r3, r3, #31
    1790:	4018      	ands	r0, r3
    1792:	9b02      	ldr	r3, [sp, #8]
    1794:	8018      	strh	r0, [r3, #0]
		old_real_value = *real_value;
    1796:	682a      	ldr	r2, [r5, #0]
    1798:	4b06      	ldr	r3, [pc, #24]	; (17b4 <_Z16PID_calculationsP14PID_parametersPfS1_Ptbb+0xe4>)
    179a:	605a      	str	r2, [r3, #4]
	}
	
    179c:	b004      	add	sp, #16
    179e:	bc1c      	pop	{r2, r3, r4}
    17a0:	4691      	mov	r9, r2
    17a2:	469a      	mov	sl, r3
    17a4:	46a3      	mov	fp, r4
    17a6:	bdf0      	pop	{r4, r5, r6, r7, pc}
		if(I_part < 0)
    17a8:	2800      	cmp	r0, #0
    17aa:	dacf      	bge.n	174c <_Z16PID_calculationsP14PID_parametersPfS1_Ptbb+0x7c>
		I_part = 0; // Antiwindup
    17ac:	2200      	movs	r2, #0
    17ae:	4b01      	ldr	r3, [pc, #4]	; (17b4 <_Z16PID_calculationsP14PID_parametersPfS1_Ptbb+0xe4>)
    17b0:	601a      	str	r2, [r3, #0]
    17b2:	e7cb      	b.n	174c <_Z16PID_calculationsP14PID_parametersPfS1_Ptbb+0x7c>
    17b4:	20000f3c 	.word	0x20000f3c
    17b8:	000026c1 	.word	0x000026c1
    17bc:	00002481 	.word	0x00002481
    17c0:	000029f9 	.word	0x000029f9
    17c4:	000020a1 	.word	0x000020a1
    17c8:	00002a39 	.word	0x00002a39
    17cc:	00001d7d 	.word	0x00001d7d
    17d0:	00002710 	.word	0x00002710
    17d4:	00001b31 	.word	0x00001b31

000017d8 <_Z8rtc_initv>:
#include "sam.h"



void rtc_init()
{
    17d8:	b510      	push	{r4, lr}
	MCLK->APBAMASK.bit.OSC32KCTRL_ = 1;
    17da:	491a      	ldr	r1, [pc, #104]	; (1844 <_Z8rtc_initv+0x6c>)
    17dc:	694b      	ldr	r3, [r1, #20]
    17de:	2220      	movs	r2, #32
    17e0:	4313      	orrs	r3, r2
    17e2:	614b      	str	r3, [r1, #20]
	OSC32KCTRL->OSC32K.bit.EN1K = 1;
    17e4:	4b18      	ldr	r3, [pc, #96]	; (1848 <_Z8rtc_initv+0x70>)
    17e6:	699a      	ldr	r2, [r3, #24]
    17e8:	2008      	movs	r0, #8
    17ea:	4302      	orrs	r2, r0
    17ec:	619a      	str	r2, [r3, #24]
	OSC32KCTRL->OSC32K.bit.ENABLE =  1;
    17ee:	6998      	ldr	r0, [r3, #24]
    17f0:	2402      	movs	r4, #2
    17f2:	4320      	orrs	r0, r4
    17f4:	6198      	str	r0, [r3, #24]
	OSC32KCTRL->RTCCTRL.bit.RTCSEL = OSC32KCTRL_RTCCTRL_RTCSEL_OSC1K;
    17f6:	691a      	ldr	r2, [r3, #16]
    17f8:	2007      	movs	r0, #7
    17fa:	4382      	bics	r2, r0
    17fc:	4322      	orrs	r2, r4
    17fe:	611a      	str	r2, [r3, #16]
	MCLK->APBAMASK.bit.RTC_ = 1;
    1800:	694a      	ldr	r2, [r1, #20]
    1802:	2380      	movs	r3, #128	; 0x80
    1804:	009b      	lsls	r3, r3, #2
    1806:	4313      	orrs	r3, r2
    1808:	614b      	str	r3, [r1, #20]
	RTC->MODE0.INTENSET.bit.PER7 = 1;
    180a:	4b10      	ldr	r3, [pc, #64]	; (184c <_Z8rtc_initv+0x74>)
    180c:	895a      	ldrh	r2, [r3, #10]
    180e:	2180      	movs	r1, #128	; 0x80
    1810:	430a      	orrs	r2, r1
    1812:	815a      	strh	r2, [r3, #10]
	RTC->MODE0.INTENSET.bit.PER6 = 1;
    1814:	895a      	ldrh	r2, [r3, #10]
    1816:	2140      	movs	r1, #64	; 0x40
    1818:	430a      	orrs	r2, r1
    181a:	815a      	strh	r2, [r3, #10]
	RTC->MODE0.INTENSET.bit.PER5 = 1;
    181c:	895a      	ldrh	r2, [r3, #10]
    181e:	2120      	movs	r1, #32
    1820:	430a      	orrs	r2, r1
    1822:	815a      	strh	r2, [r3, #10]
	RTC->MODE0.CTRLA.bit.PRESCALER = RTC_MODE0_CTRLA_PRESCALER_DIV1024_Val;
    1824:	881a      	ldrh	r2, [r3, #0]
    1826:	490a      	ldr	r1, [pc, #40]	; (1850 <_Z8rtc_initv+0x78>)
    1828:	4011      	ands	r1, r2
    182a:	22b0      	movs	r2, #176	; 0xb0
    182c:	0112      	lsls	r2, r2, #4
    182e:	430a      	orrs	r2, r1
    1830:	801a      	strh	r2, [r3, #0]
    1832:	2104      	movs	r1, #4
    1834:	4a07      	ldr	r2, [pc, #28]	; (1854 <_Z8rtc_initv+0x7c>)
    1836:	6011      	str	r1, [r2, #0]
	NVIC_EnableIRQ(RTC_IRQn);
	RTC->MODE0.CTRLA.bit.ENABLE = 1;
    1838:	881a      	ldrh	r2, [r3, #0]
    183a:	2102      	movs	r1, #2
    183c:	430a      	orrs	r2, r1
    183e:	801a      	strh	r2, [r3, #0]
	
	
    1840:	bd10      	pop	{r4, pc}
    1842:	46c0      	nop			; (mov r8, r8)
    1844:	40000800 	.word	0x40000800
    1848:	40001400 	.word	0x40001400
    184c:	40002400 	.word	0x40002400
    1850:	fffff0ff 	.word	0xfffff0ff
    1854:	e000e100 	.word	0xe000e100

00001858 <_Z8init_SPIv>:
#include "sam.h"
#include "SPI.h"


void init_SPI()
{
    1858:	b530      	push	{r4, r5, lr}
	PORT->Group[1].PMUX[31/2].bit.PMUXE = MUX_PB31A_EIC_EXTINT15;
    185a:	2382      	movs	r3, #130	; 0x82
    185c:	05db      	lsls	r3, r3, #23
    185e:	21bf      	movs	r1, #191	; 0xbf
    1860:	5c5a      	ldrb	r2, [r3, r1]
    1862:	240f      	movs	r4, #15
    1864:	43a2      	bics	r2, r4
    1866:	545a      	strb	r2, [r3, r1]
	//const PORT_PINCFG_Type pincfg = { .bit.PMUXEN = 1,.bit.INEN = 1,.bit.PULLEN = 1	};
	PORT->Group[1].PINCFG[31].bit.PMUXEN = 1;
    1868:	22df      	movs	r2, #223	; 0xdf
    186a:	5c99      	ldrb	r1, [r3, r2]
    186c:	2001      	movs	r0, #1
    186e:	4301      	orrs	r1, r0
    1870:	5499      	strb	r1, [r3, r2]
	PORT->Group[1].PINCFG[31].bit.INEN = 1;
    1872:	5c99      	ldrb	r1, [r3, r2]
    1874:	2002      	movs	r0, #2
    1876:	4301      	orrs	r1, r0
    1878:	5499      	strb	r1, [r3, r2]
	PORT->Group[1].PINCFG[31].bit.PULLEN = 1;
    187a:	5c99      	ldrb	r1, [r3, r2]
    187c:	2004      	movs	r0, #4
    187e:	4301      	orrs	r1, r0
    1880:	5499      	strb	r1, [r3, r2]
	PORT->Group[1].OUTSET.reg = PORT_PB31;
    1882:	2180      	movs	r1, #128	; 0x80
    1884:	0609      	lsls	r1, r1, #24
    1886:	3a47      	subs	r2, #71	; 0x47
    1888:	5099      	str	r1, [r3, r2]
	EIC->CONFIG[3].reg = EIC_CONFIG_SENSE7_FALL; // None of RISE,FALL or BOTH work for this PB31
    188a:	4a40      	ldr	r2, [pc, #256]	; (198c <_Z8init_SPIv+0x134>)
    188c:	2380      	movs	r3, #128	; 0x80
    188e:	059b      	lsls	r3, r3, #22
    1890:	6293      	str	r3, [r2, #40]	; 0x28
	EIC->INTENSET.bit.EXTINT = 1<<15;
    1892:	6913      	ldr	r3, [r2, #16]
    1894:	0c1b      	lsrs	r3, r3, #16
    1896:	041b      	lsls	r3, r3, #16
    1898:	2180      	movs	r1, #128	; 0x80
    189a:	0209      	lsls	r1, r1, #8
    189c:	430b      	orrs	r3, r1
    189e:	6113      	str	r3, [r2, #16]
    18a0:	2208      	movs	r2, #8
    18a2:	4b3b      	ldr	r3, [pc, #236]	; (1990 <_Z8init_SPIv+0x138>)
    18a4:	601a      	str	r2, [r3, #0]
	NVIC_EnableIRQ(EIC_IRQn);
	MCLK->APBCMASK.bit.SERCOM5_ = 1;
    18a6:	4a3b      	ldr	r2, [pc, #236]	; (1994 <_Z8init_SPIv+0x13c>)
    18a8:	69d3      	ldr	r3, [r2, #28]
    18aa:	2540      	movs	r5, #64	; 0x40
    18ac:	432b      	orrs	r3, r5
    18ae:	61d3      	str	r3, [r2, #28]
	GCLK->PCHCTRL[SERCOM5_GCLK_ID_CORE].bit.GEN = 0;
    18b0:	4a39      	ldr	r2, [pc, #228]	; (1998 <_Z8init_SPIv+0x140>)
    18b2:	23e4      	movs	r3, #228	; 0xe4
    18b4:	58d0      	ldr	r0, [r2, r3]
    18b6:	43a0      	bics	r0, r4
    18b8:	50d0      	str	r0, [r2, r3]
	GCLK->PCHCTRL[SERCOM5_GCLK_ID_CORE].bit.CHEN = 1;
    18ba:	58d1      	ldr	r1, [r2, r3]
    18bc:	4329      	orrs	r1, r5
    18be:	50d1      	str	r1, [r2, r3]
	while(GCLK->PCHCTRL[SERCOM5_GCLK_ID_CORE].bit.CHEN != 1);
    18c0:	0011      	movs	r1, r2
    18c2:	22e4      	movs	r2, #228	; 0xe4
    18c4:	588b      	ldr	r3, [r1, r2]
    18c6:	065b      	lsls	r3, r3, #25
    18c8:	d5fc      	bpl.n	18c4 <_Z8init_SPIv+0x6c>
	SERCOM5->SPI.CTRLA.bit.ENABLE = 0;
    18ca:	4b34      	ldr	r3, [pc, #208]	; (199c <_Z8init_SPIv+0x144>)
    18cc:	6819      	ldr	r1, [r3, #0]
    18ce:	2002      	movs	r0, #2
    18d0:	4381      	bics	r1, r0
    18d2:	6019      	str	r1, [r3, #0]
	SERCOM5->SPI.SYNCBUSY.bit.ENABLE = 1;
    18d4:	69da      	ldr	r2, [r3, #28]
    18d6:	4302      	orrs	r2, r0
    18d8:	61da      	str	r2, [r3, #28]
	while (SERCOM5->SPI.SYNCBUSY.bit.ENABLE);
    18da:	001a      	movs	r2, r3
    18dc:	69d3      	ldr	r3, [r2, #28]
    18de:	079b      	lsls	r3, r3, #30
    18e0:	d4fc      	bmi.n	18dc <_Z8init_SPIv+0x84>
	PORT->Group[0].OUTSET.reg = PORT_PA27; //CS High
    18e2:	2282      	movs	r2, #130	; 0x82
    18e4:	05d2      	lsls	r2, r2, #23
    18e6:	2380      	movs	r3, #128	; 0x80
    18e8:	051b      	lsls	r3, r3, #20
    18ea:	6193      	str	r3, [r2, #24]
	PORT->Group[0].DIRSET.reg = PORT_PA27; //CS
    18ec:	6093      	str	r3, [r2, #8]
	SERCOM5->SPI.CTRLA.bit.DIPO = 0x00; // PAD0
    18ee:	4b2b      	ldr	r3, [pc, #172]	; (199c <_Z8init_SPIv+0x144>)
    18f0:	6819      	ldr	r1, [r3, #0]
    18f2:	482b      	ldr	r0, [pc, #172]	; (19a0 <_Z8init_SPIv+0x148>)
    18f4:	4001      	ands	r1, r0
    18f6:	6019      	str	r1, [r3, #0]
	SERCOM5->SPI.CTRLA.bit.DOPO = 0x01; // PAD2 / SCK PAD3
    18f8:	6819      	ldr	r1, [r3, #0]
    18fa:	482a      	ldr	r0, [pc, #168]	; (19a4 <_Z8init_SPIv+0x14c>)
    18fc:	4008      	ands	r0, r1
    18fe:	2180      	movs	r1, #128	; 0x80
    1900:	0249      	lsls	r1, r1, #9
    1902:	4301      	orrs	r1, r0
    1904:	6019      	str	r1, [r3, #0]
	SERCOM5->SPI.CTRLA.bit.MODE = 0x03; // Master Mode
    1906:	6819      	ldr	r1, [r3, #0]
    1908:	201c      	movs	r0, #28
    190a:	4381      	bics	r1, r0
    190c:	3810      	subs	r0, #16
    190e:	4301      	orrs	r1, r0
    1910:	6019      	str	r1, [r3, #0]
	SERCOM5->SPI.CTRLB.bit.RXEN = 1;
    1912:	6858      	ldr	r0, [r3, #4]
    1914:	2180      	movs	r1, #128	; 0x80
    1916:	0289      	lsls	r1, r1, #10
    1918:	4301      	orrs	r1, r0
    191a:	6059      	str	r1, [r3, #4]
	SERCOM5->SPI.CTRLA.bit.CPHA = 1;
    191c:	6818      	ldr	r0, [r3, #0]
    191e:	2180      	movs	r1, #128	; 0x80
    1920:	0549      	lsls	r1, r1, #21
    1922:	4301      	orrs	r1, r0
    1924:	6019      	str	r1, [r3, #0]
	SERCOM5->SPI.CTRLA.bit.CPOL = 1;
    1926:	6818      	ldr	r0, [r3, #0]
    1928:	2180      	movs	r1, #128	; 0x80
    192a:	0589      	lsls	r1, r1, #22
    192c:	4301      	orrs	r1, r0
    192e:	6019      	str	r1, [r3, #0]
	PORT->Group[1].PMUX[1].bit.PMUXE = MUX_PB02D_SERCOM5_PAD0; //PAD0 MISO
    1930:	21b1      	movs	r1, #177	; 0xb1
    1932:	5c50      	ldrb	r0, [r2, r1]
    1934:	250f      	movs	r5, #15
    1936:	43a8      	bics	r0, r5
    1938:	2403      	movs	r4, #3
    193a:	4320      	orrs	r0, r4
    193c:	5450      	strb	r0, [r2, r1]
	PORT->Group[1].PMUX[0].bit.PMUXE = MUX_PB00D_SERCOM5_PAD2; //PAD2 MOSI
    193e:	20b0      	movs	r0, #176	; 0xb0
    1940:	5c11      	ldrb	r1, [r2, r0]
    1942:	43a9      	bics	r1, r5
    1944:	4321      	orrs	r1, r4
    1946:	5411      	strb	r1, [r2, r0]
	PORT->Group[1].PMUX[0].bit.PMUXO = MUX_PB01D_SERCOM5_PAD3; //PAD3 SCK
    1948:	5c14      	ldrb	r4, [r2, r0]
    194a:	210f      	movs	r1, #15
    194c:	4021      	ands	r1, r4
    194e:	2430      	movs	r4, #48	; 0x30
    1950:	4321      	orrs	r1, r4
    1952:	5411      	strb	r1, [r2, r0]
	PORT->Group[1].PINCFG[0].bit.PMUXEN = 1;
    1954:	24c0      	movs	r4, #192	; 0xc0
    1956:	5d11      	ldrb	r1, [r2, r4]
    1958:	2001      	movs	r0, #1
    195a:	4301      	orrs	r1, r0
    195c:	5511      	strb	r1, [r2, r4]
	PORT->Group[1].PINCFG[2].bit.PMUXEN = 1;
    195e:	3402      	adds	r4, #2
    1960:	5d11      	ldrb	r1, [r2, r4]
    1962:	4301      	orrs	r1, r0
    1964:	5511      	strb	r1, [r2, r4]
	PORT->Group[1].PINCFG[1].bit.PMUXEN = 1;
    1966:	3c01      	subs	r4, #1
    1968:	5d11      	ldrb	r1, [r2, r4]
    196a:	4301      	orrs	r1, r0
    196c:	5511      	strb	r1, [r2, r4]
	SERCOM5->SPI.BAUD.bit.BAUD = 0x01;
    196e:	2201      	movs	r2, #1
    1970:	731a      	strb	r2, [r3, #12]
	SERCOM5->SPI.CTRLA.bit.ENABLE = 1;
    1972:	6819      	ldr	r1, [r3, #0]
    1974:	2002      	movs	r0, #2
    1976:	4301      	orrs	r1, r0
    1978:	6019      	str	r1, [r3, #0]
	SERCOM5->SPI.SYNCBUSY.bit.ENABLE = 1;
    197a:	69da      	ldr	r2, [r3, #28]
    197c:	4302      	orrs	r2, r0
    197e:	61da      	str	r2, [r3, #28]
	while (SERCOM5->SPI.SYNCBUSY.bit.ENABLE);
    1980:	001a      	movs	r2, r3
    1982:	69d3      	ldr	r3, [r2, #28]
    1984:	079b      	lsls	r3, r3, #30
    1986:	d4fc      	bmi.n	1982 <_Z8init_SPIv+0x12a>
}
    1988:	bd30      	pop	{r4, r5, pc}
    198a:	46c0      	nop			; (mov r8, r8)
    198c:	40002800 	.word	0x40002800
    1990:	e000e100 	.word	0xe000e100
    1994:	40000800 	.word	0x40000800
    1998:	40001c00 	.word	0x40001c00
    199c:	42001800 	.word	0x42001800
    19a0:	ffcfffff 	.word	0xffcfffff
    19a4:	fffcffff 	.word	0xfffcffff

000019a8 <_Z8RTD_Initv>:

void RTD_Init()
{
    19a8:	b082      	sub	sp, #8
	volatile uint32_t test = 0;
    19aa:	2300      	movs	r3, #0
    19ac:	9301      	str	r3, [sp, #4]
	CS_low;
    19ae:	2280      	movs	r2, #128	; 0x80
    19b0:	0512      	lsls	r2, r2, #20
    19b2:	2382      	movs	r3, #130	; 0x82
    19b4:	05db      	lsls	r3, r3, #23
    19b6:	615a      	str	r2, [r3, #20]
	SERCOM5->SPI.DATA.reg = 0x80;  // Write Config
    19b8:	2280      	movs	r2, #128	; 0x80
    19ba:	4b0e      	ldr	r3, [pc, #56]	; (19f4 <_Z8RTD_Initv+0x4c>)
    19bc:	629a      	str	r2, [r3, #40]	; 0x28
	while(!SERCOM5->SPI.INTFLAG.bit.TXC);
    19be:	001a      	movs	r2, r3
    19c0:	7e13      	ldrb	r3, [r2, #24]
    19c2:	079b      	lsls	r3, r3, #30
    19c4:	d5fc      	bpl.n	19c0 <_Z8RTD_Initv+0x18>
	test= SERCOM5->SPI.DATA.bit.DATA;
    19c6:	4a0b      	ldr	r2, [pc, #44]	; (19f4 <_Z8RTD_Initv+0x4c>)
    19c8:	6a93      	ldr	r3, [r2, #40]	; 0x28
    19ca:	05db      	lsls	r3, r3, #23
    19cc:	0ddb      	lsrs	r3, r3, #23
    19ce:	9301      	str	r3, [sp, #4]
	SERCOM5->SPI.DATA.reg = (1<<7) | (1<<6) | (1<<0); //BIAS on / Automode / 50Hz filter
    19d0:	23c1      	movs	r3, #193	; 0xc1
    19d2:	6293      	str	r3, [r2, #40]	; 0x28
	while(!SERCOM5->SPI.INTFLAG.bit.TXC);
    19d4:	7e13      	ldrb	r3, [r2, #24]
    19d6:	079b      	lsls	r3, r3, #30
    19d8:	d5fc      	bpl.n	19d4 <_Z8RTD_Initv+0x2c>
	test= SERCOM5->SPI.DATA.bit.DATA;
    19da:	4b06      	ldr	r3, [pc, #24]	; (19f4 <_Z8RTD_Initv+0x4c>)
    19dc:	6a9b      	ldr	r3, [r3, #40]	; 0x28
    19de:	05db      	lsls	r3, r3, #23
    19e0:	0ddb      	lsrs	r3, r3, #23
    19e2:	9301      	str	r3, [sp, #4]
	CS_high;
    19e4:	2280      	movs	r2, #128	; 0x80
    19e6:	0512      	lsls	r2, r2, #20
    19e8:	2382      	movs	r3, #130	; 0x82
    19ea:	05db      	lsls	r3, r3, #23
    19ec:	619a      	str	r2, [r3, #24]
	
	
	
    19ee:	b002      	add	sp, #8
    19f0:	4770      	bx	lr
    19f2:	46c0      	nop			; (mov r8, r8)
    19f4:	42001800 	.word	0x42001800

000019f8 <_sbrk>:
extern void _exit(int status);
extern void _kill(int pid, int sig);
extern int _getpid(void);

extern caddr_t _sbrk(int incr)
{
    19f8:	0003      	movs	r3, r0
	static unsigned char *heap = NULL;
	unsigned char *prev_heap;

	if (heap == NULL) {
    19fa:	4a06      	ldr	r2, [pc, #24]	; (1a14 <_sbrk+0x1c>)
    19fc:	6812      	ldr	r2, [r2, #0]
    19fe:	2a00      	cmp	r2, #0
    1a00:	d004      	beq.n	1a0c <_sbrk+0x14>
		heap = (unsigned char *)&_end;
	}
	prev_heap = heap;
    1a02:	4a04      	ldr	r2, [pc, #16]	; (1a14 <_sbrk+0x1c>)
    1a04:	6810      	ldr	r0, [r2, #0]

	heap += incr;
    1a06:	18c3      	adds	r3, r0, r3
    1a08:	6013      	str	r3, [r2, #0]

	return (caddr_t) prev_heap;
}
    1a0a:	4770      	bx	lr
		heap = (unsigned char *)&_end;
    1a0c:	4902      	ldr	r1, [pc, #8]	; (1a18 <_sbrk+0x20>)
    1a0e:	4a01      	ldr	r2, [pc, #4]	; (1a14 <_sbrk+0x1c>)
    1a10:	6011      	str	r1, [r2, #0]
    1a12:	e7f6      	b.n	1a02 <_sbrk+0xa>
    1a14:	20000f44 	.word	0x20000f44
    1a18:	20002fa8 	.word	0x20002fa8

00001a1c <__udivsi3>:
    1a1c:	2200      	movs	r2, #0
    1a1e:	0843      	lsrs	r3, r0, #1
    1a20:	428b      	cmp	r3, r1
    1a22:	d374      	bcc.n	1b0e <__udivsi3+0xf2>
    1a24:	0903      	lsrs	r3, r0, #4
    1a26:	428b      	cmp	r3, r1
    1a28:	d35f      	bcc.n	1aea <__udivsi3+0xce>
    1a2a:	0a03      	lsrs	r3, r0, #8
    1a2c:	428b      	cmp	r3, r1
    1a2e:	d344      	bcc.n	1aba <__udivsi3+0x9e>
    1a30:	0b03      	lsrs	r3, r0, #12
    1a32:	428b      	cmp	r3, r1
    1a34:	d328      	bcc.n	1a88 <__udivsi3+0x6c>
    1a36:	0c03      	lsrs	r3, r0, #16
    1a38:	428b      	cmp	r3, r1
    1a3a:	d30d      	bcc.n	1a58 <__udivsi3+0x3c>
    1a3c:	22ff      	movs	r2, #255	; 0xff
    1a3e:	0209      	lsls	r1, r1, #8
    1a40:	ba12      	rev	r2, r2
    1a42:	0c03      	lsrs	r3, r0, #16
    1a44:	428b      	cmp	r3, r1
    1a46:	d302      	bcc.n	1a4e <__udivsi3+0x32>
    1a48:	1212      	asrs	r2, r2, #8
    1a4a:	0209      	lsls	r1, r1, #8
    1a4c:	d065      	beq.n	1b1a <__udivsi3+0xfe>
    1a4e:	0b03      	lsrs	r3, r0, #12
    1a50:	428b      	cmp	r3, r1
    1a52:	d319      	bcc.n	1a88 <__udivsi3+0x6c>
    1a54:	e000      	b.n	1a58 <__udivsi3+0x3c>
    1a56:	0a09      	lsrs	r1, r1, #8
    1a58:	0bc3      	lsrs	r3, r0, #15
    1a5a:	428b      	cmp	r3, r1
    1a5c:	d301      	bcc.n	1a62 <__udivsi3+0x46>
    1a5e:	03cb      	lsls	r3, r1, #15
    1a60:	1ac0      	subs	r0, r0, r3
    1a62:	4152      	adcs	r2, r2
    1a64:	0b83      	lsrs	r3, r0, #14
    1a66:	428b      	cmp	r3, r1
    1a68:	d301      	bcc.n	1a6e <__udivsi3+0x52>
    1a6a:	038b      	lsls	r3, r1, #14
    1a6c:	1ac0      	subs	r0, r0, r3
    1a6e:	4152      	adcs	r2, r2
    1a70:	0b43      	lsrs	r3, r0, #13
    1a72:	428b      	cmp	r3, r1
    1a74:	d301      	bcc.n	1a7a <__udivsi3+0x5e>
    1a76:	034b      	lsls	r3, r1, #13
    1a78:	1ac0      	subs	r0, r0, r3
    1a7a:	4152      	adcs	r2, r2
    1a7c:	0b03      	lsrs	r3, r0, #12
    1a7e:	428b      	cmp	r3, r1
    1a80:	d301      	bcc.n	1a86 <__udivsi3+0x6a>
    1a82:	030b      	lsls	r3, r1, #12
    1a84:	1ac0      	subs	r0, r0, r3
    1a86:	4152      	adcs	r2, r2
    1a88:	0ac3      	lsrs	r3, r0, #11
    1a8a:	428b      	cmp	r3, r1
    1a8c:	d301      	bcc.n	1a92 <__udivsi3+0x76>
    1a8e:	02cb      	lsls	r3, r1, #11
    1a90:	1ac0      	subs	r0, r0, r3
    1a92:	4152      	adcs	r2, r2
    1a94:	0a83      	lsrs	r3, r0, #10
    1a96:	428b      	cmp	r3, r1
    1a98:	d301      	bcc.n	1a9e <__udivsi3+0x82>
    1a9a:	028b      	lsls	r3, r1, #10
    1a9c:	1ac0      	subs	r0, r0, r3
    1a9e:	4152      	adcs	r2, r2
    1aa0:	0a43      	lsrs	r3, r0, #9
    1aa2:	428b      	cmp	r3, r1
    1aa4:	d301      	bcc.n	1aaa <__udivsi3+0x8e>
    1aa6:	024b      	lsls	r3, r1, #9
    1aa8:	1ac0      	subs	r0, r0, r3
    1aaa:	4152      	adcs	r2, r2
    1aac:	0a03      	lsrs	r3, r0, #8
    1aae:	428b      	cmp	r3, r1
    1ab0:	d301      	bcc.n	1ab6 <__udivsi3+0x9a>
    1ab2:	020b      	lsls	r3, r1, #8
    1ab4:	1ac0      	subs	r0, r0, r3
    1ab6:	4152      	adcs	r2, r2
    1ab8:	d2cd      	bcs.n	1a56 <__udivsi3+0x3a>
    1aba:	09c3      	lsrs	r3, r0, #7
    1abc:	428b      	cmp	r3, r1
    1abe:	d301      	bcc.n	1ac4 <__udivsi3+0xa8>
    1ac0:	01cb      	lsls	r3, r1, #7
    1ac2:	1ac0      	subs	r0, r0, r3
    1ac4:	4152      	adcs	r2, r2
    1ac6:	0983      	lsrs	r3, r0, #6
    1ac8:	428b      	cmp	r3, r1
    1aca:	d301      	bcc.n	1ad0 <__udivsi3+0xb4>
    1acc:	018b      	lsls	r3, r1, #6
    1ace:	1ac0      	subs	r0, r0, r3
    1ad0:	4152      	adcs	r2, r2
    1ad2:	0943      	lsrs	r3, r0, #5
    1ad4:	428b      	cmp	r3, r1
    1ad6:	d301      	bcc.n	1adc <__udivsi3+0xc0>
    1ad8:	014b      	lsls	r3, r1, #5
    1ada:	1ac0      	subs	r0, r0, r3
    1adc:	4152      	adcs	r2, r2
    1ade:	0903      	lsrs	r3, r0, #4
    1ae0:	428b      	cmp	r3, r1
    1ae2:	d301      	bcc.n	1ae8 <__udivsi3+0xcc>
    1ae4:	010b      	lsls	r3, r1, #4
    1ae6:	1ac0      	subs	r0, r0, r3
    1ae8:	4152      	adcs	r2, r2
    1aea:	08c3      	lsrs	r3, r0, #3
    1aec:	428b      	cmp	r3, r1
    1aee:	d301      	bcc.n	1af4 <__udivsi3+0xd8>
    1af0:	00cb      	lsls	r3, r1, #3
    1af2:	1ac0      	subs	r0, r0, r3
    1af4:	4152      	adcs	r2, r2
    1af6:	0883      	lsrs	r3, r0, #2
    1af8:	428b      	cmp	r3, r1
    1afa:	d301      	bcc.n	1b00 <__udivsi3+0xe4>
    1afc:	008b      	lsls	r3, r1, #2
    1afe:	1ac0      	subs	r0, r0, r3
    1b00:	4152      	adcs	r2, r2
    1b02:	0843      	lsrs	r3, r0, #1
    1b04:	428b      	cmp	r3, r1
    1b06:	d301      	bcc.n	1b0c <__udivsi3+0xf0>
    1b08:	004b      	lsls	r3, r1, #1
    1b0a:	1ac0      	subs	r0, r0, r3
    1b0c:	4152      	adcs	r2, r2
    1b0e:	1a41      	subs	r1, r0, r1
    1b10:	d200      	bcs.n	1b14 <__udivsi3+0xf8>
    1b12:	4601      	mov	r1, r0
    1b14:	4152      	adcs	r2, r2
    1b16:	4610      	mov	r0, r2
    1b18:	4770      	bx	lr
    1b1a:	e7ff      	b.n	1b1c <__udivsi3+0x100>
    1b1c:	b501      	push	{r0, lr}
    1b1e:	2000      	movs	r0, #0
    1b20:	f000 f8f0 	bl	1d04 <__aeabi_idiv0>
    1b24:	bd02      	pop	{r1, pc}
    1b26:	46c0      	nop			; (mov r8, r8)

00001b28 <__aeabi_uidivmod>:
    1b28:	2900      	cmp	r1, #0
    1b2a:	d0f7      	beq.n	1b1c <__udivsi3+0x100>
    1b2c:	e776      	b.n	1a1c <__udivsi3>
    1b2e:	4770      	bx	lr

00001b30 <__divsi3>:
    1b30:	4603      	mov	r3, r0
    1b32:	430b      	orrs	r3, r1
    1b34:	d47f      	bmi.n	1c36 <__divsi3+0x106>
    1b36:	2200      	movs	r2, #0
    1b38:	0843      	lsrs	r3, r0, #1
    1b3a:	428b      	cmp	r3, r1
    1b3c:	d374      	bcc.n	1c28 <__divsi3+0xf8>
    1b3e:	0903      	lsrs	r3, r0, #4
    1b40:	428b      	cmp	r3, r1
    1b42:	d35f      	bcc.n	1c04 <__divsi3+0xd4>
    1b44:	0a03      	lsrs	r3, r0, #8
    1b46:	428b      	cmp	r3, r1
    1b48:	d344      	bcc.n	1bd4 <__divsi3+0xa4>
    1b4a:	0b03      	lsrs	r3, r0, #12
    1b4c:	428b      	cmp	r3, r1
    1b4e:	d328      	bcc.n	1ba2 <__divsi3+0x72>
    1b50:	0c03      	lsrs	r3, r0, #16
    1b52:	428b      	cmp	r3, r1
    1b54:	d30d      	bcc.n	1b72 <__divsi3+0x42>
    1b56:	22ff      	movs	r2, #255	; 0xff
    1b58:	0209      	lsls	r1, r1, #8
    1b5a:	ba12      	rev	r2, r2
    1b5c:	0c03      	lsrs	r3, r0, #16
    1b5e:	428b      	cmp	r3, r1
    1b60:	d302      	bcc.n	1b68 <__divsi3+0x38>
    1b62:	1212      	asrs	r2, r2, #8
    1b64:	0209      	lsls	r1, r1, #8
    1b66:	d065      	beq.n	1c34 <__divsi3+0x104>
    1b68:	0b03      	lsrs	r3, r0, #12
    1b6a:	428b      	cmp	r3, r1
    1b6c:	d319      	bcc.n	1ba2 <__divsi3+0x72>
    1b6e:	e000      	b.n	1b72 <__divsi3+0x42>
    1b70:	0a09      	lsrs	r1, r1, #8
    1b72:	0bc3      	lsrs	r3, r0, #15
    1b74:	428b      	cmp	r3, r1
    1b76:	d301      	bcc.n	1b7c <__divsi3+0x4c>
    1b78:	03cb      	lsls	r3, r1, #15
    1b7a:	1ac0      	subs	r0, r0, r3
    1b7c:	4152      	adcs	r2, r2
    1b7e:	0b83      	lsrs	r3, r0, #14
    1b80:	428b      	cmp	r3, r1
    1b82:	d301      	bcc.n	1b88 <__divsi3+0x58>
    1b84:	038b      	lsls	r3, r1, #14
    1b86:	1ac0      	subs	r0, r0, r3
    1b88:	4152      	adcs	r2, r2
    1b8a:	0b43      	lsrs	r3, r0, #13
    1b8c:	428b      	cmp	r3, r1
    1b8e:	d301      	bcc.n	1b94 <__divsi3+0x64>
    1b90:	034b      	lsls	r3, r1, #13
    1b92:	1ac0      	subs	r0, r0, r3
    1b94:	4152      	adcs	r2, r2
    1b96:	0b03      	lsrs	r3, r0, #12
    1b98:	428b      	cmp	r3, r1
    1b9a:	d301      	bcc.n	1ba0 <__divsi3+0x70>
    1b9c:	030b      	lsls	r3, r1, #12
    1b9e:	1ac0      	subs	r0, r0, r3
    1ba0:	4152      	adcs	r2, r2
    1ba2:	0ac3      	lsrs	r3, r0, #11
    1ba4:	428b      	cmp	r3, r1
    1ba6:	d301      	bcc.n	1bac <__divsi3+0x7c>
    1ba8:	02cb      	lsls	r3, r1, #11
    1baa:	1ac0      	subs	r0, r0, r3
    1bac:	4152      	adcs	r2, r2
    1bae:	0a83      	lsrs	r3, r0, #10
    1bb0:	428b      	cmp	r3, r1
    1bb2:	d301      	bcc.n	1bb8 <__divsi3+0x88>
    1bb4:	028b      	lsls	r3, r1, #10
    1bb6:	1ac0      	subs	r0, r0, r3
    1bb8:	4152      	adcs	r2, r2
    1bba:	0a43      	lsrs	r3, r0, #9
    1bbc:	428b      	cmp	r3, r1
    1bbe:	d301      	bcc.n	1bc4 <__divsi3+0x94>
    1bc0:	024b      	lsls	r3, r1, #9
    1bc2:	1ac0      	subs	r0, r0, r3
    1bc4:	4152      	adcs	r2, r2
    1bc6:	0a03      	lsrs	r3, r0, #8
    1bc8:	428b      	cmp	r3, r1
    1bca:	d301      	bcc.n	1bd0 <__divsi3+0xa0>
    1bcc:	020b      	lsls	r3, r1, #8
    1bce:	1ac0      	subs	r0, r0, r3
    1bd0:	4152      	adcs	r2, r2
    1bd2:	d2cd      	bcs.n	1b70 <__divsi3+0x40>
    1bd4:	09c3      	lsrs	r3, r0, #7
    1bd6:	428b      	cmp	r3, r1
    1bd8:	d301      	bcc.n	1bde <__divsi3+0xae>
    1bda:	01cb      	lsls	r3, r1, #7
    1bdc:	1ac0      	subs	r0, r0, r3
    1bde:	4152      	adcs	r2, r2
    1be0:	0983      	lsrs	r3, r0, #6
    1be2:	428b      	cmp	r3, r1
    1be4:	d301      	bcc.n	1bea <__divsi3+0xba>
    1be6:	018b      	lsls	r3, r1, #6
    1be8:	1ac0      	subs	r0, r0, r3
    1bea:	4152      	adcs	r2, r2
    1bec:	0943      	lsrs	r3, r0, #5
    1bee:	428b      	cmp	r3, r1
    1bf0:	d301      	bcc.n	1bf6 <__divsi3+0xc6>
    1bf2:	014b      	lsls	r3, r1, #5
    1bf4:	1ac0      	subs	r0, r0, r3
    1bf6:	4152      	adcs	r2, r2
    1bf8:	0903      	lsrs	r3, r0, #4
    1bfa:	428b      	cmp	r3, r1
    1bfc:	d301      	bcc.n	1c02 <__divsi3+0xd2>
    1bfe:	010b      	lsls	r3, r1, #4
    1c00:	1ac0      	subs	r0, r0, r3
    1c02:	4152      	adcs	r2, r2
    1c04:	08c3      	lsrs	r3, r0, #3
    1c06:	428b      	cmp	r3, r1
    1c08:	d301      	bcc.n	1c0e <__divsi3+0xde>
    1c0a:	00cb      	lsls	r3, r1, #3
    1c0c:	1ac0      	subs	r0, r0, r3
    1c0e:	4152      	adcs	r2, r2
    1c10:	0883      	lsrs	r3, r0, #2
    1c12:	428b      	cmp	r3, r1
    1c14:	d301      	bcc.n	1c1a <__divsi3+0xea>
    1c16:	008b      	lsls	r3, r1, #2
    1c18:	1ac0      	subs	r0, r0, r3
    1c1a:	4152      	adcs	r2, r2
    1c1c:	0843      	lsrs	r3, r0, #1
    1c1e:	428b      	cmp	r3, r1
    1c20:	d301      	bcc.n	1c26 <__divsi3+0xf6>
    1c22:	004b      	lsls	r3, r1, #1
    1c24:	1ac0      	subs	r0, r0, r3
    1c26:	4152      	adcs	r2, r2
    1c28:	1a41      	subs	r1, r0, r1
    1c2a:	d200      	bcs.n	1c2e <__divsi3+0xfe>
    1c2c:	4601      	mov	r1, r0
    1c2e:	4152      	adcs	r2, r2
    1c30:	4610      	mov	r0, r2
    1c32:	4770      	bx	lr
    1c34:	e05d      	b.n	1cf2 <__divsi3+0x1c2>
    1c36:	0fca      	lsrs	r2, r1, #31
    1c38:	d000      	beq.n	1c3c <__divsi3+0x10c>
    1c3a:	4249      	negs	r1, r1
    1c3c:	1003      	asrs	r3, r0, #32
    1c3e:	d300      	bcc.n	1c42 <__divsi3+0x112>
    1c40:	4240      	negs	r0, r0
    1c42:	4053      	eors	r3, r2
    1c44:	2200      	movs	r2, #0
    1c46:	469c      	mov	ip, r3
    1c48:	0903      	lsrs	r3, r0, #4
    1c4a:	428b      	cmp	r3, r1
    1c4c:	d32d      	bcc.n	1caa <__divsi3+0x17a>
    1c4e:	0a03      	lsrs	r3, r0, #8
    1c50:	428b      	cmp	r3, r1
    1c52:	d312      	bcc.n	1c7a <__divsi3+0x14a>
    1c54:	22fc      	movs	r2, #252	; 0xfc
    1c56:	0189      	lsls	r1, r1, #6
    1c58:	ba12      	rev	r2, r2
    1c5a:	0a03      	lsrs	r3, r0, #8
    1c5c:	428b      	cmp	r3, r1
    1c5e:	d30c      	bcc.n	1c7a <__divsi3+0x14a>
    1c60:	0189      	lsls	r1, r1, #6
    1c62:	1192      	asrs	r2, r2, #6
    1c64:	428b      	cmp	r3, r1
    1c66:	d308      	bcc.n	1c7a <__divsi3+0x14a>
    1c68:	0189      	lsls	r1, r1, #6
    1c6a:	1192      	asrs	r2, r2, #6
    1c6c:	428b      	cmp	r3, r1
    1c6e:	d304      	bcc.n	1c7a <__divsi3+0x14a>
    1c70:	0189      	lsls	r1, r1, #6
    1c72:	d03a      	beq.n	1cea <__divsi3+0x1ba>
    1c74:	1192      	asrs	r2, r2, #6
    1c76:	e000      	b.n	1c7a <__divsi3+0x14a>
    1c78:	0989      	lsrs	r1, r1, #6
    1c7a:	09c3      	lsrs	r3, r0, #7
    1c7c:	428b      	cmp	r3, r1
    1c7e:	d301      	bcc.n	1c84 <__divsi3+0x154>
    1c80:	01cb      	lsls	r3, r1, #7
    1c82:	1ac0      	subs	r0, r0, r3
    1c84:	4152      	adcs	r2, r2
    1c86:	0983      	lsrs	r3, r0, #6
    1c88:	428b      	cmp	r3, r1
    1c8a:	d301      	bcc.n	1c90 <__divsi3+0x160>
    1c8c:	018b      	lsls	r3, r1, #6
    1c8e:	1ac0      	subs	r0, r0, r3
    1c90:	4152      	adcs	r2, r2
    1c92:	0943      	lsrs	r3, r0, #5
    1c94:	428b      	cmp	r3, r1
    1c96:	d301      	bcc.n	1c9c <__divsi3+0x16c>
    1c98:	014b      	lsls	r3, r1, #5
    1c9a:	1ac0      	subs	r0, r0, r3
    1c9c:	4152      	adcs	r2, r2
    1c9e:	0903      	lsrs	r3, r0, #4
    1ca0:	428b      	cmp	r3, r1
    1ca2:	d301      	bcc.n	1ca8 <__divsi3+0x178>
    1ca4:	010b      	lsls	r3, r1, #4
    1ca6:	1ac0      	subs	r0, r0, r3
    1ca8:	4152      	adcs	r2, r2
    1caa:	08c3      	lsrs	r3, r0, #3
    1cac:	428b      	cmp	r3, r1
    1cae:	d301      	bcc.n	1cb4 <__divsi3+0x184>
    1cb0:	00cb      	lsls	r3, r1, #3
    1cb2:	1ac0      	subs	r0, r0, r3
    1cb4:	4152      	adcs	r2, r2
    1cb6:	0883      	lsrs	r3, r0, #2
    1cb8:	428b      	cmp	r3, r1
    1cba:	d301      	bcc.n	1cc0 <__divsi3+0x190>
    1cbc:	008b      	lsls	r3, r1, #2
    1cbe:	1ac0      	subs	r0, r0, r3
    1cc0:	4152      	adcs	r2, r2
    1cc2:	d2d9      	bcs.n	1c78 <__divsi3+0x148>
    1cc4:	0843      	lsrs	r3, r0, #1
    1cc6:	428b      	cmp	r3, r1
    1cc8:	d301      	bcc.n	1cce <__divsi3+0x19e>
    1cca:	004b      	lsls	r3, r1, #1
    1ccc:	1ac0      	subs	r0, r0, r3
    1cce:	4152      	adcs	r2, r2
    1cd0:	1a41      	subs	r1, r0, r1
    1cd2:	d200      	bcs.n	1cd6 <__divsi3+0x1a6>
    1cd4:	4601      	mov	r1, r0
    1cd6:	4663      	mov	r3, ip
    1cd8:	4152      	adcs	r2, r2
    1cda:	105b      	asrs	r3, r3, #1
    1cdc:	4610      	mov	r0, r2
    1cde:	d301      	bcc.n	1ce4 <__divsi3+0x1b4>
    1ce0:	4240      	negs	r0, r0
    1ce2:	2b00      	cmp	r3, #0
    1ce4:	d500      	bpl.n	1ce8 <__divsi3+0x1b8>
    1ce6:	4249      	negs	r1, r1
    1ce8:	4770      	bx	lr
    1cea:	4663      	mov	r3, ip
    1cec:	105b      	asrs	r3, r3, #1
    1cee:	d300      	bcc.n	1cf2 <__divsi3+0x1c2>
    1cf0:	4240      	negs	r0, r0
    1cf2:	b501      	push	{r0, lr}
    1cf4:	2000      	movs	r0, #0
    1cf6:	f000 f805 	bl	1d04 <__aeabi_idiv0>
    1cfa:	bd02      	pop	{r1, pc}

00001cfc <__aeabi_idivmod>:
    1cfc:	2900      	cmp	r1, #0
    1cfe:	d0f8      	beq.n	1cf2 <__divsi3+0x1c2>
    1d00:	e716      	b.n	1b30 <__divsi3>
    1d02:	4770      	bx	lr

00001d04 <__aeabi_idiv0>:
    1d04:	4770      	bx	lr
    1d06:	46c0      	nop			; (mov r8, r8)

00001d08 <__aeabi_cfrcmple>:
    1d08:	4684      	mov	ip, r0
    1d0a:	1c08      	adds	r0, r1, #0
    1d0c:	4661      	mov	r1, ip
    1d0e:	e7ff      	b.n	1d10 <__aeabi_cfcmpeq>

00001d10 <__aeabi_cfcmpeq>:
    1d10:	b51f      	push	{r0, r1, r2, r3, r4, lr}
    1d12:	f000 fb73 	bl	23fc <__lesf2>
    1d16:	2800      	cmp	r0, #0
    1d18:	d401      	bmi.n	1d1e <__aeabi_cfcmpeq+0xe>
    1d1a:	2100      	movs	r1, #0
    1d1c:	42c8      	cmn	r0, r1
    1d1e:	bd1f      	pop	{r0, r1, r2, r3, r4, pc}

00001d20 <__aeabi_fcmpeq>:
    1d20:	b510      	push	{r4, lr}
    1d22:	f000 fb05 	bl	2330 <__eqsf2>
    1d26:	4240      	negs	r0, r0
    1d28:	3001      	adds	r0, #1
    1d2a:	bd10      	pop	{r4, pc}

00001d2c <__aeabi_fcmplt>:
    1d2c:	b510      	push	{r4, lr}
    1d2e:	f000 fb65 	bl	23fc <__lesf2>
    1d32:	2800      	cmp	r0, #0
    1d34:	db01      	blt.n	1d3a <__aeabi_fcmplt+0xe>
    1d36:	2000      	movs	r0, #0
    1d38:	bd10      	pop	{r4, pc}
    1d3a:	2001      	movs	r0, #1
    1d3c:	bd10      	pop	{r4, pc}
    1d3e:	46c0      	nop			; (mov r8, r8)

00001d40 <__aeabi_fcmple>:
    1d40:	b510      	push	{r4, lr}
    1d42:	f000 fb5b 	bl	23fc <__lesf2>
    1d46:	2800      	cmp	r0, #0
    1d48:	dd01      	ble.n	1d4e <__aeabi_fcmple+0xe>
    1d4a:	2000      	movs	r0, #0
    1d4c:	bd10      	pop	{r4, pc}
    1d4e:	2001      	movs	r0, #1
    1d50:	bd10      	pop	{r4, pc}
    1d52:	46c0      	nop			; (mov r8, r8)

00001d54 <__aeabi_fcmpgt>:
    1d54:	b510      	push	{r4, lr}
    1d56:	f000 fb11 	bl	237c <__gesf2>
    1d5a:	2800      	cmp	r0, #0
    1d5c:	dc01      	bgt.n	1d62 <__aeabi_fcmpgt+0xe>
    1d5e:	2000      	movs	r0, #0
    1d60:	bd10      	pop	{r4, pc}
    1d62:	2001      	movs	r0, #1
    1d64:	bd10      	pop	{r4, pc}
    1d66:	46c0      	nop			; (mov r8, r8)

00001d68 <__aeabi_fcmpge>:
    1d68:	b510      	push	{r4, lr}
    1d6a:	f000 fb07 	bl	237c <__gesf2>
    1d6e:	2800      	cmp	r0, #0
    1d70:	da01      	bge.n	1d76 <__aeabi_fcmpge+0xe>
    1d72:	2000      	movs	r0, #0
    1d74:	bd10      	pop	{r4, pc}
    1d76:	2001      	movs	r0, #1
    1d78:	bd10      	pop	{r4, pc}
    1d7a:	46c0      	nop			; (mov r8, r8)

00001d7c <__aeabi_fadd>:
    1d7c:	b5f0      	push	{r4, r5, r6, r7, lr}
    1d7e:	46c6      	mov	lr, r8
    1d80:	024e      	lsls	r6, r1, #9
    1d82:	0247      	lsls	r7, r0, #9
    1d84:	0a76      	lsrs	r6, r6, #9
    1d86:	0a7b      	lsrs	r3, r7, #9
    1d88:	0044      	lsls	r4, r0, #1
    1d8a:	0fc5      	lsrs	r5, r0, #31
    1d8c:	00f7      	lsls	r7, r6, #3
    1d8e:	0048      	lsls	r0, r1, #1
    1d90:	4698      	mov	r8, r3
    1d92:	b500      	push	{lr}
    1d94:	0e24      	lsrs	r4, r4, #24
    1d96:	002a      	movs	r2, r5
    1d98:	00db      	lsls	r3, r3, #3
    1d9a:	0e00      	lsrs	r0, r0, #24
    1d9c:	0fc9      	lsrs	r1, r1, #31
    1d9e:	46bc      	mov	ip, r7
    1da0:	428d      	cmp	r5, r1
    1da2:	d067      	beq.n	1e74 <__aeabi_fadd+0xf8>
    1da4:	1a22      	subs	r2, r4, r0
    1da6:	2a00      	cmp	r2, #0
    1da8:	dc00      	bgt.n	1dac <__aeabi_fadd+0x30>
    1daa:	e0a5      	b.n	1ef8 <__aeabi_fadd+0x17c>
    1dac:	2800      	cmp	r0, #0
    1dae:	d13a      	bne.n	1e26 <__aeabi_fadd+0xaa>
    1db0:	2f00      	cmp	r7, #0
    1db2:	d100      	bne.n	1db6 <__aeabi_fadd+0x3a>
    1db4:	e093      	b.n	1ede <__aeabi_fadd+0x162>
    1db6:	1e51      	subs	r1, r2, #1
    1db8:	2900      	cmp	r1, #0
    1dba:	d000      	beq.n	1dbe <__aeabi_fadd+0x42>
    1dbc:	e0bc      	b.n	1f38 <__aeabi_fadd+0x1bc>
    1dbe:	2401      	movs	r4, #1
    1dc0:	1bdb      	subs	r3, r3, r7
    1dc2:	015a      	lsls	r2, r3, #5
    1dc4:	d546      	bpl.n	1e54 <__aeabi_fadd+0xd8>
    1dc6:	019b      	lsls	r3, r3, #6
    1dc8:	099e      	lsrs	r6, r3, #6
    1dca:	0030      	movs	r0, r6
    1dcc:	f000 fed6 	bl	2b7c <__clzsi2>
    1dd0:	3805      	subs	r0, #5
    1dd2:	4086      	lsls	r6, r0
    1dd4:	4284      	cmp	r4, r0
    1dd6:	dd00      	ble.n	1dda <__aeabi_fadd+0x5e>
    1dd8:	e09d      	b.n	1f16 <__aeabi_fadd+0x19a>
    1dda:	1b04      	subs	r4, r0, r4
    1ddc:	0032      	movs	r2, r6
    1dde:	2020      	movs	r0, #32
    1de0:	3401      	adds	r4, #1
    1de2:	40e2      	lsrs	r2, r4
    1de4:	1b04      	subs	r4, r0, r4
    1de6:	40a6      	lsls	r6, r4
    1de8:	0033      	movs	r3, r6
    1dea:	1e5e      	subs	r6, r3, #1
    1dec:	41b3      	sbcs	r3, r6
    1dee:	2400      	movs	r4, #0
    1df0:	4313      	orrs	r3, r2
    1df2:	075a      	lsls	r2, r3, #29
    1df4:	d004      	beq.n	1e00 <__aeabi_fadd+0x84>
    1df6:	220f      	movs	r2, #15
    1df8:	401a      	ands	r2, r3
    1dfa:	2a04      	cmp	r2, #4
    1dfc:	d000      	beq.n	1e00 <__aeabi_fadd+0x84>
    1dfe:	3304      	adds	r3, #4
    1e00:	015a      	lsls	r2, r3, #5
    1e02:	d529      	bpl.n	1e58 <__aeabi_fadd+0xdc>
    1e04:	3401      	adds	r4, #1
    1e06:	2cff      	cmp	r4, #255	; 0xff
    1e08:	d100      	bne.n	1e0c <__aeabi_fadd+0x90>
    1e0a:	e081      	b.n	1f10 <__aeabi_fadd+0x194>
    1e0c:	002a      	movs	r2, r5
    1e0e:	019b      	lsls	r3, r3, #6
    1e10:	0a5b      	lsrs	r3, r3, #9
    1e12:	b2e4      	uxtb	r4, r4
    1e14:	025b      	lsls	r3, r3, #9
    1e16:	05e4      	lsls	r4, r4, #23
    1e18:	0a58      	lsrs	r0, r3, #9
    1e1a:	07d2      	lsls	r2, r2, #31
    1e1c:	4320      	orrs	r0, r4
    1e1e:	4310      	orrs	r0, r2
    1e20:	bc04      	pop	{r2}
    1e22:	4690      	mov	r8, r2
    1e24:	bdf0      	pop	{r4, r5, r6, r7, pc}
    1e26:	2cff      	cmp	r4, #255	; 0xff
    1e28:	d0e3      	beq.n	1df2 <__aeabi_fadd+0x76>
    1e2a:	2180      	movs	r1, #128	; 0x80
    1e2c:	0038      	movs	r0, r7
    1e2e:	04c9      	lsls	r1, r1, #19
    1e30:	4308      	orrs	r0, r1
    1e32:	4684      	mov	ip, r0
    1e34:	2a1b      	cmp	r2, #27
    1e36:	dd00      	ble.n	1e3a <__aeabi_fadd+0xbe>
    1e38:	e082      	b.n	1f40 <__aeabi_fadd+0x1c4>
    1e3a:	2020      	movs	r0, #32
    1e3c:	4661      	mov	r1, ip
    1e3e:	40d1      	lsrs	r1, r2
    1e40:	1a82      	subs	r2, r0, r2
    1e42:	4660      	mov	r0, ip
    1e44:	4090      	lsls	r0, r2
    1e46:	0002      	movs	r2, r0
    1e48:	1e50      	subs	r0, r2, #1
    1e4a:	4182      	sbcs	r2, r0
    1e4c:	430a      	orrs	r2, r1
    1e4e:	1a9b      	subs	r3, r3, r2
    1e50:	015a      	lsls	r2, r3, #5
    1e52:	d4b8      	bmi.n	1dc6 <__aeabi_fadd+0x4a>
    1e54:	075a      	lsls	r2, r3, #29
    1e56:	d1ce      	bne.n	1df6 <__aeabi_fadd+0x7a>
    1e58:	08de      	lsrs	r6, r3, #3
    1e5a:	002a      	movs	r2, r5
    1e5c:	2cff      	cmp	r4, #255	; 0xff
    1e5e:	d13a      	bne.n	1ed6 <__aeabi_fadd+0x15a>
    1e60:	2e00      	cmp	r6, #0
    1e62:	d100      	bne.n	1e66 <__aeabi_fadd+0xea>
    1e64:	e0ae      	b.n	1fc4 <__aeabi_fadd+0x248>
    1e66:	2380      	movs	r3, #128	; 0x80
    1e68:	03db      	lsls	r3, r3, #15
    1e6a:	4333      	orrs	r3, r6
    1e6c:	025b      	lsls	r3, r3, #9
    1e6e:	0a5b      	lsrs	r3, r3, #9
    1e70:	24ff      	movs	r4, #255	; 0xff
    1e72:	e7cf      	b.n	1e14 <__aeabi_fadd+0x98>
    1e74:	1a21      	subs	r1, r4, r0
    1e76:	2900      	cmp	r1, #0
    1e78:	dd52      	ble.n	1f20 <__aeabi_fadd+0x1a4>
    1e7a:	2800      	cmp	r0, #0
    1e7c:	d031      	beq.n	1ee2 <__aeabi_fadd+0x166>
    1e7e:	2cff      	cmp	r4, #255	; 0xff
    1e80:	d0b7      	beq.n	1df2 <__aeabi_fadd+0x76>
    1e82:	2080      	movs	r0, #128	; 0x80
    1e84:	003e      	movs	r6, r7
    1e86:	04c0      	lsls	r0, r0, #19
    1e88:	4306      	orrs	r6, r0
    1e8a:	46b4      	mov	ip, r6
    1e8c:	291b      	cmp	r1, #27
    1e8e:	dd00      	ble.n	1e92 <__aeabi_fadd+0x116>
    1e90:	e0aa      	b.n	1fe8 <__aeabi_fadd+0x26c>
    1e92:	2620      	movs	r6, #32
    1e94:	4660      	mov	r0, ip
    1e96:	40c8      	lsrs	r0, r1
    1e98:	1a71      	subs	r1, r6, r1
    1e9a:	4666      	mov	r6, ip
    1e9c:	408e      	lsls	r6, r1
    1e9e:	0031      	movs	r1, r6
    1ea0:	1e4e      	subs	r6, r1, #1
    1ea2:	41b1      	sbcs	r1, r6
    1ea4:	4301      	orrs	r1, r0
    1ea6:	185b      	adds	r3, r3, r1
    1ea8:	0159      	lsls	r1, r3, #5
    1eaa:	d5d3      	bpl.n	1e54 <__aeabi_fadd+0xd8>
    1eac:	3401      	adds	r4, #1
    1eae:	2cff      	cmp	r4, #255	; 0xff
    1eb0:	d100      	bne.n	1eb4 <__aeabi_fadd+0x138>
    1eb2:	e087      	b.n	1fc4 <__aeabi_fadd+0x248>
    1eb4:	2201      	movs	r2, #1
    1eb6:	4978      	ldr	r1, [pc, #480]	; (2098 <STACK_SIZE+0x98>)
    1eb8:	401a      	ands	r2, r3
    1eba:	085b      	lsrs	r3, r3, #1
    1ebc:	400b      	ands	r3, r1
    1ebe:	4313      	orrs	r3, r2
    1ec0:	e797      	b.n	1df2 <__aeabi_fadd+0x76>
    1ec2:	2c00      	cmp	r4, #0
    1ec4:	d000      	beq.n	1ec8 <__aeabi_fadd+0x14c>
    1ec6:	e0a7      	b.n	2018 <STACK_SIZE+0x18>
    1ec8:	2b00      	cmp	r3, #0
    1eca:	d000      	beq.n	1ece <__aeabi_fadd+0x152>
    1ecc:	e0b6      	b.n	203c <STACK_SIZE+0x3c>
    1ece:	1e3b      	subs	r3, r7, #0
    1ed0:	d162      	bne.n	1f98 <__aeabi_fadd+0x21c>
    1ed2:	2600      	movs	r6, #0
    1ed4:	2200      	movs	r2, #0
    1ed6:	0273      	lsls	r3, r6, #9
    1ed8:	0a5b      	lsrs	r3, r3, #9
    1eda:	b2e4      	uxtb	r4, r4
    1edc:	e79a      	b.n	1e14 <__aeabi_fadd+0x98>
    1ede:	0014      	movs	r4, r2
    1ee0:	e787      	b.n	1df2 <__aeabi_fadd+0x76>
    1ee2:	2f00      	cmp	r7, #0
    1ee4:	d04d      	beq.n	1f82 <__aeabi_fadd+0x206>
    1ee6:	1e48      	subs	r0, r1, #1
    1ee8:	2800      	cmp	r0, #0
    1eea:	d157      	bne.n	1f9c <__aeabi_fadd+0x220>
    1eec:	4463      	add	r3, ip
    1eee:	2401      	movs	r4, #1
    1ef0:	015a      	lsls	r2, r3, #5
    1ef2:	d5af      	bpl.n	1e54 <__aeabi_fadd+0xd8>
    1ef4:	2402      	movs	r4, #2
    1ef6:	e7dd      	b.n	1eb4 <__aeabi_fadd+0x138>
    1ef8:	2a00      	cmp	r2, #0
    1efa:	d124      	bne.n	1f46 <__aeabi_fadd+0x1ca>
    1efc:	1c62      	adds	r2, r4, #1
    1efe:	b2d2      	uxtb	r2, r2
    1f00:	2a01      	cmp	r2, #1
    1f02:	ddde      	ble.n	1ec2 <__aeabi_fadd+0x146>
    1f04:	1bde      	subs	r6, r3, r7
    1f06:	0172      	lsls	r2, r6, #5
    1f08:	d535      	bpl.n	1f76 <__aeabi_fadd+0x1fa>
    1f0a:	1afe      	subs	r6, r7, r3
    1f0c:	000d      	movs	r5, r1
    1f0e:	e75c      	b.n	1dca <__aeabi_fadd+0x4e>
    1f10:	002a      	movs	r2, r5
    1f12:	2300      	movs	r3, #0
    1f14:	e77e      	b.n	1e14 <__aeabi_fadd+0x98>
    1f16:	0033      	movs	r3, r6
    1f18:	4a60      	ldr	r2, [pc, #384]	; (209c <STACK_SIZE+0x9c>)
    1f1a:	1a24      	subs	r4, r4, r0
    1f1c:	4013      	ands	r3, r2
    1f1e:	e768      	b.n	1df2 <__aeabi_fadd+0x76>
    1f20:	2900      	cmp	r1, #0
    1f22:	d163      	bne.n	1fec <__aeabi_fadd+0x270>
    1f24:	1c61      	adds	r1, r4, #1
    1f26:	b2c8      	uxtb	r0, r1
    1f28:	2801      	cmp	r0, #1
    1f2a:	dd4e      	ble.n	1fca <__aeabi_fadd+0x24e>
    1f2c:	29ff      	cmp	r1, #255	; 0xff
    1f2e:	d049      	beq.n	1fc4 <__aeabi_fadd+0x248>
    1f30:	4463      	add	r3, ip
    1f32:	085b      	lsrs	r3, r3, #1
    1f34:	000c      	movs	r4, r1
    1f36:	e75c      	b.n	1df2 <__aeabi_fadd+0x76>
    1f38:	2aff      	cmp	r2, #255	; 0xff
    1f3a:	d041      	beq.n	1fc0 <__aeabi_fadd+0x244>
    1f3c:	000a      	movs	r2, r1
    1f3e:	e779      	b.n	1e34 <__aeabi_fadd+0xb8>
    1f40:	2201      	movs	r2, #1
    1f42:	1a9b      	subs	r3, r3, r2
    1f44:	e784      	b.n	1e50 <__aeabi_fadd+0xd4>
    1f46:	2c00      	cmp	r4, #0
    1f48:	d01d      	beq.n	1f86 <__aeabi_fadd+0x20a>
    1f4a:	28ff      	cmp	r0, #255	; 0xff
    1f4c:	d022      	beq.n	1f94 <__aeabi_fadd+0x218>
    1f4e:	2480      	movs	r4, #128	; 0x80
    1f50:	04e4      	lsls	r4, r4, #19
    1f52:	4252      	negs	r2, r2
    1f54:	4323      	orrs	r3, r4
    1f56:	2a1b      	cmp	r2, #27
    1f58:	dd00      	ble.n	1f5c <__aeabi_fadd+0x1e0>
    1f5a:	e08a      	b.n	2072 <STACK_SIZE+0x72>
    1f5c:	001c      	movs	r4, r3
    1f5e:	2520      	movs	r5, #32
    1f60:	40d4      	lsrs	r4, r2
    1f62:	1aaa      	subs	r2, r5, r2
    1f64:	4093      	lsls	r3, r2
    1f66:	1e5a      	subs	r2, r3, #1
    1f68:	4193      	sbcs	r3, r2
    1f6a:	4323      	orrs	r3, r4
    1f6c:	4662      	mov	r2, ip
    1f6e:	0004      	movs	r4, r0
    1f70:	1ad3      	subs	r3, r2, r3
    1f72:	000d      	movs	r5, r1
    1f74:	e725      	b.n	1dc2 <__aeabi_fadd+0x46>
    1f76:	2e00      	cmp	r6, #0
    1f78:	d000      	beq.n	1f7c <__aeabi_fadd+0x200>
    1f7a:	e726      	b.n	1dca <__aeabi_fadd+0x4e>
    1f7c:	2200      	movs	r2, #0
    1f7e:	2400      	movs	r4, #0
    1f80:	e7a9      	b.n	1ed6 <__aeabi_fadd+0x15a>
    1f82:	000c      	movs	r4, r1
    1f84:	e735      	b.n	1df2 <__aeabi_fadd+0x76>
    1f86:	2b00      	cmp	r3, #0
    1f88:	d04d      	beq.n	2026 <STACK_SIZE+0x26>
    1f8a:	43d2      	mvns	r2, r2
    1f8c:	2a00      	cmp	r2, #0
    1f8e:	d0ed      	beq.n	1f6c <__aeabi_fadd+0x1f0>
    1f90:	28ff      	cmp	r0, #255	; 0xff
    1f92:	d1e0      	bne.n	1f56 <__aeabi_fadd+0x1da>
    1f94:	4663      	mov	r3, ip
    1f96:	24ff      	movs	r4, #255	; 0xff
    1f98:	000d      	movs	r5, r1
    1f9a:	e72a      	b.n	1df2 <__aeabi_fadd+0x76>
    1f9c:	29ff      	cmp	r1, #255	; 0xff
    1f9e:	d00f      	beq.n	1fc0 <__aeabi_fadd+0x244>
    1fa0:	0001      	movs	r1, r0
    1fa2:	e773      	b.n	1e8c <__aeabi_fadd+0x110>
    1fa4:	2b00      	cmp	r3, #0
    1fa6:	d061      	beq.n	206c <STACK_SIZE+0x6c>
    1fa8:	24ff      	movs	r4, #255	; 0xff
    1faa:	2f00      	cmp	r7, #0
    1fac:	d100      	bne.n	1fb0 <__aeabi_fadd+0x234>
    1fae:	e720      	b.n	1df2 <__aeabi_fadd+0x76>
    1fb0:	2280      	movs	r2, #128	; 0x80
    1fb2:	4641      	mov	r1, r8
    1fb4:	03d2      	lsls	r2, r2, #15
    1fb6:	4211      	tst	r1, r2
    1fb8:	d002      	beq.n	1fc0 <__aeabi_fadd+0x244>
    1fba:	4216      	tst	r6, r2
    1fbc:	d100      	bne.n	1fc0 <__aeabi_fadd+0x244>
    1fbe:	003b      	movs	r3, r7
    1fc0:	24ff      	movs	r4, #255	; 0xff
    1fc2:	e716      	b.n	1df2 <__aeabi_fadd+0x76>
    1fc4:	24ff      	movs	r4, #255	; 0xff
    1fc6:	2300      	movs	r3, #0
    1fc8:	e724      	b.n	1e14 <__aeabi_fadd+0x98>
    1fca:	2c00      	cmp	r4, #0
    1fcc:	d1ea      	bne.n	1fa4 <__aeabi_fadd+0x228>
    1fce:	2b00      	cmp	r3, #0
    1fd0:	d058      	beq.n	2084 <STACK_SIZE+0x84>
    1fd2:	2f00      	cmp	r7, #0
    1fd4:	d100      	bne.n	1fd8 <__aeabi_fadd+0x25c>
    1fd6:	e70c      	b.n	1df2 <__aeabi_fadd+0x76>
    1fd8:	4463      	add	r3, ip
    1fda:	015a      	lsls	r2, r3, #5
    1fdc:	d400      	bmi.n	1fe0 <__aeabi_fadd+0x264>
    1fde:	e739      	b.n	1e54 <__aeabi_fadd+0xd8>
    1fe0:	4a2e      	ldr	r2, [pc, #184]	; (209c <STACK_SIZE+0x9c>)
    1fe2:	000c      	movs	r4, r1
    1fe4:	4013      	ands	r3, r2
    1fe6:	e704      	b.n	1df2 <__aeabi_fadd+0x76>
    1fe8:	2101      	movs	r1, #1
    1fea:	e75c      	b.n	1ea6 <__aeabi_fadd+0x12a>
    1fec:	2c00      	cmp	r4, #0
    1fee:	d11e      	bne.n	202e <STACK_SIZE+0x2e>
    1ff0:	2b00      	cmp	r3, #0
    1ff2:	d040      	beq.n	2076 <STACK_SIZE+0x76>
    1ff4:	43c9      	mvns	r1, r1
    1ff6:	2900      	cmp	r1, #0
    1ff8:	d00b      	beq.n	2012 <STACK_SIZE+0x12>
    1ffa:	28ff      	cmp	r0, #255	; 0xff
    1ffc:	d036      	beq.n	206c <STACK_SIZE+0x6c>
    1ffe:	291b      	cmp	r1, #27
    2000:	dc47      	bgt.n	2092 <STACK_SIZE+0x92>
    2002:	001c      	movs	r4, r3
    2004:	2620      	movs	r6, #32
    2006:	40cc      	lsrs	r4, r1
    2008:	1a71      	subs	r1, r6, r1
    200a:	408b      	lsls	r3, r1
    200c:	1e59      	subs	r1, r3, #1
    200e:	418b      	sbcs	r3, r1
    2010:	4323      	orrs	r3, r4
    2012:	4463      	add	r3, ip
    2014:	0004      	movs	r4, r0
    2016:	e747      	b.n	1ea8 <__aeabi_fadd+0x12c>
    2018:	2b00      	cmp	r3, #0
    201a:	d118      	bne.n	204e <STACK_SIZE+0x4e>
    201c:	1e3b      	subs	r3, r7, #0
    201e:	d02d      	beq.n	207c <STACK_SIZE+0x7c>
    2020:	000d      	movs	r5, r1
    2022:	24ff      	movs	r4, #255	; 0xff
    2024:	e6e5      	b.n	1df2 <__aeabi_fadd+0x76>
    2026:	003b      	movs	r3, r7
    2028:	0004      	movs	r4, r0
    202a:	000d      	movs	r5, r1
    202c:	e6e1      	b.n	1df2 <__aeabi_fadd+0x76>
    202e:	28ff      	cmp	r0, #255	; 0xff
    2030:	d01c      	beq.n	206c <STACK_SIZE+0x6c>
    2032:	2480      	movs	r4, #128	; 0x80
    2034:	04e4      	lsls	r4, r4, #19
    2036:	4249      	negs	r1, r1
    2038:	4323      	orrs	r3, r4
    203a:	e7e0      	b.n	1ffe <__aeabi_fadd+0x282>
    203c:	2f00      	cmp	r7, #0
    203e:	d100      	bne.n	2042 <STACK_SIZE+0x42>
    2040:	e6d7      	b.n	1df2 <__aeabi_fadd+0x76>
    2042:	1bde      	subs	r6, r3, r7
    2044:	0172      	lsls	r2, r6, #5
    2046:	d51f      	bpl.n	2088 <STACK_SIZE+0x88>
    2048:	1afb      	subs	r3, r7, r3
    204a:	000d      	movs	r5, r1
    204c:	e6d1      	b.n	1df2 <__aeabi_fadd+0x76>
    204e:	24ff      	movs	r4, #255	; 0xff
    2050:	2f00      	cmp	r7, #0
    2052:	d100      	bne.n	2056 <STACK_SIZE+0x56>
    2054:	e6cd      	b.n	1df2 <__aeabi_fadd+0x76>
    2056:	2280      	movs	r2, #128	; 0x80
    2058:	4640      	mov	r0, r8
    205a:	03d2      	lsls	r2, r2, #15
    205c:	4210      	tst	r0, r2
    205e:	d0af      	beq.n	1fc0 <__aeabi_fadd+0x244>
    2060:	4216      	tst	r6, r2
    2062:	d1ad      	bne.n	1fc0 <__aeabi_fadd+0x244>
    2064:	003b      	movs	r3, r7
    2066:	000d      	movs	r5, r1
    2068:	24ff      	movs	r4, #255	; 0xff
    206a:	e6c2      	b.n	1df2 <__aeabi_fadd+0x76>
    206c:	4663      	mov	r3, ip
    206e:	24ff      	movs	r4, #255	; 0xff
    2070:	e6bf      	b.n	1df2 <__aeabi_fadd+0x76>
    2072:	2301      	movs	r3, #1
    2074:	e77a      	b.n	1f6c <__aeabi_fadd+0x1f0>
    2076:	003b      	movs	r3, r7
    2078:	0004      	movs	r4, r0
    207a:	e6ba      	b.n	1df2 <__aeabi_fadd+0x76>
    207c:	2680      	movs	r6, #128	; 0x80
    207e:	2200      	movs	r2, #0
    2080:	03f6      	lsls	r6, r6, #15
    2082:	e6f0      	b.n	1e66 <__aeabi_fadd+0xea>
    2084:	003b      	movs	r3, r7
    2086:	e6b4      	b.n	1df2 <__aeabi_fadd+0x76>
    2088:	1e33      	subs	r3, r6, #0
    208a:	d000      	beq.n	208e <STACK_SIZE+0x8e>
    208c:	e6e2      	b.n	1e54 <__aeabi_fadd+0xd8>
    208e:	2200      	movs	r2, #0
    2090:	e721      	b.n	1ed6 <__aeabi_fadd+0x15a>
    2092:	2301      	movs	r3, #1
    2094:	e7bd      	b.n	2012 <STACK_SIZE+0x12>
    2096:	46c0      	nop			; (mov r8, r8)
    2098:	7dffffff 	.word	0x7dffffff
    209c:	fbffffff 	.word	0xfbffffff

000020a0 <__aeabi_fdiv>:
    20a0:	b5f0      	push	{r4, r5, r6, r7, lr}
    20a2:	4657      	mov	r7, sl
    20a4:	464e      	mov	r6, r9
    20a6:	46de      	mov	lr, fp
    20a8:	4645      	mov	r5, r8
    20aa:	b5e0      	push	{r5, r6, r7, lr}
    20ac:	0244      	lsls	r4, r0, #9
    20ae:	0043      	lsls	r3, r0, #1
    20b0:	0fc6      	lsrs	r6, r0, #31
    20b2:	b083      	sub	sp, #12
    20b4:	1c0f      	adds	r7, r1, #0
    20b6:	0a64      	lsrs	r4, r4, #9
    20b8:	0e1b      	lsrs	r3, r3, #24
    20ba:	46b2      	mov	sl, r6
    20bc:	d053      	beq.n	2166 <__aeabi_fdiv+0xc6>
    20be:	2bff      	cmp	r3, #255	; 0xff
    20c0:	d027      	beq.n	2112 <__aeabi_fdiv+0x72>
    20c2:	2280      	movs	r2, #128	; 0x80
    20c4:	00e4      	lsls	r4, r4, #3
    20c6:	04d2      	lsls	r2, r2, #19
    20c8:	4314      	orrs	r4, r2
    20ca:	227f      	movs	r2, #127	; 0x7f
    20cc:	4252      	negs	r2, r2
    20ce:	4690      	mov	r8, r2
    20d0:	4498      	add	r8, r3
    20d2:	2300      	movs	r3, #0
    20d4:	4699      	mov	r9, r3
    20d6:	469b      	mov	fp, r3
    20d8:	027d      	lsls	r5, r7, #9
    20da:	0078      	lsls	r0, r7, #1
    20dc:	0ffb      	lsrs	r3, r7, #31
    20de:	0a6d      	lsrs	r5, r5, #9
    20e0:	0e00      	lsrs	r0, r0, #24
    20e2:	9300      	str	r3, [sp, #0]
    20e4:	d024      	beq.n	2130 <__aeabi_fdiv+0x90>
    20e6:	28ff      	cmp	r0, #255	; 0xff
    20e8:	d046      	beq.n	2178 <__aeabi_fdiv+0xd8>
    20ea:	2380      	movs	r3, #128	; 0x80
    20ec:	2100      	movs	r1, #0
    20ee:	00ed      	lsls	r5, r5, #3
    20f0:	04db      	lsls	r3, r3, #19
    20f2:	431d      	orrs	r5, r3
    20f4:	387f      	subs	r0, #127	; 0x7f
    20f6:	4647      	mov	r7, r8
    20f8:	1a38      	subs	r0, r7, r0
    20fa:	464f      	mov	r7, r9
    20fc:	430f      	orrs	r7, r1
    20fe:	00bf      	lsls	r7, r7, #2
    2100:	46b9      	mov	r9, r7
    2102:	0033      	movs	r3, r6
    2104:	9a00      	ldr	r2, [sp, #0]
    2106:	4f87      	ldr	r7, [pc, #540]	; (2324 <__aeabi_fdiv+0x284>)
    2108:	4053      	eors	r3, r2
    210a:	464a      	mov	r2, r9
    210c:	58ba      	ldr	r2, [r7, r2]
    210e:	9301      	str	r3, [sp, #4]
    2110:	4697      	mov	pc, r2
    2112:	2c00      	cmp	r4, #0
    2114:	d14e      	bne.n	21b4 <__aeabi_fdiv+0x114>
    2116:	2308      	movs	r3, #8
    2118:	4699      	mov	r9, r3
    211a:	33f7      	adds	r3, #247	; 0xf7
    211c:	4698      	mov	r8, r3
    211e:	3bfd      	subs	r3, #253	; 0xfd
    2120:	469b      	mov	fp, r3
    2122:	027d      	lsls	r5, r7, #9
    2124:	0078      	lsls	r0, r7, #1
    2126:	0ffb      	lsrs	r3, r7, #31
    2128:	0a6d      	lsrs	r5, r5, #9
    212a:	0e00      	lsrs	r0, r0, #24
    212c:	9300      	str	r3, [sp, #0]
    212e:	d1da      	bne.n	20e6 <__aeabi_fdiv+0x46>
    2130:	2d00      	cmp	r5, #0
    2132:	d126      	bne.n	2182 <__aeabi_fdiv+0xe2>
    2134:	2000      	movs	r0, #0
    2136:	2101      	movs	r1, #1
    2138:	0033      	movs	r3, r6
    213a:	9a00      	ldr	r2, [sp, #0]
    213c:	4f7a      	ldr	r7, [pc, #488]	; (2328 <__aeabi_fdiv+0x288>)
    213e:	4053      	eors	r3, r2
    2140:	4642      	mov	r2, r8
    2142:	1a10      	subs	r0, r2, r0
    2144:	464a      	mov	r2, r9
    2146:	430a      	orrs	r2, r1
    2148:	0092      	lsls	r2, r2, #2
    214a:	58ba      	ldr	r2, [r7, r2]
    214c:	001d      	movs	r5, r3
    214e:	4697      	mov	pc, r2
    2150:	9b00      	ldr	r3, [sp, #0]
    2152:	002c      	movs	r4, r5
    2154:	469a      	mov	sl, r3
    2156:	468b      	mov	fp, r1
    2158:	465b      	mov	r3, fp
    215a:	2b02      	cmp	r3, #2
    215c:	d131      	bne.n	21c2 <__aeabi_fdiv+0x122>
    215e:	4653      	mov	r3, sl
    2160:	21ff      	movs	r1, #255	; 0xff
    2162:	2400      	movs	r4, #0
    2164:	e038      	b.n	21d8 <__aeabi_fdiv+0x138>
    2166:	2c00      	cmp	r4, #0
    2168:	d117      	bne.n	219a <__aeabi_fdiv+0xfa>
    216a:	2304      	movs	r3, #4
    216c:	4699      	mov	r9, r3
    216e:	2300      	movs	r3, #0
    2170:	4698      	mov	r8, r3
    2172:	3301      	adds	r3, #1
    2174:	469b      	mov	fp, r3
    2176:	e7af      	b.n	20d8 <__aeabi_fdiv+0x38>
    2178:	20ff      	movs	r0, #255	; 0xff
    217a:	2d00      	cmp	r5, #0
    217c:	d10b      	bne.n	2196 <__aeabi_fdiv+0xf6>
    217e:	2102      	movs	r1, #2
    2180:	e7da      	b.n	2138 <__aeabi_fdiv+0x98>
    2182:	0028      	movs	r0, r5
    2184:	f000 fcfa 	bl	2b7c <__clzsi2>
    2188:	1f43      	subs	r3, r0, #5
    218a:	409d      	lsls	r5, r3
    218c:	2376      	movs	r3, #118	; 0x76
    218e:	425b      	negs	r3, r3
    2190:	1a18      	subs	r0, r3, r0
    2192:	2100      	movs	r1, #0
    2194:	e7af      	b.n	20f6 <__aeabi_fdiv+0x56>
    2196:	2103      	movs	r1, #3
    2198:	e7ad      	b.n	20f6 <__aeabi_fdiv+0x56>
    219a:	0020      	movs	r0, r4
    219c:	f000 fcee 	bl	2b7c <__clzsi2>
    21a0:	1f43      	subs	r3, r0, #5
    21a2:	409c      	lsls	r4, r3
    21a4:	2376      	movs	r3, #118	; 0x76
    21a6:	425b      	negs	r3, r3
    21a8:	1a1b      	subs	r3, r3, r0
    21aa:	4698      	mov	r8, r3
    21ac:	2300      	movs	r3, #0
    21ae:	4699      	mov	r9, r3
    21b0:	469b      	mov	fp, r3
    21b2:	e791      	b.n	20d8 <__aeabi_fdiv+0x38>
    21b4:	230c      	movs	r3, #12
    21b6:	4699      	mov	r9, r3
    21b8:	33f3      	adds	r3, #243	; 0xf3
    21ba:	4698      	mov	r8, r3
    21bc:	3bfc      	subs	r3, #252	; 0xfc
    21be:	469b      	mov	fp, r3
    21c0:	e78a      	b.n	20d8 <__aeabi_fdiv+0x38>
    21c2:	2b03      	cmp	r3, #3
    21c4:	d100      	bne.n	21c8 <__aeabi_fdiv+0x128>
    21c6:	e0a5      	b.n	2314 <__aeabi_fdiv+0x274>
    21c8:	4655      	mov	r5, sl
    21ca:	2b01      	cmp	r3, #1
    21cc:	d000      	beq.n	21d0 <__aeabi_fdiv+0x130>
    21ce:	e081      	b.n	22d4 <__aeabi_fdiv+0x234>
    21d0:	2301      	movs	r3, #1
    21d2:	2100      	movs	r1, #0
    21d4:	2400      	movs	r4, #0
    21d6:	402b      	ands	r3, r5
    21d8:	0264      	lsls	r4, r4, #9
    21da:	05c9      	lsls	r1, r1, #23
    21dc:	0a60      	lsrs	r0, r4, #9
    21de:	07db      	lsls	r3, r3, #31
    21e0:	4308      	orrs	r0, r1
    21e2:	4318      	orrs	r0, r3
    21e4:	b003      	add	sp, #12
    21e6:	bc3c      	pop	{r2, r3, r4, r5}
    21e8:	4690      	mov	r8, r2
    21ea:	4699      	mov	r9, r3
    21ec:	46a2      	mov	sl, r4
    21ee:	46ab      	mov	fp, r5
    21f0:	bdf0      	pop	{r4, r5, r6, r7, pc}
    21f2:	2480      	movs	r4, #128	; 0x80
    21f4:	2300      	movs	r3, #0
    21f6:	03e4      	lsls	r4, r4, #15
    21f8:	21ff      	movs	r1, #255	; 0xff
    21fa:	e7ed      	b.n	21d8 <__aeabi_fdiv+0x138>
    21fc:	21ff      	movs	r1, #255	; 0xff
    21fe:	2400      	movs	r4, #0
    2200:	e7ea      	b.n	21d8 <__aeabi_fdiv+0x138>
    2202:	2301      	movs	r3, #1
    2204:	1a59      	subs	r1, r3, r1
    2206:	291b      	cmp	r1, #27
    2208:	dd66      	ble.n	22d8 <__aeabi_fdiv+0x238>
    220a:	9a01      	ldr	r2, [sp, #4]
    220c:	4013      	ands	r3, r2
    220e:	2100      	movs	r1, #0
    2210:	2400      	movs	r4, #0
    2212:	e7e1      	b.n	21d8 <__aeabi_fdiv+0x138>
    2214:	2380      	movs	r3, #128	; 0x80
    2216:	03db      	lsls	r3, r3, #15
    2218:	421c      	tst	r4, r3
    221a:	d038      	beq.n	228e <__aeabi_fdiv+0x1ee>
    221c:	421d      	tst	r5, r3
    221e:	d051      	beq.n	22c4 <__aeabi_fdiv+0x224>
    2220:	431c      	orrs	r4, r3
    2222:	0264      	lsls	r4, r4, #9
    2224:	0a64      	lsrs	r4, r4, #9
    2226:	0033      	movs	r3, r6
    2228:	21ff      	movs	r1, #255	; 0xff
    222a:	e7d5      	b.n	21d8 <__aeabi_fdiv+0x138>
    222c:	0163      	lsls	r3, r4, #5
    222e:	016c      	lsls	r4, r5, #5
    2230:	42a3      	cmp	r3, r4
    2232:	d23b      	bcs.n	22ac <__aeabi_fdiv+0x20c>
    2234:	261b      	movs	r6, #27
    2236:	2100      	movs	r1, #0
    2238:	3801      	subs	r0, #1
    223a:	2501      	movs	r5, #1
    223c:	001f      	movs	r7, r3
    223e:	0049      	lsls	r1, r1, #1
    2240:	005b      	lsls	r3, r3, #1
    2242:	2f00      	cmp	r7, #0
    2244:	db01      	blt.n	224a <__aeabi_fdiv+0x1aa>
    2246:	429c      	cmp	r4, r3
    2248:	d801      	bhi.n	224e <__aeabi_fdiv+0x1ae>
    224a:	1b1b      	subs	r3, r3, r4
    224c:	4329      	orrs	r1, r5
    224e:	3e01      	subs	r6, #1
    2250:	2e00      	cmp	r6, #0
    2252:	d1f3      	bne.n	223c <__aeabi_fdiv+0x19c>
    2254:	001c      	movs	r4, r3
    2256:	1e63      	subs	r3, r4, #1
    2258:	419c      	sbcs	r4, r3
    225a:	430c      	orrs	r4, r1
    225c:	0001      	movs	r1, r0
    225e:	317f      	adds	r1, #127	; 0x7f
    2260:	2900      	cmp	r1, #0
    2262:	ddce      	ble.n	2202 <__aeabi_fdiv+0x162>
    2264:	0763      	lsls	r3, r4, #29
    2266:	d004      	beq.n	2272 <__aeabi_fdiv+0x1d2>
    2268:	230f      	movs	r3, #15
    226a:	4023      	ands	r3, r4
    226c:	2b04      	cmp	r3, #4
    226e:	d000      	beq.n	2272 <__aeabi_fdiv+0x1d2>
    2270:	3404      	adds	r4, #4
    2272:	0123      	lsls	r3, r4, #4
    2274:	d503      	bpl.n	227e <__aeabi_fdiv+0x1de>
    2276:	0001      	movs	r1, r0
    2278:	4b2c      	ldr	r3, [pc, #176]	; (232c <__aeabi_fdiv+0x28c>)
    227a:	3180      	adds	r1, #128	; 0x80
    227c:	401c      	ands	r4, r3
    227e:	29fe      	cmp	r1, #254	; 0xfe
    2280:	dd0d      	ble.n	229e <__aeabi_fdiv+0x1fe>
    2282:	2301      	movs	r3, #1
    2284:	9a01      	ldr	r2, [sp, #4]
    2286:	21ff      	movs	r1, #255	; 0xff
    2288:	4013      	ands	r3, r2
    228a:	2400      	movs	r4, #0
    228c:	e7a4      	b.n	21d8 <__aeabi_fdiv+0x138>
    228e:	2380      	movs	r3, #128	; 0x80
    2290:	03db      	lsls	r3, r3, #15
    2292:	431c      	orrs	r4, r3
    2294:	0264      	lsls	r4, r4, #9
    2296:	0a64      	lsrs	r4, r4, #9
    2298:	0033      	movs	r3, r6
    229a:	21ff      	movs	r1, #255	; 0xff
    229c:	e79c      	b.n	21d8 <__aeabi_fdiv+0x138>
    229e:	2301      	movs	r3, #1
    22a0:	9a01      	ldr	r2, [sp, #4]
    22a2:	01a4      	lsls	r4, r4, #6
    22a4:	0a64      	lsrs	r4, r4, #9
    22a6:	b2c9      	uxtb	r1, r1
    22a8:	4013      	ands	r3, r2
    22aa:	e795      	b.n	21d8 <__aeabi_fdiv+0x138>
    22ac:	1b1b      	subs	r3, r3, r4
    22ae:	261a      	movs	r6, #26
    22b0:	2101      	movs	r1, #1
    22b2:	e7c2      	b.n	223a <__aeabi_fdiv+0x19a>
    22b4:	9b00      	ldr	r3, [sp, #0]
    22b6:	468b      	mov	fp, r1
    22b8:	469a      	mov	sl, r3
    22ba:	2400      	movs	r4, #0
    22bc:	e74c      	b.n	2158 <__aeabi_fdiv+0xb8>
    22be:	0263      	lsls	r3, r4, #9
    22c0:	d5e5      	bpl.n	228e <__aeabi_fdiv+0x1ee>
    22c2:	2500      	movs	r5, #0
    22c4:	2480      	movs	r4, #128	; 0x80
    22c6:	03e4      	lsls	r4, r4, #15
    22c8:	432c      	orrs	r4, r5
    22ca:	0264      	lsls	r4, r4, #9
    22cc:	0a64      	lsrs	r4, r4, #9
    22ce:	9b00      	ldr	r3, [sp, #0]
    22d0:	21ff      	movs	r1, #255	; 0xff
    22d2:	e781      	b.n	21d8 <__aeabi_fdiv+0x138>
    22d4:	9501      	str	r5, [sp, #4]
    22d6:	e7c1      	b.n	225c <__aeabi_fdiv+0x1bc>
    22d8:	0023      	movs	r3, r4
    22da:	2020      	movs	r0, #32
    22dc:	40cb      	lsrs	r3, r1
    22de:	1a41      	subs	r1, r0, r1
    22e0:	408c      	lsls	r4, r1
    22e2:	1e61      	subs	r1, r4, #1
    22e4:	418c      	sbcs	r4, r1
    22e6:	431c      	orrs	r4, r3
    22e8:	0763      	lsls	r3, r4, #29
    22ea:	d004      	beq.n	22f6 <__aeabi_fdiv+0x256>
    22ec:	230f      	movs	r3, #15
    22ee:	4023      	ands	r3, r4
    22f0:	2b04      	cmp	r3, #4
    22f2:	d000      	beq.n	22f6 <__aeabi_fdiv+0x256>
    22f4:	3404      	adds	r4, #4
    22f6:	0163      	lsls	r3, r4, #5
    22f8:	d505      	bpl.n	2306 <__aeabi_fdiv+0x266>
    22fa:	2301      	movs	r3, #1
    22fc:	9a01      	ldr	r2, [sp, #4]
    22fe:	2101      	movs	r1, #1
    2300:	4013      	ands	r3, r2
    2302:	2400      	movs	r4, #0
    2304:	e768      	b.n	21d8 <__aeabi_fdiv+0x138>
    2306:	2301      	movs	r3, #1
    2308:	9a01      	ldr	r2, [sp, #4]
    230a:	01a4      	lsls	r4, r4, #6
    230c:	0a64      	lsrs	r4, r4, #9
    230e:	4013      	ands	r3, r2
    2310:	2100      	movs	r1, #0
    2312:	e761      	b.n	21d8 <__aeabi_fdiv+0x138>
    2314:	2380      	movs	r3, #128	; 0x80
    2316:	03db      	lsls	r3, r3, #15
    2318:	431c      	orrs	r4, r3
    231a:	0264      	lsls	r4, r4, #9
    231c:	0a64      	lsrs	r4, r4, #9
    231e:	4653      	mov	r3, sl
    2320:	21ff      	movs	r1, #255	; 0xff
    2322:	e759      	b.n	21d8 <__aeabi_fdiv+0x138>
    2324:	00008e34 	.word	0x00008e34
    2328:	00008e74 	.word	0x00008e74
    232c:	f7ffffff 	.word	0xf7ffffff

00002330 <__eqsf2>:
    2330:	b570      	push	{r4, r5, r6, lr}
    2332:	0042      	lsls	r2, r0, #1
    2334:	0245      	lsls	r5, r0, #9
    2336:	024e      	lsls	r6, r1, #9
    2338:	004c      	lsls	r4, r1, #1
    233a:	0fc3      	lsrs	r3, r0, #31
    233c:	0a6d      	lsrs	r5, r5, #9
    233e:	0e12      	lsrs	r2, r2, #24
    2340:	0a76      	lsrs	r6, r6, #9
    2342:	0e24      	lsrs	r4, r4, #24
    2344:	0fc9      	lsrs	r1, r1, #31
    2346:	2001      	movs	r0, #1
    2348:	2aff      	cmp	r2, #255	; 0xff
    234a:	d006      	beq.n	235a <__eqsf2+0x2a>
    234c:	2cff      	cmp	r4, #255	; 0xff
    234e:	d003      	beq.n	2358 <__eqsf2+0x28>
    2350:	42a2      	cmp	r2, r4
    2352:	d101      	bne.n	2358 <__eqsf2+0x28>
    2354:	42b5      	cmp	r5, r6
    2356:	d006      	beq.n	2366 <__eqsf2+0x36>
    2358:	bd70      	pop	{r4, r5, r6, pc}
    235a:	2d00      	cmp	r5, #0
    235c:	d1fc      	bne.n	2358 <__eqsf2+0x28>
    235e:	2cff      	cmp	r4, #255	; 0xff
    2360:	d1fa      	bne.n	2358 <__eqsf2+0x28>
    2362:	2e00      	cmp	r6, #0
    2364:	d1f8      	bne.n	2358 <__eqsf2+0x28>
    2366:	428b      	cmp	r3, r1
    2368:	d006      	beq.n	2378 <__eqsf2+0x48>
    236a:	2001      	movs	r0, #1
    236c:	2a00      	cmp	r2, #0
    236e:	d1f3      	bne.n	2358 <__eqsf2+0x28>
    2370:	0028      	movs	r0, r5
    2372:	1e45      	subs	r5, r0, #1
    2374:	41a8      	sbcs	r0, r5
    2376:	e7ef      	b.n	2358 <__eqsf2+0x28>
    2378:	2000      	movs	r0, #0
    237a:	e7ed      	b.n	2358 <__eqsf2+0x28>

0000237c <__gesf2>:
    237c:	b5f0      	push	{r4, r5, r6, r7, lr}
    237e:	0042      	lsls	r2, r0, #1
    2380:	0245      	lsls	r5, r0, #9
    2382:	024c      	lsls	r4, r1, #9
    2384:	0fc3      	lsrs	r3, r0, #31
    2386:	0048      	lsls	r0, r1, #1
    2388:	0a6d      	lsrs	r5, r5, #9
    238a:	0e12      	lsrs	r2, r2, #24
    238c:	0a64      	lsrs	r4, r4, #9
    238e:	0e00      	lsrs	r0, r0, #24
    2390:	0fc9      	lsrs	r1, r1, #31
    2392:	2aff      	cmp	r2, #255	; 0xff
    2394:	d01e      	beq.n	23d4 <__gesf2+0x58>
    2396:	28ff      	cmp	r0, #255	; 0xff
    2398:	d021      	beq.n	23de <__gesf2+0x62>
    239a:	2a00      	cmp	r2, #0
    239c:	d10a      	bne.n	23b4 <__gesf2+0x38>
    239e:	426e      	negs	r6, r5
    23a0:	416e      	adcs	r6, r5
    23a2:	b2f6      	uxtb	r6, r6
    23a4:	2800      	cmp	r0, #0
    23a6:	d10f      	bne.n	23c8 <__gesf2+0x4c>
    23a8:	2c00      	cmp	r4, #0
    23aa:	d10d      	bne.n	23c8 <__gesf2+0x4c>
    23ac:	2000      	movs	r0, #0
    23ae:	2d00      	cmp	r5, #0
    23b0:	d009      	beq.n	23c6 <__gesf2+0x4a>
    23b2:	e005      	b.n	23c0 <__gesf2+0x44>
    23b4:	2800      	cmp	r0, #0
    23b6:	d101      	bne.n	23bc <__gesf2+0x40>
    23b8:	2c00      	cmp	r4, #0
    23ba:	d001      	beq.n	23c0 <__gesf2+0x44>
    23bc:	428b      	cmp	r3, r1
    23be:	d011      	beq.n	23e4 <__gesf2+0x68>
    23c0:	2101      	movs	r1, #1
    23c2:	4258      	negs	r0, r3
    23c4:	4308      	orrs	r0, r1
    23c6:	bdf0      	pop	{r4, r5, r6, r7, pc}
    23c8:	2e00      	cmp	r6, #0
    23ca:	d0f7      	beq.n	23bc <__gesf2+0x40>
    23cc:	2001      	movs	r0, #1
    23ce:	3901      	subs	r1, #1
    23d0:	4308      	orrs	r0, r1
    23d2:	e7f8      	b.n	23c6 <__gesf2+0x4a>
    23d4:	2d00      	cmp	r5, #0
    23d6:	d0de      	beq.n	2396 <__gesf2+0x1a>
    23d8:	2002      	movs	r0, #2
    23da:	4240      	negs	r0, r0
    23dc:	e7f3      	b.n	23c6 <__gesf2+0x4a>
    23de:	2c00      	cmp	r4, #0
    23e0:	d0db      	beq.n	239a <__gesf2+0x1e>
    23e2:	e7f9      	b.n	23d8 <__gesf2+0x5c>
    23e4:	4282      	cmp	r2, r0
    23e6:	dceb      	bgt.n	23c0 <__gesf2+0x44>
    23e8:	db04      	blt.n	23f4 <__gesf2+0x78>
    23ea:	42a5      	cmp	r5, r4
    23ec:	d8e8      	bhi.n	23c0 <__gesf2+0x44>
    23ee:	2000      	movs	r0, #0
    23f0:	42a5      	cmp	r5, r4
    23f2:	d2e8      	bcs.n	23c6 <__gesf2+0x4a>
    23f4:	2101      	movs	r1, #1
    23f6:	1e58      	subs	r0, r3, #1
    23f8:	4308      	orrs	r0, r1
    23fa:	e7e4      	b.n	23c6 <__gesf2+0x4a>

000023fc <__lesf2>:
    23fc:	b5f0      	push	{r4, r5, r6, r7, lr}
    23fe:	0042      	lsls	r2, r0, #1
    2400:	024d      	lsls	r5, r1, #9
    2402:	004c      	lsls	r4, r1, #1
    2404:	0246      	lsls	r6, r0, #9
    2406:	0a76      	lsrs	r6, r6, #9
    2408:	0e12      	lsrs	r2, r2, #24
    240a:	0fc3      	lsrs	r3, r0, #31
    240c:	0a6d      	lsrs	r5, r5, #9
    240e:	0e24      	lsrs	r4, r4, #24
    2410:	0fc9      	lsrs	r1, r1, #31
    2412:	2aff      	cmp	r2, #255	; 0xff
    2414:	d016      	beq.n	2444 <__lesf2+0x48>
    2416:	2cff      	cmp	r4, #255	; 0xff
    2418:	d018      	beq.n	244c <__lesf2+0x50>
    241a:	2a00      	cmp	r2, #0
    241c:	d10a      	bne.n	2434 <__lesf2+0x38>
    241e:	4270      	negs	r0, r6
    2420:	4170      	adcs	r0, r6
    2422:	b2c0      	uxtb	r0, r0
    2424:	2c00      	cmp	r4, #0
    2426:	d015      	beq.n	2454 <__lesf2+0x58>
    2428:	2800      	cmp	r0, #0
    242a:	d005      	beq.n	2438 <__lesf2+0x3c>
    242c:	2001      	movs	r0, #1
    242e:	3901      	subs	r1, #1
    2430:	4308      	orrs	r0, r1
    2432:	bdf0      	pop	{r4, r5, r6, r7, pc}
    2434:	2c00      	cmp	r4, #0
    2436:	d013      	beq.n	2460 <__lesf2+0x64>
    2438:	4299      	cmp	r1, r3
    243a:	d014      	beq.n	2466 <__lesf2+0x6a>
    243c:	2001      	movs	r0, #1
    243e:	425b      	negs	r3, r3
    2440:	4318      	orrs	r0, r3
    2442:	e7f6      	b.n	2432 <__lesf2+0x36>
    2444:	2002      	movs	r0, #2
    2446:	2e00      	cmp	r6, #0
    2448:	d1f3      	bne.n	2432 <__lesf2+0x36>
    244a:	e7e4      	b.n	2416 <__lesf2+0x1a>
    244c:	2002      	movs	r0, #2
    244e:	2d00      	cmp	r5, #0
    2450:	d1ef      	bne.n	2432 <__lesf2+0x36>
    2452:	e7e2      	b.n	241a <__lesf2+0x1e>
    2454:	2d00      	cmp	r5, #0
    2456:	d1e7      	bne.n	2428 <__lesf2+0x2c>
    2458:	2000      	movs	r0, #0
    245a:	2e00      	cmp	r6, #0
    245c:	d0e9      	beq.n	2432 <__lesf2+0x36>
    245e:	e7ed      	b.n	243c <__lesf2+0x40>
    2460:	2d00      	cmp	r5, #0
    2462:	d1e9      	bne.n	2438 <__lesf2+0x3c>
    2464:	e7ea      	b.n	243c <__lesf2+0x40>
    2466:	42a2      	cmp	r2, r4
    2468:	dc06      	bgt.n	2478 <__lesf2+0x7c>
    246a:	dbdf      	blt.n	242c <__lesf2+0x30>
    246c:	42ae      	cmp	r6, r5
    246e:	d803      	bhi.n	2478 <__lesf2+0x7c>
    2470:	2000      	movs	r0, #0
    2472:	42ae      	cmp	r6, r5
    2474:	d3da      	bcc.n	242c <__lesf2+0x30>
    2476:	e7dc      	b.n	2432 <__lesf2+0x36>
    2478:	2001      	movs	r0, #1
    247a:	4249      	negs	r1, r1
    247c:	4308      	orrs	r0, r1
    247e:	e7d8      	b.n	2432 <__lesf2+0x36>

00002480 <__aeabi_fmul>:
    2480:	b5f8      	push	{r3, r4, r5, r6, r7, lr}
    2482:	4657      	mov	r7, sl
    2484:	464e      	mov	r6, r9
    2486:	4645      	mov	r5, r8
    2488:	46de      	mov	lr, fp
    248a:	b5e0      	push	{r5, r6, r7, lr}
    248c:	0247      	lsls	r7, r0, #9
    248e:	0046      	lsls	r6, r0, #1
    2490:	4688      	mov	r8, r1
    2492:	0a7f      	lsrs	r7, r7, #9
    2494:	0e36      	lsrs	r6, r6, #24
    2496:	0fc4      	lsrs	r4, r0, #31
    2498:	2e00      	cmp	r6, #0
    249a:	d047      	beq.n	252c <__aeabi_fmul+0xac>
    249c:	2eff      	cmp	r6, #255	; 0xff
    249e:	d024      	beq.n	24ea <__aeabi_fmul+0x6a>
    24a0:	00fb      	lsls	r3, r7, #3
    24a2:	2780      	movs	r7, #128	; 0x80
    24a4:	04ff      	lsls	r7, r7, #19
    24a6:	431f      	orrs	r7, r3
    24a8:	2300      	movs	r3, #0
    24aa:	4699      	mov	r9, r3
    24ac:	469a      	mov	sl, r3
    24ae:	3e7f      	subs	r6, #127	; 0x7f
    24b0:	4643      	mov	r3, r8
    24b2:	025d      	lsls	r5, r3, #9
    24b4:	0058      	lsls	r0, r3, #1
    24b6:	0fdb      	lsrs	r3, r3, #31
    24b8:	0a6d      	lsrs	r5, r5, #9
    24ba:	0e00      	lsrs	r0, r0, #24
    24bc:	4698      	mov	r8, r3
    24be:	d043      	beq.n	2548 <__aeabi_fmul+0xc8>
    24c0:	28ff      	cmp	r0, #255	; 0xff
    24c2:	d03b      	beq.n	253c <__aeabi_fmul+0xbc>
    24c4:	00eb      	lsls	r3, r5, #3
    24c6:	2580      	movs	r5, #128	; 0x80
    24c8:	2200      	movs	r2, #0
    24ca:	04ed      	lsls	r5, r5, #19
    24cc:	431d      	orrs	r5, r3
    24ce:	387f      	subs	r0, #127	; 0x7f
    24d0:	1836      	adds	r6, r6, r0
    24d2:	1c73      	adds	r3, r6, #1
    24d4:	4641      	mov	r1, r8
    24d6:	469b      	mov	fp, r3
    24d8:	464b      	mov	r3, r9
    24da:	4061      	eors	r1, r4
    24dc:	4313      	orrs	r3, r2
    24de:	2b0f      	cmp	r3, #15
    24e0:	d864      	bhi.n	25ac <__aeabi_fmul+0x12c>
    24e2:	4875      	ldr	r0, [pc, #468]	; (26b8 <__aeabi_fmul+0x238>)
    24e4:	009b      	lsls	r3, r3, #2
    24e6:	58c3      	ldr	r3, [r0, r3]
    24e8:	469f      	mov	pc, r3
    24ea:	2f00      	cmp	r7, #0
    24ec:	d142      	bne.n	2574 <__aeabi_fmul+0xf4>
    24ee:	2308      	movs	r3, #8
    24f0:	4699      	mov	r9, r3
    24f2:	3b06      	subs	r3, #6
    24f4:	26ff      	movs	r6, #255	; 0xff
    24f6:	469a      	mov	sl, r3
    24f8:	e7da      	b.n	24b0 <__aeabi_fmul+0x30>
    24fa:	4641      	mov	r1, r8
    24fc:	2a02      	cmp	r2, #2
    24fe:	d028      	beq.n	2552 <__aeabi_fmul+0xd2>
    2500:	2a03      	cmp	r2, #3
    2502:	d100      	bne.n	2506 <__aeabi_fmul+0x86>
    2504:	e0ce      	b.n	26a4 <__aeabi_fmul+0x224>
    2506:	2a01      	cmp	r2, #1
    2508:	d000      	beq.n	250c <__aeabi_fmul+0x8c>
    250a:	e0ac      	b.n	2666 <__aeabi_fmul+0x1e6>
    250c:	4011      	ands	r1, r2
    250e:	2000      	movs	r0, #0
    2510:	2200      	movs	r2, #0
    2512:	b2cc      	uxtb	r4, r1
    2514:	0240      	lsls	r0, r0, #9
    2516:	05d2      	lsls	r2, r2, #23
    2518:	0a40      	lsrs	r0, r0, #9
    251a:	07e4      	lsls	r4, r4, #31
    251c:	4310      	orrs	r0, r2
    251e:	4320      	orrs	r0, r4
    2520:	bc3c      	pop	{r2, r3, r4, r5}
    2522:	4690      	mov	r8, r2
    2524:	4699      	mov	r9, r3
    2526:	46a2      	mov	sl, r4
    2528:	46ab      	mov	fp, r5
    252a:	bdf8      	pop	{r3, r4, r5, r6, r7, pc}
    252c:	2f00      	cmp	r7, #0
    252e:	d115      	bne.n	255c <__aeabi_fmul+0xdc>
    2530:	2304      	movs	r3, #4
    2532:	4699      	mov	r9, r3
    2534:	3b03      	subs	r3, #3
    2536:	2600      	movs	r6, #0
    2538:	469a      	mov	sl, r3
    253a:	e7b9      	b.n	24b0 <__aeabi_fmul+0x30>
    253c:	20ff      	movs	r0, #255	; 0xff
    253e:	2202      	movs	r2, #2
    2540:	2d00      	cmp	r5, #0
    2542:	d0c5      	beq.n	24d0 <__aeabi_fmul+0x50>
    2544:	2203      	movs	r2, #3
    2546:	e7c3      	b.n	24d0 <__aeabi_fmul+0x50>
    2548:	2d00      	cmp	r5, #0
    254a:	d119      	bne.n	2580 <__aeabi_fmul+0x100>
    254c:	2000      	movs	r0, #0
    254e:	2201      	movs	r2, #1
    2550:	e7be      	b.n	24d0 <__aeabi_fmul+0x50>
    2552:	2401      	movs	r4, #1
    2554:	22ff      	movs	r2, #255	; 0xff
    2556:	400c      	ands	r4, r1
    2558:	2000      	movs	r0, #0
    255a:	e7db      	b.n	2514 <__aeabi_fmul+0x94>
    255c:	0038      	movs	r0, r7
    255e:	f000 fb0d 	bl	2b7c <__clzsi2>
    2562:	2676      	movs	r6, #118	; 0x76
    2564:	1f43      	subs	r3, r0, #5
    2566:	409f      	lsls	r7, r3
    2568:	2300      	movs	r3, #0
    256a:	4276      	negs	r6, r6
    256c:	1a36      	subs	r6, r6, r0
    256e:	4699      	mov	r9, r3
    2570:	469a      	mov	sl, r3
    2572:	e79d      	b.n	24b0 <__aeabi_fmul+0x30>
    2574:	230c      	movs	r3, #12
    2576:	4699      	mov	r9, r3
    2578:	3b09      	subs	r3, #9
    257a:	26ff      	movs	r6, #255	; 0xff
    257c:	469a      	mov	sl, r3
    257e:	e797      	b.n	24b0 <__aeabi_fmul+0x30>
    2580:	0028      	movs	r0, r5
    2582:	f000 fafb 	bl	2b7c <__clzsi2>
    2586:	1f43      	subs	r3, r0, #5
    2588:	409d      	lsls	r5, r3
    258a:	2376      	movs	r3, #118	; 0x76
    258c:	425b      	negs	r3, r3
    258e:	1a18      	subs	r0, r3, r0
    2590:	2200      	movs	r2, #0
    2592:	e79d      	b.n	24d0 <__aeabi_fmul+0x50>
    2594:	2080      	movs	r0, #128	; 0x80
    2596:	2400      	movs	r4, #0
    2598:	03c0      	lsls	r0, r0, #15
    259a:	22ff      	movs	r2, #255	; 0xff
    259c:	e7ba      	b.n	2514 <__aeabi_fmul+0x94>
    259e:	003d      	movs	r5, r7
    25a0:	4652      	mov	r2, sl
    25a2:	e7ab      	b.n	24fc <__aeabi_fmul+0x7c>
    25a4:	003d      	movs	r5, r7
    25a6:	0021      	movs	r1, r4
    25a8:	4652      	mov	r2, sl
    25aa:	e7a7      	b.n	24fc <__aeabi_fmul+0x7c>
    25ac:	0c3b      	lsrs	r3, r7, #16
    25ae:	469c      	mov	ip, r3
    25b0:	042a      	lsls	r2, r5, #16
    25b2:	0c12      	lsrs	r2, r2, #16
    25b4:	0c2b      	lsrs	r3, r5, #16
    25b6:	0014      	movs	r4, r2
    25b8:	4660      	mov	r0, ip
    25ba:	4665      	mov	r5, ip
    25bc:	043f      	lsls	r7, r7, #16
    25be:	0c3f      	lsrs	r7, r7, #16
    25c0:	437c      	muls	r4, r7
    25c2:	4342      	muls	r2, r0
    25c4:	435d      	muls	r5, r3
    25c6:	437b      	muls	r3, r7
    25c8:	0c27      	lsrs	r7, r4, #16
    25ca:	189b      	adds	r3, r3, r2
    25cc:	18ff      	adds	r7, r7, r3
    25ce:	42ba      	cmp	r2, r7
    25d0:	d903      	bls.n	25da <__aeabi_fmul+0x15a>
    25d2:	2380      	movs	r3, #128	; 0x80
    25d4:	025b      	lsls	r3, r3, #9
    25d6:	469c      	mov	ip, r3
    25d8:	4465      	add	r5, ip
    25da:	0424      	lsls	r4, r4, #16
    25dc:	043a      	lsls	r2, r7, #16
    25de:	0c24      	lsrs	r4, r4, #16
    25e0:	1912      	adds	r2, r2, r4
    25e2:	0193      	lsls	r3, r2, #6
    25e4:	1e5c      	subs	r4, r3, #1
    25e6:	41a3      	sbcs	r3, r4
    25e8:	0c3f      	lsrs	r7, r7, #16
    25ea:	0e92      	lsrs	r2, r2, #26
    25ec:	197d      	adds	r5, r7, r5
    25ee:	431a      	orrs	r2, r3
    25f0:	01ad      	lsls	r5, r5, #6
    25f2:	4315      	orrs	r5, r2
    25f4:	012b      	lsls	r3, r5, #4
    25f6:	d504      	bpl.n	2602 <__aeabi_fmul+0x182>
    25f8:	2301      	movs	r3, #1
    25fa:	465e      	mov	r6, fp
    25fc:	086a      	lsrs	r2, r5, #1
    25fe:	401d      	ands	r5, r3
    2600:	4315      	orrs	r5, r2
    2602:	0032      	movs	r2, r6
    2604:	327f      	adds	r2, #127	; 0x7f
    2606:	2a00      	cmp	r2, #0
    2608:	dd25      	ble.n	2656 <__aeabi_fmul+0x1d6>
    260a:	076b      	lsls	r3, r5, #29
    260c:	d004      	beq.n	2618 <__aeabi_fmul+0x198>
    260e:	230f      	movs	r3, #15
    2610:	402b      	ands	r3, r5
    2612:	2b04      	cmp	r3, #4
    2614:	d000      	beq.n	2618 <__aeabi_fmul+0x198>
    2616:	3504      	adds	r5, #4
    2618:	012b      	lsls	r3, r5, #4
    261a:	d503      	bpl.n	2624 <__aeabi_fmul+0x1a4>
    261c:	0032      	movs	r2, r6
    261e:	4b27      	ldr	r3, [pc, #156]	; (26bc <__aeabi_fmul+0x23c>)
    2620:	3280      	adds	r2, #128	; 0x80
    2622:	401d      	ands	r5, r3
    2624:	2afe      	cmp	r2, #254	; 0xfe
    2626:	dc94      	bgt.n	2552 <__aeabi_fmul+0xd2>
    2628:	2401      	movs	r4, #1
    262a:	01a8      	lsls	r0, r5, #6
    262c:	0a40      	lsrs	r0, r0, #9
    262e:	b2d2      	uxtb	r2, r2
    2630:	400c      	ands	r4, r1
    2632:	e76f      	b.n	2514 <__aeabi_fmul+0x94>
    2634:	2080      	movs	r0, #128	; 0x80
    2636:	03c0      	lsls	r0, r0, #15
    2638:	4207      	tst	r7, r0
    263a:	d007      	beq.n	264c <__aeabi_fmul+0x1cc>
    263c:	4205      	tst	r5, r0
    263e:	d105      	bne.n	264c <__aeabi_fmul+0x1cc>
    2640:	4328      	orrs	r0, r5
    2642:	0240      	lsls	r0, r0, #9
    2644:	0a40      	lsrs	r0, r0, #9
    2646:	4644      	mov	r4, r8
    2648:	22ff      	movs	r2, #255	; 0xff
    264a:	e763      	b.n	2514 <__aeabi_fmul+0x94>
    264c:	4338      	orrs	r0, r7
    264e:	0240      	lsls	r0, r0, #9
    2650:	0a40      	lsrs	r0, r0, #9
    2652:	22ff      	movs	r2, #255	; 0xff
    2654:	e75e      	b.n	2514 <__aeabi_fmul+0x94>
    2656:	2401      	movs	r4, #1
    2658:	1aa3      	subs	r3, r4, r2
    265a:	2b1b      	cmp	r3, #27
    265c:	dd05      	ble.n	266a <__aeabi_fmul+0x1ea>
    265e:	400c      	ands	r4, r1
    2660:	2200      	movs	r2, #0
    2662:	2000      	movs	r0, #0
    2664:	e756      	b.n	2514 <__aeabi_fmul+0x94>
    2666:	465e      	mov	r6, fp
    2668:	e7cb      	b.n	2602 <__aeabi_fmul+0x182>
    266a:	002a      	movs	r2, r5
    266c:	2020      	movs	r0, #32
    266e:	40da      	lsrs	r2, r3
    2670:	1ac3      	subs	r3, r0, r3
    2672:	409d      	lsls	r5, r3
    2674:	002b      	movs	r3, r5
    2676:	1e5d      	subs	r5, r3, #1
    2678:	41ab      	sbcs	r3, r5
    267a:	4313      	orrs	r3, r2
    267c:	075a      	lsls	r2, r3, #29
    267e:	d004      	beq.n	268a <__aeabi_fmul+0x20a>
    2680:	220f      	movs	r2, #15
    2682:	401a      	ands	r2, r3
    2684:	2a04      	cmp	r2, #4
    2686:	d000      	beq.n	268a <__aeabi_fmul+0x20a>
    2688:	3304      	adds	r3, #4
    268a:	015a      	lsls	r2, r3, #5
    268c:	d504      	bpl.n	2698 <__aeabi_fmul+0x218>
    268e:	2401      	movs	r4, #1
    2690:	2201      	movs	r2, #1
    2692:	400c      	ands	r4, r1
    2694:	2000      	movs	r0, #0
    2696:	e73d      	b.n	2514 <__aeabi_fmul+0x94>
    2698:	2401      	movs	r4, #1
    269a:	019b      	lsls	r3, r3, #6
    269c:	0a58      	lsrs	r0, r3, #9
    269e:	400c      	ands	r4, r1
    26a0:	2200      	movs	r2, #0
    26a2:	e737      	b.n	2514 <__aeabi_fmul+0x94>
    26a4:	2080      	movs	r0, #128	; 0x80
    26a6:	2401      	movs	r4, #1
    26a8:	03c0      	lsls	r0, r0, #15
    26aa:	4328      	orrs	r0, r5
    26ac:	0240      	lsls	r0, r0, #9
    26ae:	0a40      	lsrs	r0, r0, #9
    26b0:	400c      	ands	r4, r1
    26b2:	22ff      	movs	r2, #255	; 0xff
    26b4:	e72e      	b.n	2514 <__aeabi_fmul+0x94>
    26b6:	46c0      	nop			; (mov r8, r8)
    26b8:	00008eb4 	.word	0x00008eb4
    26bc:	f7ffffff 	.word	0xf7ffffff

000026c0 <__aeabi_fsub>:
    26c0:	b5f0      	push	{r4, r5, r6, r7, lr}
    26c2:	464f      	mov	r7, r9
    26c4:	46d6      	mov	lr, sl
    26c6:	4646      	mov	r6, r8
    26c8:	0044      	lsls	r4, r0, #1
    26ca:	b5c0      	push	{r6, r7, lr}
    26cc:	0fc2      	lsrs	r2, r0, #31
    26ce:	0247      	lsls	r7, r0, #9
    26d0:	0248      	lsls	r0, r1, #9
    26d2:	0a40      	lsrs	r0, r0, #9
    26d4:	4684      	mov	ip, r0
    26d6:	4666      	mov	r6, ip
    26d8:	0a7b      	lsrs	r3, r7, #9
    26da:	0048      	lsls	r0, r1, #1
    26dc:	0fc9      	lsrs	r1, r1, #31
    26de:	469a      	mov	sl, r3
    26e0:	0e24      	lsrs	r4, r4, #24
    26e2:	0015      	movs	r5, r2
    26e4:	00db      	lsls	r3, r3, #3
    26e6:	0e00      	lsrs	r0, r0, #24
    26e8:	4689      	mov	r9, r1
    26ea:	00f6      	lsls	r6, r6, #3
    26ec:	28ff      	cmp	r0, #255	; 0xff
    26ee:	d100      	bne.n	26f2 <__aeabi_fsub+0x32>
    26f0:	e08f      	b.n	2812 <__aeabi_fsub+0x152>
    26f2:	2101      	movs	r1, #1
    26f4:	464f      	mov	r7, r9
    26f6:	404f      	eors	r7, r1
    26f8:	0039      	movs	r1, r7
    26fa:	4291      	cmp	r1, r2
    26fc:	d066      	beq.n	27cc <__aeabi_fsub+0x10c>
    26fe:	1a22      	subs	r2, r4, r0
    2700:	2a00      	cmp	r2, #0
    2702:	dc00      	bgt.n	2706 <__aeabi_fsub+0x46>
    2704:	e09d      	b.n	2842 <__aeabi_fsub+0x182>
    2706:	2800      	cmp	r0, #0
    2708:	d13d      	bne.n	2786 <__aeabi_fsub+0xc6>
    270a:	2e00      	cmp	r6, #0
    270c:	d100      	bne.n	2710 <__aeabi_fsub+0x50>
    270e:	e08b      	b.n	2828 <__aeabi_fsub+0x168>
    2710:	1e51      	subs	r1, r2, #1
    2712:	2900      	cmp	r1, #0
    2714:	d000      	beq.n	2718 <__aeabi_fsub+0x58>
    2716:	e0b5      	b.n	2884 <__aeabi_fsub+0x1c4>
    2718:	2401      	movs	r4, #1
    271a:	1b9b      	subs	r3, r3, r6
    271c:	015a      	lsls	r2, r3, #5
    271e:	d544      	bpl.n	27aa <__aeabi_fsub+0xea>
    2720:	019b      	lsls	r3, r3, #6
    2722:	099f      	lsrs	r7, r3, #6
    2724:	0038      	movs	r0, r7
    2726:	f000 fa29 	bl	2b7c <__clzsi2>
    272a:	3805      	subs	r0, #5
    272c:	4087      	lsls	r7, r0
    272e:	4284      	cmp	r4, r0
    2730:	dd00      	ble.n	2734 <__aeabi_fsub+0x74>
    2732:	e096      	b.n	2862 <__aeabi_fsub+0x1a2>
    2734:	1b04      	subs	r4, r0, r4
    2736:	003a      	movs	r2, r7
    2738:	2020      	movs	r0, #32
    273a:	3401      	adds	r4, #1
    273c:	40e2      	lsrs	r2, r4
    273e:	1b04      	subs	r4, r0, r4
    2740:	40a7      	lsls	r7, r4
    2742:	003b      	movs	r3, r7
    2744:	1e5f      	subs	r7, r3, #1
    2746:	41bb      	sbcs	r3, r7
    2748:	2400      	movs	r4, #0
    274a:	4313      	orrs	r3, r2
    274c:	075a      	lsls	r2, r3, #29
    274e:	d004      	beq.n	275a <__aeabi_fsub+0x9a>
    2750:	220f      	movs	r2, #15
    2752:	401a      	ands	r2, r3
    2754:	2a04      	cmp	r2, #4
    2756:	d000      	beq.n	275a <__aeabi_fsub+0x9a>
    2758:	3304      	adds	r3, #4
    275a:	015a      	lsls	r2, r3, #5
    275c:	d527      	bpl.n	27ae <__aeabi_fsub+0xee>
    275e:	3401      	adds	r4, #1
    2760:	2cff      	cmp	r4, #255	; 0xff
    2762:	d100      	bne.n	2766 <__aeabi_fsub+0xa6>
    2764:	e079      	b.n	285a <__aeabi_fsub+0x19a>
    2766:	2201      	movs	r2, #1
    2768:	019b      	lsls	r3, r3, #6
    276a:	0a5b      	lsrs	r3, r3, #9
    276c:	b2e4      	uxtb	r4, r4
    276e:	402a      	ands	r2, r5
    2770:	025b      	lsls	r3, r3, #9
    2772:	05e4      	lsls	r4, r4, #23
    2774:	0a58      	lsrs	r0, r3, #9
    2776:	07d2      	lsls	r2, r2, #31
    2778:	4320      	orrs	r0, r4
    277a:	4310      	orrs	r0, r2
    277c:	bc1c      	pop	{r2, r3, r4}
    277e:	4690      	mov	r8, r2
    2780:	4699      	mov	r9, r3
    2782:	46a2      	mov	sl, r4
    2784:	bdf0      	pop	{r4, r5, r6, r7, pc}
    2786:	2cff      	cmp	r4, #255	; 0xff
    2788:	d0e0      	beq.n	274c <__aeabi_fsub+0x8c>
    278a:	2180      	movs	r1, #128	; 0x80
    278c:	04c9      	lsls	r1, r1, #19
    278e:	430e      	orrs	r6, r1
    2790:	2a1b      	cmp	r2, #27
    2792:	dc7b      	bgt.n	288c <__aeabi_fsub+0x1cc>
    2794:	0031      	movs	r1, r6
    2796:	2020      	movs	r0, #32
    2798:	40d1      	lsrs	r1, r2
    279a:	1a82      	subs	r2, r0, r2
    279c:	4096      	lsls	r6, r2
    279e:	1e72      	subs	r2, r6, #1
    27a0:	4196      	sbcs	r6, r2
    27a2:	430e      	orrs	r6, r1
    27a4:	1b9b      	subs	r3, r3, r6
    27a6:	015a      	lsls	r2, r3, #5
    27a8:	d4ba      	bmi.n	2720 <__aeabi_fsub+0x60>
    27aa:	075a      	lsls	r2, r3, #29
    27ac:	d1d0      	bne.n	2750 <__aeabi_fsub+0x90>
    27ae:	2201      	movs	r2, #1
    27b0:	08df      	lsrs	r7, r3, #3
    27b2:	402a      	ands	r2, r5
    27b4:	2cff      	cmp	r4, #255	; 0xff
    27b6:	d133      	bne.n	2820 <__aeabi_fsub+0x160>
    27b8:	2f00      	cmp	r7, #0
    27ba:	d100      	bne.n	27be <__aeabi_fsub+0xfe>
    27bc:	e0a8      	b.n	2910 <__aeabi_fsub+0x250>
    27be:	2380      	movs	r3, #128	; 0x80
    27c0:	03db      	lsls	r3, r3, #15
    27c2:	433b      	orrs	r3, r7
    27c4:	025b      	lsls	r3, r3, #9
    27c6:	0a5b      	lsrs	r3, r3, #9
    27c8:	24ff      	movs	r4, #255	; 0xff
    27ca:	e7d1      	b.n	2770 <__aeabi_fsub+0xb0>
    27cc:	1a21      	subs	r1, r4, r0
    27ce:	2900      	cmp	r1, #0
    27d0:	dd4c      	ble.n	286c <__aeabi_fsub+0x1ac>
    27d2:	2800      	cmp	r0, #0
    27d4:	d02a      	beq.n	282c <__aeabi_fsub+0x16c>
    27d6:	2cff      	cmp	r4, #255	; 0xff
    27d8:	d0b8      	beq.n	274c <__aeabi_fsub+0x8c>
    27da:	2080      	movs	r0, #128	; 0x80
    27dc:	04c0      	lsls	r0, r0, #19
    27de:	4306      	orrs	r6, r0
    27e0:	291b      	cmp	r1, #27
    27e2:	dd00      	ble.n	27e6 <__aeabi_fsub+0x126>
    27e4:	e0af      	b.n	2946 <__aeabi_fsub+0x286>
    27e6:	0030      	movs	r0, r6
    27e8:	2720      	movs	r7, #32
    27ea:	40c8      	lsrs	r0, r1
    27ec:	1a79      	subs	r1, r7, r1
    27ee:	408e      	lsls	r6, r1
    27f0:	1e71      	subs	r1, r6, #1
    27f2:	418e      	sbcs	r6, r1
    27f4:	4306      	orrs	r6, r0
    27f6:	199b      	adds	r3, r3, r6
    27f8:	0159      	lsls	r1, r3, #5
    27fa:	d5d6      	bpl.n	27aa <__aeabi_fsub+0xea>
    27fc:	3401      	adds	r4, #1
    27fe:	2cff      	cmp	r4, #255	; 0xff
    2800:	d100      	bne.n	2804 <__aeabi_fsub+0x144>
    2802:	e085      	b.n	2910 <__aeabi_fsub+0x250>
    2804:	2201      	movs	r2, #1
    2806:	497a      	ldr	r1, [pc, #488]	; (29f0 <__aeabi_fsub+0x330>)
    2808:	401a      	ands	r2, r3
    280a:	085b      	lsrs	r3, r3, #1
    280c:	400b      	ands	r3, r1
    280e:	4313      	orrs	r3, r2
    2810:	e79c      	b.n	274c <__aeabi_fsub+0x8c>
    2812:	2e00      	cmp	r6, #0
    2814:	d000      	beq.n	2818 <__aeabi_fsub+0x158>
    2816:	e770      	b.n	26fa <__aeabi_fsub+0x3a>
    2818:	e76b      	b.n	26f2 <__aeabi_fsub+0x32>
    281a:	1e3b      	subs	r3, r7, #0
    281c:	d1c5      	bne.n	27aa <__aeabi_fsub+0xea>
    281e:	2200      	movs	r2, #0
    2820:	027b      	lsls	r3, r7, #9
    2822:	0a5b      	lsrs	r3, r3, #9
    2824:	b2e4      	uxtb	r4, r4
    2826:	e7a3      	b.n	2770 <__aeabi_fsub+0xb0>
    2828:	0014      	movs	r4, r2
    282a:	e78f      	b.n	274c <__aeabi_fsub+0x8c>
    282c:	2e00      	cmp	r6, #0
    282e:	d04d      	beq.n	28cc <__aeabi_fsub+0x20c>
    2830:	1e48      	subs	r0, r1, #1
    2832:	2800      	cmp	r0, #0
    2834:	d157      	bne.n	28e6 <__aeabi_fsub+0x226>
    2836:	199b      	adds	r3, r3, r6
    2838:	2401      	movs	r4, #1
    283a:	015a      	lsls	r2, r3, #5
    283c:	d5b5      	bpl.n	27aa <__aeabi_fsub+0xea>
    283e:	2402      	movs	r4, #2
    2840:	e7e0      	b.n	2804 <__aeabi_fsub+0x144>
    2842:	2a00      	cmp	r2, #0
    2844:	d125      	bne.n	2892 <__aeabi_fsub+0x1d2>
    2846:	1c62      	adds	r2, r4, #1
    2848:	b2d2      	uxtb	r2, r2
    284a:	2a01      	cmp	r2, #1
    284c:	dd72      	ble.n	2934 <__aeabi_fsub+0x274>
    284e:	1b9f      	subs	r7, r3, r6
    2850:	017a      	lsls	r2, r7, #5
    2852:	d535      	bpl.n	28c0 <__aeabi_fsub+0x200>
    2854:	1af7      	subs	r7, r6, r3
    2856:	000d      	movs	r5, r1
    2858:	e764      	b.n	2724 <__aeabi_fsub+0x64>
    285a:	2201      	movs	r2, #1
    285c:	2300      	movs	r3, #0
    285e:	402a      	ands	r2, r5
    2860:	e786      	b.n	2770 <__aeabi_fsub+0xb0>
    2862:	003b      	movs	r3, r7
    2864:	4a63      	ldr	r2, [pc, #396]	; (29f4 <__aeabi_fsub+0x334>)
    2866:	1a24      	subs	r4, r4, r0
    2868:	4013      	ands	r3, r2
    286a:	e76f      	b.n	274c <__aeabi_fsub+0x8c>
    286c:	2900      	cmp	r1, #0
    286e:	d16c      	bne.n	294a <__aeabi_fsub+0x28a>
    2870:	1c61      	adds	r1, r4, #1
    2872:	b2c8      	uxtb	r0, r1
    2874:	2801      	cmp	r0, #1
    2876:	dd4e      	ble.n	2916 <__aeabi_fsub+0x256>
    2878:	29ff      	cmp	r1, #255	; 0xff
    287a:	d049      	beq.n	2910 <__aeabi_fsub+0x250>
    287c:	199b      	adds	r3, r3, r6
    287e:	085b      	lsrs	r3, r3, #1
    2880:	000c      	movs	r4, r1
    2882:	e763      	b.n	274c <__aeabi_fsub+0x8c>
    2884:	2aff      	cmp	r2, #255	; 0xff
    2886:	d041      	beq.n	290c <__aeabi_fsub+0x24c>
    2888:	000a      	movs	r2, r1
    288a:	e781      	b.n	2790 <__aeabi_fsub+0xd0>
    288c:	2601      	movs	r6, #1
    288e:	1b9b      	subs	r3, r3, r6
    2890:	e789      	b.n	27a6 <__aeabi_fsub+0xe6>
    2892:	2c00      	cmp	r4, #0
    2894:	d01c      	beq.n	28d0 <__aeabi_fsub+0x210>
    2896:	28ff      	cmp	r0, #255	; 0xff
    2898:	d021      	beq.n	28de <__aeabi_fsub+0x21e>
    289a:	2480      	movs	r4, #128	; 0x80
    289c:	04e4      	lsls	r4, r4, #19
    289e:	4252      	negs	r2, r2
    28a0:	4323      	orrs	r3, r4
    28a2:	2a1b      	cmp	r2, #27
    28a4:	dd00      	ble.n	28a8 <__aeabi_fsub+0x1e8>
    28a6:	e096      	b.n	29d6 <__aeabi_fsub+0x316>
    28a8:	001c      	movs	r4, r3
    28aa:	2520      	movs	r5, #32
    28ac:	40d4      	lsrs	r4, r2
    28ae:	1aaa      	subs	r2, r5, r2
    28b0:	4093      	lsls	r3, r2
    28b2:	1e5a      	subs	r2, r3, #1
    28b4:	4193      	sbcs	r3, r2
    28b6:	4323      	orrs	r3, r4
    28b8:	1af3      	subs	r3, r6, r3
    28ba:	0004      	movs	r4, r0
    28bc:	000d      	movs	r5, r1
    28be:	e72d      	b.n	271c <__aeabi_fsub+0x5c>
    28c0:	2f00      	cmp	r7, #0
    28c2:	d000      	beq.n	28c6 <__aeabi_fsub+0x206>
    28c4:	e72e      	b.n	2724 <__aeabi_fsub+0x64>
    28c6:	2200      	movs	r2, #0
    28c8:	2400      	movs	r4, #0
    28ca:	e7a9      	b.n	2820 <__aeabi_fsub+0x160>
    28cc:	000c      	movs	r4, r1
    28ce:	e73d      	b.n	274c <__aeabi_fsub+0x8c>
    28d0:	2b00      	cmp	r3, #0
    28d2:	d058      	beq.n	2986 <__aeabi_fsub+0x2c6>
    28d4:	43d2      	mvns	r2, r2
    28d6:	2a00      	cmp	r2, #0
    28d8:	d0ee      	beq.n	28b8 <__aeabi_fsub+0x1f8>
    28da:	28ff      	cmp	r0, #255	; 0xff
    28dc:	d1e1      	bne.n	28a2 <__aeabi_fsub+0x1e2>
    28de:	0033      	movs	r3, r6
    28e0:	24ff      	movs	r4, #255	; 0xff
    28e2:	000d      	movs	r5, r1
    28e4:	e732      	b.n	274c <__aeabi_fsub+0x8c>
    28e6:	29ff      	cmp	r1, #255	; 0xff
    28e8:	d010      	beq.n	290c <__aeabi_fsub+0x24c>
    28ea:	0001      	movs	r1, r0
    28ec:	e778      	b.n	27e0 <__aeabi_fsub+0x120>
    28ee:	2b00      	cmp	r3, #0
    28f0:	d06e      	beq.n	29d0 <__aeabi_fsub+0x310>
    28f2:	24ff      	movs	r4, #255	; 0xff
    28f4:	2e00      	cmp	r6, #0
    28f6:	d100      	bne.n	28fa <__aeabi_fsub+0x23a>
    28f8:	e728      	b.n	274c <__aeabi_fsub+0x8c>
    28fa:	2280      	movs	r2, #128	; 0x80
    28fc:	4651      	mov	r1, sl
    28fe:	03d2      	lsls	r2, r2, #15
    2900:	4211      	tst	r1, r2
    2902:	d003      	beq.n	290c <__aeabi_fsub+0x24c>
    2904:	4661      	mov	r1, ip
    2906:	4211      	tst	r1, r2
    2908:	d100      	bne.n	290c <__aeabi_fsub+0x24c>
    290a:	0033      	movs	r3, r6
    290c:	24ff      	movs	r4, #255	; 0xff
    290e:	e71d      	b.n	274c <__aeabi_fsub+0x8c>
    2910:	24ff      	movs	r4, #255	; 0xff
    2912:	2300      	movs	r3, #0
    2914:	e72c      	b.n	2770 <__aeabi_fsub+0xb0>
    2916:	2c00      	cmp	r4, #0
    2918:	d1e9      	bne.n	28ee <__aeabi_fsub+0x22e>
    291a:	2b00      	cmp	r3, #0
    291c:	d063      	beq.n	29e6 <__aeabi_fsub+0x326>
    291e:	2e00      	cmp	r6, #0
    2920:	d100      	bne.n	2924 <__aeabi_fsub+0x264>
    2922:	e713      	b.n	274c <__aeabi_fsub+0x8c>
    2924:	199b      	adds	r3, r3, r6
    2926:	015a      	lsls	r2, r3, #5
    2928:	d400      	bmi.n	292c <__aeabi_fsub+0x26c>
    292a:	e73e      	b.n	27aa <__aeabi_fsub+0xea>
    292c:	4a31      	ldr	r2, [pc, #196]	; (29f4 <__aeabi_fsub+0x334>)
    292e:	000c      	movs	r4, r1
    2930:	4013      	ands	r3, r2
    2932:	e70b      	b.n	274c <__aeabi_fsub+0x8c>
    2934:	2c00      	cmp	r4, #0
    2936:	d11e      	bne.n	2976 <__aeabi_fsub+0x2b6>
    2938:	2b00      	cmp	r3, #0
    293a:	d12f      	bne.n	299c <__aeabi_fsub+0x2dc>
    293c:	2e00      	cmp	r6, #0
    293e:	d04f      	beq.n	29e0 <__aeabi_fsub+0x320>
    2940:	0033      	movs	r3, r6
    2942:	000d      	movs	r5, r1
    2944:	e702      	b.n	274c <__aeabi_fsub+0x8c>
    2946:	2601      	movs	r6, #1
    2948:	e755      	b.n	27f6 <__aeabi_fsub+0x136>
    294a:	2c00      	cmp	r4, #0
    294c:	d11f      	bne.n	298e <__aeabi_fsub+0x2ce>
    294e:	2b00      	cmp	r3, #0
    2950:	d043      	beq.n	29da <__aeabi_fsub+0x31a>
    2952:	43c9      	mvns	r1, r1
    2954:	2900      	cmp	r1, #0
    2956:	d00b      	beq.n	2970 <__aeabi_fsub+0x2b0>
    2958:	28ff      	cmp	r0, #255	; 0xff
    295a:	d039      	beq.n	29d0 <__aeabi_fsub+0x310>
    295c:	291b      	cmp	r1, #27
    295e:	dc44      	bgt.n	29ea <__aeabi_fsub+0x32a>
    2960:	001c      	movs	r4, r3
    2962:	2720      	movs	r7, #32
    2964:	40cc      	lsrs	r4, r1
    2966:	1a79      	subs	r1, r7, r1
    2968:	408b      	lsls	r3, r1
    296a:	1e59      	subs	r1, r3, #1
    296c:	418b      	sbcs	r3, r1
    296e:	4323      	orrs	r3, r4
    2970:	199b      	adds	r3, r3, r6
    2972:	0004      	movs	r4, r0
    2974:	e740      	b.n	27f8 <__aeabi_fsub+0x138>
    2976:	2b00      	cmp	r3, #0
    2978:	d11a      	bne.n	29b0 <__aeabi_fsub+0x2f0>
    297a:	2e00      	cmp	r6, #0
    297c:	d124      	bne.n	29c8 <__aeabi_fsub+0x308>
    297e:	2780      	movs	r7, #128	; 0x80
    2980:	2200      	movs	r2, #0
    2982:	03ff      	lsls	r7, r7, #15
    2984:	e71b      	b.n	27be <__aeabi_fsub+0xfe>
    2986:	0033      	movs	r3, r6
    2988:	0004      	movs	r4, r0
    298a:	000d      	movs	r5, r1
    298c:	e6de      	b.n	274c <__aeabi_fsub+0x8c>
    298e:	28ff      	cmp	r0, #255	; 0xff
    2990:	d01e      	beq.n	29d0 <__aeabi_fsub+0x310>
    2992:	2480      	movs	r4, #128	; 0x80
    2994:	04e4      	lsls	r4, r4, #19
    2996:	4249      	negs	r1, r1
    2998:	4323      	orrs	r3, r4
    299a:	e7df      	b.n	295c <__aeabi_fsub+0x29c>
    299c:	2e00      	cmp	r6, #0
    299e:	d100      	bne.n	29a2 <__aeabi_fsub+0x2e2>
    29a0:	e6d4      	b.n	274c <__aeabi_fsub+0x8c>
    29a2:	1b9f      	subs	r7, r3, r6
    29a4:	017a      	lsls	r2, r7, #5
    29a6:	d400      	bmi.n	29aa <__aeabi_fsub+0x2ea>
    29a8:	e737      	b.n	281a <__aeabi_fsub+0x15a>
    29aa:	1af3      	subs	r3, r6, r3
    29ac:	000d      	movs	r5, r1
    29ae:	e6cd      	b.n	274c <__aeabi_fsub+0x8c>
    29b0:	24ff      	movs	r4, #255	; 0xff
    29b2:	2e00      	cmp	r6, #0
    29b4:	d100      	bne.n	29b8 <__aeabi_fsub+0x2f8>
    29b6:	e6c9      	b.n	274c <__aeabi_fsub+0x8c>
    29b8:	2280      	movs	r2, #128	; 0x80
    29ba:	4650      	mov	r0, sl
    29bc:	03d2      	lsls	r2, r2, #15
    29be:	4210      	tst	r0, r2
    29c0:	d0a4      	beq.n	290c <__aeabi_fsub+0x24c>
    29c2:	4660      	mov	r0, ip
    29c4:	4210      	tst	r0, r2
    29c6:	d1a1      	bne.n	290c <__aeabi_fsub+0x24c>
    29c8:	0033      	movs	r3, r6
    29ca:	000d      	movs	r5, r1
    29cc:	24ff      	movs	r4, #255	; 0xff
    29ce:	e6bd      	b.n	274c <__aeabi_fsub+0x8c>
    29d0:	0033      	movs	r3, r6
    29d2:	24ff      	movs	r4, #255	; 0xff
    29d4:	e6ba      	b.n	274c <__aeabi_fsub+0x8c>
    29d6:	2301      	movs	r3, #1
    29d8:	e76e      	b.n	28b8 <__aeabi_fsub+0x1f8>
    29da:	0033      	movs	r3, r6
    29dc:	0004      	movs	r4, r0
    29de:	e6b5      	b.n	274c <__aeabi_fsub+0x8c>
    29e0:	2700      	movs	r7, #0
    29e2:	2200      	movs	r2, #0
    29e4:	e71c      	b.n	2820 <__aeabi_fsub+0x160>
    29e6:	0033      	movs	r3, r6
    29e8:	e6b0      	b.n	274c <__aeabi_fsub+0x8c>
    29ea:	2301      	movs	r3, #1
    29ec:	e7c0      	b.n	2970 <__aeabi_fsub+0x2b0>
    29ee:	46c0      	nop			; (mov r8, r8)
    29f0:	7dffffff 	.word	0x7dffffff
    29f4:	fbffffff 	.word	0xfbffffff

000029f8 <__aeabi_f2iz>:
    29f8:	0241      	lsls	r1, r0, #9
    29fa:	0043      	lsls	r3, r0, #1
    29fc:	0fc2      	lsrs	r2, r0, #31
    29fe:	0a49      	lsrs	r1, r1, #9
    2a00:	0e1b      	lsrs	r3, r3, #24
    2a02:	2000      	movs	r0, #0
    2a04:	2b7e      	cmp	r3, #126	; 0x7e
    2a06:	dd0d      	ble.n	2a24 <__aeabi_f2iz+0x2c>
    2a08:	2b9d      	cmp	r3, #157	; 0x9d
    2a0a:	dc0c      	bgt.n	2a26 <__aeabi_f2iz+0x2e>
    2a0c:	2080      	movs	r0, #128	; 0x80
    2a0e:	0400      	lsls	r0, r0, #16
    2a10:	4301      	orrs	r1, r0
    2a12:	2b95      	cmp	r3, #149	; 0x95
    2a14:	dc0a      	bgt.n	2a2c <__aeabi_f2iz+0x34>
    2a16:	2096      	movs	r0, #150	; 0x96
    2a18:	1ac3      	subs	r3, r0, r3
    2a1a:	40d9      	lsrs	r1, r3
    2a1c:	4248      	negs	r0, r1
    2a1e:	2a00      	cmp	r2, #0
    2a20:	d100      	bne.n	2a24 <__aeabi_f2iz+0x2c>
    2a22:	0008      	movs	r0, r1
    2a24:	4770      	bx	lr
    2a26:	4b03      	ldr	r3, [pc, #12]	; (2a34 <__aeabi_f2iz+0x3c>)
    2a28:	18d0      	adds	r0, r2, r3
    2a2a:	e7fb      	b.n	2a24 <__aeabi_f2iz+0x2c>
    2a2c:	3b96      	subs	r3, #150	; 0x96
    2a2e:	4099      	lsls	r1, r3
    2a30:	e7f4      	b.n	2a1c <__aeabi_f2iz+0x24>
    2a32:	46c0      	nop			; (mov r8, r8)
    2a34:	7fffffff 	.word	0x7fffffff

00002a38 <__aeabi_i2f>:
    2a38:	b570      	push	{r4, r5, r6, lr}
    2a3a:	2800      	cmp	r0, #0
    2a3c:	d030      	beq.n	2aa0 <__aeabi_i2f+0x68>
    2a3e:	17c3      	asrs	r3, r0, #31
    2a40:	18c4      	adds	r4, r0, r3
    2a42:	405c      	eors	r4, r3
    2a44:	0fc5      	lsrs	r5, r0, #31
    2a46:	0020      	movs	r0, r4
    2a48:	f000 f898 	bl	2b7c <__clzsi2>
    2a4c:	239e      	movs	r3, #158	; 0x9e
    2a4e:	1a1b      	subs	r3, r3, r0
    2a50:	2b96      	cmp	r3, #150	; 0x96
    2a52:	dc0d      	bgt.n	2a70 <__aeabi_i2f+0x38>
    2a54:	2296      	movs	r2, #150	; 0x96
    2a56:	1ad2      	subs	r2, r2, r3
    2a58:	4094      	lsls	r4, r2
    2a5a:	002a      	movs	r2, r5
    2a5c:	0264      	lsls	r4, r4, #9
    2a5e:	0a64      	lsrs	r4, r4, #9
    2a60:	b2db      	uxtb	r3, r3
    2a62:	0264      	lsls	r4, r4, #9
    2a64:	05db      	lsls	r3, r3, #23
    2a66:	0a60      	lsrs	r0, r4, #9
    2a68:	07d2      	lsls	r2, r2, #31
    2a6a:	4318      	orrs	r0, r3
    2a6c:	4310      	orrs	r0, r2
    2a6e:	bd70      	pop	{r4, r5, r6, pc}
    2a70:	2b99      	cmp	r3, #153	; 0x99
    2a72:	dc19      	bgt.n	2aa8 <__aeabi_i2f+0x70>
    2a74:	2299      	movs	r2, #153	; 0x99
    2a76:	1ad2      	subs	r2, r2, r3
    2a78:	2a00      	cmp	r2, #0
    2a7a:	dd29      	ble.n	2ad0 <__aeabi_i2f+0x98>
    2a7c:	4094      	lsls	r4, r2
    2a7e:	0022      	movs	r2, r4
    2a80:	4c14      	ldr	r4, [pc, #80]	; (2ad4 <__aeabi_i2f+0x9c>)
    2a82:	4014      	ands	r4, r2
    2a84:	0751      	lsls	r1, r2, #29
    2a86:	d004      	beq.n	2a92 <__aeabi_i2f+0x5a>
    2a88:	210f      	movs	r1, #15
    2a8a:	400a      	ands	r2, r1
    2a8c:	2a04      	cmp	r2, #4
    2a8e:	d000      	beq.n	2a92 <__aeabi_i2f+0x5a>
    2a90:	3404      	adds	r4, #4
    2a92:	0162      	lsls	r2, r4, #5
    2a94:	d413      	bmi.n	2abe <__aeabi_i2f+0x86>
    2a96:	01a4      	lsls	r4, r4, #6
    2a98:	0a64      	lsrs	r4, r4, #9
    2a9a:	b2db      	uxtb	r3, r3
    2a9c:	002a      	movs	r2, r5
    2a9e:	e7e0      	b.n	2a62 <__aeabi_i2f+0x2a>
    2aa0:	2200      	movs	r2, #0
    2aa2:	2300      	movs	r3, #0
    2aa4:	2400      	movs	r4, #0
    2aa6:	e7dc      	b.n	2a62 <__aeabi_i2f+0x2a>
    2aa8:	2205      	movs	r2, #5
    2aaa:	0021      	movs	r1, r4
    2aac:	1a12      	subs	r2, r2, r0
    2aae:	40d1      	lsrs	r1, r2
    2ab0:	22b9      	movs	r2, #185	; 0xb9
    2ab2:	1ad2      	subs	r2, r2, r3
    2ab4:	4094      	lsls	r4, r2
    2ab6:	1e62      	subs	r2, r4, #1
    2ab8:	4194      	sbcs	r4, r2
    2aba:	430c      	orrs	r4, r1
    2abc:	e7da      	b.n	2a74 <__aeabi_i2f+0x3c>
    2abe:	4b05      	ldr	r3, [pc, #20]	; (2ad4 <__aeabi_i2f+0x9c>)
    2ac0:	002a      	movs	r2, r5
    2ac2:	401c      	ands	r4, r3
    2ac4:	239f      	movs	r3, #159	; 0x9f
    2ac6:	01a4      	lsls	r4, r4, #6
    2ac8:	1a1b      	subs	r3, r3, r0
    2aca:	0a64      	lsrs	r4, r4, #9
    2acc:	b2db      	uxtb	r3, r3
    2ace:	e7c8      	b.n	2a62 <__aeabi_i2f+0x2a>
    2ad0:	0022      	movs	r2, r4
    2ad2:	e7d5      	b.n	2a80 <__aeabi_i2f+0x48>
    2ad4:	fbffffff 	.word	0xfbffffff

00002ad8 <__aeabi_f2d>:
    2ad8:	0041      	lsls	r1, r0, #1
    2ada:	0e09      	lsrs	r1, r1, #24
    2adc:	1c4b      	adds	r3, r1, #1
    2ade:	b570      	push	{r4, r5, r6, lr}
    2ae0:	b2db      	uxtb	r3, r3
    2ae2:	0246      	lsls	r6, r0, #9
    2ae4:	0a75      	lsrs	r5, r6, #9
    2ae6:	0fc4      	lsrs	r4, r0, #31
    2ae8:	2b01      	cmp	r3, #1
    2aea:	dd14      	ble.n	2b16 <__aeabi_f2d+0x3e>
    2aec:	23e0      	movs	r3, #224	; 0xe0
    2aee:	009b      	lsls	r3, r3, #2
    2af0:	076d      	lsls	r5, r5, #29
    2af2:	0b36      	lsrs	r6, r6, #12
    2af4:	18cb      	adds	r3, r1, r3
    2af6:	2100      	movs	r1, #0
    2af8:	0d0a      	lsrs	r2, r1, #20
    2afa:	0028      	movs	r0, r5
    2afc:	0512      	lsls	r2, r2, #20
    2afe:	4d1c      	ldr	r5, [pc, #112]	; (2b70 <__aeabi_f2d+0x98>)
    2b00:	4332      	orrs	r2, r6
    2b02:	055b      	lsls	r3, r3, #21
    2b04:	402a      	ands	r2, r5
    2b06:	085b      	lsrs	r3, r3, #1
    2b08:	4313      	orrs	r3, r2
    2b0a:	005b      	lsls	r3, r3, #1
    2b0c:	07e4      	lsls	r4, r4, #31
    2b0e:	085b      	lsrs	r3, r3, #1
    2b10:	4323      	orrs	r3, r4
    2b12:	0019      	movs	r1, r3
    2b14:	bd70      	pop	{r4, r5, r6, pc}
    2b16:	2900      	cmp	r1, #0
    2b18:	d114      	bne.n	2b44 <__aeabi_f2d+0x6c>
    2b1a:	2d00      	cmp	r5, #0
    2b1c:	d01e      	beq.n	2b5c <__aeabi_f2d+0x84>
    2b1e:	0028      	movs	r0, r5
    2b20:	f000 f82c 	bl	2b7c <__clzsi2>
    2b24:	280a      	cmp	r0, #10
    2b26:	dc1c      	bgt.n	2b62 <__aeabi_f2d+0x8a>
    2b28:	230b      	movs	r3, #11
    2b2a:	002a      	movs	r2, r5
    2b2c:	1a1b      	subs	r3, r3, r0
    2b2e:	40da      	lsrs	r2, r3
    2b30:	0003      	movs	r3, r0
    2b32:	3315      	adds	r3, #21
    2b34:	409d      	lsls	r5, r3
    2b36:	4b0f      	ldr	r3, [pc, #60]	; (2b74 <__aeabi_f2d+0x9c>)
    2b38:	0312      	lsls	r2, r2, #12
    2b3a:	1a1b      	subs	r3, r3, r0
    2b3c:	055b      	lsls	r3, r3, #21
    2b3e:	0b16      	lsrs	r6, r2, #12
    2b40:	0d5b      	lsrs	r3, r3, #21
    2b42:	e7d8      	b.n	2af6 <__aeabi_f2d+0x1e>
    2b44:	2d00      	cmp	r5, #0
    2b46:	d006      	beq.n	2b56 <__aeabi_f2d+0x7e>
    2b48:	0b32      	lsrs	r2, r6, #12
    2b4a:	2680      	movs	r6, #128	; 0x80
    2b4c:	0336      	lsls	r6, r6, #12
    2b4e:	076d      	lsls	r5, r5, #29
    2b50:	4316      	orrs	r6, r2
    2b52:	4b09      	ldr	r3, [pc, #36]	; (2b78 <__aeabi_f2d+0xa0>)
    2b54:	e7cf      	b.n	2af6 <__aeabi_f2d+0x1e>
    2b56:	4b08      	ldr	r3, [pc, #32]	; (2b78 <__aeabi_f2d+0xa0>)
    2b58:	2600      	movs	r6, #0
    2b5a:	e7cc      	b.n	2af6 <__aeabi_f2d+0x1e>
    2b5c:	2300      	movs	r3, #0
    2b5e:	2600      	movs	r6, #0
    2b60:	e7c9      	b.n	2af6 <__aeabi_f2d+0x1e>
    2b62:	0003      	movs	r3, r0
    2b64:	002a      	movs	r2, r5
    2b66:	3b0b      	subs	r3, #11
    2b68:	409a      	lsls	r2, r3
    2b6a:	2500      	movs	r5, #0
    2b6c:	e7e3      	b.n	2b36 <__aeabi_f2d+0x5e>
    2b6e:	46c0      	nop			; (mov r8, r8)
    2b70:	800fffff 	.word	0x800fffff
    2b74:	00000389 	.word	0x00000389
    2b78:	000007ff 	.word	0x000007ff

00002b7c <__clzsi2>:
    2b7c:	211c      	movs	r1, #28
    2b7e:	2301      	movs	r3, #1
    2b80:	041b      	lsls	r3, r3, #16
    2b82:	4298      	cmp	r0, r3
    2b84:	d301      	bcc.n	2b8a <__clzsi2+0xe>
    2b86:	0c00      	lsrs	r0, r0, #16
    2b88:	3910      	subs	r1, #16
    2b8a:	0a1b      	lsrs	r3, r3, #8
    2b8c:	4298      	cmp	r0, r3
    2b8e:	d301      	bcc.n	2b94 <__clzsi2+0x18>
    2b90:	0a00      	lsrs	r0, r0, #8
    2b92:	3908      	subs	r1, #8
    2b94:	091b      	lsrs	r3, r3, #4
    2b96:	4298      	cmp	r0, r3
    2b98:	d301      	bcc.n	2b9e <__clzsi2+0x22>
    2b9a:	0900      	lsrs	r0, r0, #4
    2b9c:	3904      	subs	r1, #4
    2b9e:	a202      	add	r2, pc, #8	; (adr r2, 2ba8 <__clzsi2+0x2c>)
    2ba0:	5c10      	ldrb	r0, [r2, r0]
    2ba2:	1840      	adds	r0, r0, r1
    2ba4:	4770      	bx	lr
    2ba6:	46c0      	nop			; (mov r8, r8)
    2ba8:	02020304 	.word	0x02020304
    2bac:	01010101 	.word	0x01010101
	...

00002bb8 <__libc_init_array>:
    2bb8:	b570      	push	{r4, r5, r6, lr}
    2bba:	4e0d      	ldr	r6, [pc, #52]	; (2bf0 <__libc_init_array+0x38>)
    2bbc:	4d0d      	ldr	r5, [pc, #52]	; (2bf4 <__libc_init_array+0x3c>)
    2bbe:	2400      	movs	r4, #0
    2bc0:	1bad      	subs	r5, r5, r6
    2bc2:	10ad      	asrs	r5, r5, #2
    2bc4:	d005      	beq.n	2bd2 <__libc_init_array+0x1a>
    2bc6:	00a3      	lsls	r3, r4, #2
    2bc8:	58f3      	ldr	r3, [r6, r3]
    2bca:	3401      	adds	r4, #1
    2bcc:	4798      	blx	r3
    2bce:	42a5      	cmp	r5, r4
    2bd0:	d1f9      	bne.n	2bc6 <__libc_init_array+0xe>
    2bd2:	f006 fbd9 	bl	9388 <_init>
    2bd6:	4e08      	ldr	r6, [pc, #32]	; (2bf8 <__libc_init_array+0x40>)
    2bd8:	4d08      	ldr	r5, [pc, #32]	; (2bfc <__libc_init_array+0x44>)
    2bda:	2400      	movs	r4, #0
    2bdc:	1bad      	subs	r5, r5, r6
    2bde:	10ad      	asrs	r5, r5, #2
    2be0:	d005      	beq.n	2bee <__libc_init_array+0x36>
    2be2:	00a3      	lsls	r3, r4, #2
    2be4:	58f3      	ldr	r3, [r6, r3]
    2be6:	3401      	adds	r4, #1
    2be8:	4798      	blx	r3
    2bea:	42a5      	cmp	r5, r4
    2bec:	d1f9      	bne.n	2be2 <__libc_init_array+0x2a>
    2bee:	bd70      	pop	{r4, r5, r6, pc}
    2bf0:	00009394 	.word	0x00009394
    2bf4:	00009394 	.word	0x00009394
    2bf8:	00009394 	.word	0x00009394
    2bfc:	0000939c 	.word	0x0000939c

00002c00 <memset>:
    2c00:	b5f0      	push	{r4, r5, r6, r7, lr}
    2c02:	0783      	lsls	r3, r0, #30
    2c04:	d043      	beq.n	2c8e <memset+0x8e>
    2c06:	1e54      	subs	r4, r2, #1
    2c08:	2a00      	cmp	r2, #0
    2c0a:	d03f      	beq.n	2c8c <memset+0x8c>
    2c0c:	b2ce      	uxtb	r6, r1
    2c0e:	0002      	movs	r2, r0
    2c10:	2503      	movs	r5, #3
    2c12:	e002      	b.n	2c1a <memset+0x1a>
    2c14:	001a      	movs	r2, r3
    2c16:	3c01      	subs	r4, #1
    2c18:	d338      	bcc.n	2c8c <memset+0x8c>
    2c1a:	1c53      	adds	r3, r2, #1
    2c1c:	7016      	strb	r6, [r2, #0]
    2c1e:	422b      	tst	r3, r5
    2c20:	d1f8      	bne.n	2c14 <memset+0x14>
    2c22:	2c03      	cmp	r4, #3
    2c24:	d92a      	bls.n	2c7c <memset+0x7c>
    2c26:	22ff      	movs	r2, #255	; 0xff
    2c28:	400a      	ands	r2, r1
    2c2a:	0215      	lsls	r5, r2, #8
    2c2c:	4315      	orrs	r5, r2
    2c2e:	042a      	lsls	r2, r5, #16
    2c30:	4315      	orrs	r5, r2
    2c32:	2c0f      	cmp	r4, #15
    2c34:	d914      	bls.n	2c60 <memset+0x60>
    2c36:	0027      	movs	r7, r4
    2c38:	001a      	movs	r2, r3
    2c3a:	3f10      	subs	r7, #16
    2c3c:	093e      	lsrs	r6, r7, #4
    2c3e:	3601      	adds	r6, #1
    2c40:	0136      	lsls	r6, r6, #4
    2c42:	199e      	adds	r6, r3, r6
    2c44:	6015      	str	r5, [r2, #0]
    2c46:	6055      	str	r5, [r2, #4]
    2c48:	6095      	str	r5, [r2, #8]
    2c4a:	60d5      	str	r5, [r2, #12]
    2c4c:	3210      	adds	r2, #16
    2c4e:	4296      	cmp	r6, r2
    2c50:	d1f8      	bne.n	2c44 <memset+0x44>
    2c52:	220f      	movs	r2, #15
    2c54:	4397      	bics	r7, r2
    2c56:	3710      	adds	r7, #16
    2c58:	19db      	adds	r3, r3, r7
    2c5a:	4014      	ands	r4, r2
    2c5c:	2c03      	cmp	r4, #3
    2c5e:	d90d      	bls.n	2c7c <memset+0x7c>
    2c60:	001a      	movs	r2, r3
    2c62:	1f27      	subs	r7, r4, #4
    2c64:	08be      	lsrs	r6, r7, #2
    2c66:	3601      	adds	r6, #1
    2c68:	00b6      	lsls	r6, r6, #2
    2c6a:	199e      	adds	r6, r3, r6
    2c6c:	c220      	stmia	r2!, {r5}
    2c6e:	42b2      	cmp	r2, r6
    2c70:	d1fc      	bne.n	2c6c <memset+0x6c>
    2c72:	2203      	movs	r2, #3
    2c74:	4397      	bics	r7, r2
    2c76:	3704      	adds	r7, #4
    2c78:	19db      	adds	r3, r3, r7
    2c7a:	4014      	ands	r4, r2
    2c7c:	2c00      	cmp	r4, #0
    2c7e:	d005      	beq.n	2c8c <memset+0x8c>
    2c80:	b2c9      	uxtb	r1, r1
    2c82:	191c      	adds	r4, r3, r4
    2c84:	7019      	strb	r1, [r3, #0]
    2c86:	3301      	adds	r3, #1
    2c88:	429c      	cmp	r4, r3
    2c8a:	d1fb      	bne.n	2c84 <memset+0x84>
    2c8c:	bdf0      	pop	{r4, r5, r6, r7, pc}
    2c8e:	0014      	movs	r4, r2
    2c90:	0003      	movs	r3, r0
    2c92:	e7c6      	b.n	2c22 <memset+0x22>

00002c94 <sprintf>:
    2c94:	b40e      	push	{r1, r2, r3}
    2c96:	b510      	push	{r4, lr}
    2c98:	b09d      	sub	sp, #116	; 0x74
    2c9a:	a902      	add	r1, sp, #8
    2c9c:	9002      	str	r0, [sp, #8]
    2c9e:	6108      	str	r0, [r1, #16]
    2ca0:	480b      	ldr	r0, [pc, #44]	; (2cd0 <sprintf+0x3c>)
    2ca2:	2482      	movs	r4, #130	; 0x82
    2ca4:	6088      	str	r0, [r1, #8]
    2ca6:	6148      	str	r0, [r1, #20]
    2ca8:	2001      	movs	r0, #1
    2caa:	4240      	negs	r0, r0
    2cac:	ab1f      	add	r3, sp, #124	; 0x7c
    2cae:	81c8      	strh	r0, [r1, #14]
    2cb0:	4808      	ldr	r0, [pc, #32]	; (2cd4 <sprintf+0x40>)
    2cb2:	cb04      	ldmia	r3!, {r2}
    2cb4:	00a4      	lsls	r4, r4, #2
    2cb6:	6800      	ldr	r0, [r0, #0]
    2cb8:	9301      	str	r3, [sp, #4]
    2cba:	818c      	strh	r4, [r1, #12]
    2cbc:	f000 f80c 	bl	2cd8 <_svfprintf_r>
    2cc0:	2300      	movs	r3, #0
    2cc2:	9a02      	ldr	r2, [sp, #8]
    2cc4:	7013      	strb	r3, [r2, #0]
    2cc6:	b01d      	add	sp, #116	; 0x74
    2cc8:	bc10      	pop	{r4}
    2cca:	bc08      	pop	{r3}
    2ccc:	b003      	add	sp, #12
    2cce:	4718      	bx	r3
    2cd0:	7fffffff 	.word	0x7fffffff
    2cd4:	20000314 	.word	0x20000314

00002cd8 <_svfprintf_r>:
    2cd8:	b5f0      	push	{r4, r5, r6, r7, lr}
    2cda:	46de      	mov	lr, fp
    2cdc:	4645      	mov	r5, r8
    2cde:	4657      	mov	r7, sl
    2ce0:	464e      	mov	r6, r9
    2ce2:	b5e0      	push	{r5, r6, r7, lr}
    2ce4:	b0c3      	sub	sp, #268	; 0x10c
    2ce6:	000d      	movs	r5, r1
    2ce8:	9106      	str	r1, [sp, #24]
    2cea:	0014      	movs	r4, r2
    2cec:	930f      	str	r3, [sp, #60]	; 0x3c
    2cee:	9009      	str	r0, [sp, #36]	; 0x24
    2cf0:	f002 fbdc 	bl	54ac <_localeconv_r>
    2cf4:	6803      	ldr	r3, [r0, #0]
    2cf6:	0018      	movs	r0, r3
    2cf8:	9319      	str	r3, [sp, #100]	; 0x64
    2cfa:	f003 fa89 	bl	6210 <strlen>
    2cfe:	9018      	str	r0, [sp, #96]	; 0x60
    2d00:	89ab      	ldrh	r3, [r5, #12]
    2d02:	061b      	lsls	r3, r3, #24
    2d04:	d505      	bpl.n	2d12 <_svfprintf_r+0x3a>
    2d06:	692b      	ldr	r3, [r5, #16]
    2d08:	9307      	str	r3, [sp, #28]
    2d0a:	2b00      	cmp	r3, #0
    2d0c:	d101      	bne.n	2d12 <_svfprintf_r+0x3a>
    2d0e:	f001 f863 	bl	3dd8 <_svfprintf_r+0x1100>
    2d12:	ab32      	add	r3, sp, #200	; 0xc8
    2d14:	9325      	str	r3, [sp, #148]	; 0x94
    2d16:	2300      	movs	r3, #0
    2d18:	46a3      	mov	fp, r4
    2d1a:	af25      	add	r7, sp, #148	; 0x94
    2d1c:	60bb      	str	r3, [r7, #8]
    2d1e:	607b      	str	r3, [r7, #4]
    2d20:	9314      	str	r3, [sp, #80]	; 0x50
    2d22:	9316      	str	r3, [sp, #88]	; 0x58
    2d24:	9315      	str	r3, [sp, #84]	; 0x54
    2d26:	ae32      	add	r6, sp, #200	; 0xc8
    2d28:	9317      	str	r3, [sp, #92]	; 0x5c
    2d2a:	931a      	str	r3, [sp, #104]	; 0x68
    2d2c:	930a      	str	r3, [sp, #40]	; 0x28
    2d2e:	465b      	mov	r3, fp
    2d30:	781b      	ldrb	r3, [r3, #0]
    2d32:	465c      	mov	r4, fp
    2d34:	2b00      	cmp	r3, #0
    2d36:	d01c      	beq.n	2d72 <_svfprintf_r+0x9a>
    2d38:	2b25      	cmp	r3, #37	; 0x25
    2d3a:	d102      	bne.n	2d42 <_svfprintf_r+0x6a>
    2d3c:	e019      	b.n	2d72 <_svfprintf_r+0x9a>
    2d3e:	2b25      	cmp	r3, #37	; 0x25
    2d40:	d003      	beq.n	2d4a <_svfprintf_r+0x72>
    2d42:	3401      	adds	r4, #1
    2d44:	7823      	ldrb	r3, [r4, #0]
    2d46:	2b00      	cmp	r3, #0
    2d48:	d1f9      	bne.n	2d3e <_svfprintf_r+0x66>
    2d4a:	465b      	mov	r3, fp
    2d4c:	1ae5      	subs	r5, r4, r3
    2d4e:	d010      	beq.n	2d72 <_svfprintf_r+0x9a>
    2d50:	465b      	mov	r3, fp
    2d52:	6033      	str	r3, [r6, #0]
    2d54:	68bb      	ldr	r3, [r7, #8]
    2d56:	6075      	str	r5, [r6, #4]
    2d58:	195b      	adds	r3, r3, r5
    2d5a:	60bb      	str	r3, [r7, #8]
    2d5c:	687b      	ldr	r3, [r7, #4]
    2d5e:	3301      	adds	r3, #1
    2d60:	607b      	str	r3, [r7, #4]
    2d62:	2b07      	cmp	r3, #7
    2d64:	dc2e      	bgt.n	2dc4 <_svfprintf_r+0xec>
    2d66:	3608      	adds	r6, #8
    2d68:	9b0a      	ldr	r3, [sp, #40]	; 0x28
    2d6a:	469c      	mov	ip, r3
    2d6c:	44ac      	add	ip, r5
    2d6e:	4663      	mov	r3, ip
    2d70:	930a      	str	r3, [sp, #40]	; 0x28
    2d72:	7823      	ldrb	r3, [r4, #0]
    2d74:	2b00      	cmp	r3, #0
    2d76:	d02e      	beq.n	2dd6 <_svfprintf_r+0xfe>
    2d78:	1c63      	adds	r3, r4, #1
    2d7a:	469b      	mov	fp, r3
    2d7c:	2300      	movs	r3, #0
    2d7e:	aa16      	add	r2, sp, #88	; 0x58
    2d80:	77d3      	strb	r3, [r2, #31]
    2d82:	2201      	movs	r2, #1
    2d84:	4252      	negs	r2, r2
    2d86:	4692      	mov	sl, r2
    2d88:	2200      	movs	r2, #0
    2d8a:	2100      	movs	r1, #0
    2d8c:	920b      	str	r2, [sp, #44]	; 0x2c
    2d8e:	3220      	adds	r2, #32
    2d90:	4691      	mov	r9, r2
    2d92:	3220      	adds	r2, #32
    2d94:	7863      	ldrb	r3, [r4, #1]
    2d96:	4688      	mov	r8, r1
    2d98:	2000      	movs	r0, #0
    2d9a:	2400      	movs	r4, #0
    2d9c:	4694      	mov	ip, r2
    2d9e:	4659      	mov	r1, fp
    2da0:	3101      	adds	r1, #1
    2da2:	001a      	movs	r2, r3
    2da4:	3a20      	subs	r2, #32
    2da6:	2a58      	cmp	r2, #88	; 0x58
    2da8:	d900      	bls.n	2dac <_svfprintf_r+0xd4>
    2daa:	e2fd      	b.n	33a8 <_svfprintf_r+0x6d0>
    2dac:	4dd7      	ldr	r5, [pc, #860]	; (310c <_svfprintf_r+0x434>)
    2dae:	0092      	lsls	r2, r2, #2
    2db0:	58aa      	ldr	r2, [r5, r2]
    2db2:	4697      	mov	pc, r2
    2db4:	9b0b      	ldr	r3, [sp, #44]	; 0x2c
    2db6:	920f      	str	r2, [sp, #60]	; 0x3c
    2db8:	425b      	negs	r3, r3
    2dba:	930b      	str	r3, [sp, #44]	; 0x2c
    2dbc:	2304      	movs	r3, #4
    2dbe:	431c      	orrs	r4, r3
    2dc0:	780b      	ldrb	r3, [r1, #0]
    2dc2:	e7ed      	b.n	2da0 <_svfprintf_r+0xc8>
    2dc4:	003a      	movs	r2, r7
    2dc6:	9906      	ldr	r1, [sp, #24]
    2dc8:	9809      	ldr	r0, [sp, #36]	; 0x24
    2dca:	f003 fa53 	bl	6274 <__ssprint_r>
    2dce:	2800      	cmp	r0, #0
    2dd0:	d109      	bne.n	2de6 <_svfprintf_r+0x10e>
    2dd2:	ae32      	add	r6, sp, #200	; 0xc8
    2dd4:	e7c8      	b.n	2d68 <_svfprintf_r+0x90>
    2dd6:	68bb      	ldr	r3, [r7, #8]
    2dd8:	2b00      	cmp	r3, #0
    2dda:	d004      	beq.n	2de6 <_svfprintf_r+0x10e>
    2ddc:	003a      	movs	r2, r7
    2dde:	9906      	ldr	r1, [sp, #24]
    2de0:	9809      	ldr	r0, [sp, #36]	; 0x24
    2de2:	f003 fa47 	bl	6274 <__ssprint_r>
    2de6:	9b06      	ldr	r3, [sp, #24]
    2de8:	899b      	ldrh	r3, [r3, #12]
    2dea:	065b      	lsls	r3, r3, #25
    2dec:	d501      	bpl.n	2df2 <_svfprintf_r+0x11a>
    2dee:	f001 f8ce 	bl	3f8e <_svfprintf_r+0x12b6>
    2df2:	980a      	ldr	r0, [sp, #40]	; 0x28
    2df4:	b043      	add	sp, #268	; 0x10c
    2df6:	bc3c      	pop	{r2, r3, r4, r5}
    2df8:	4690      	mov	r8, r2
    2dfa:	4699      	mov	r9, r3
    2dfc:	46a2      	mov	sl, r4
    2dfe:	46ab      	mov	fp, r5
    2e00:	bdf0      	pop	{r4, r5, r6, r7, pc}
    2e02:	2201      	movs	r2, #1
    2e04:	780b      	ldrb	r3, [r1, #0]
    2e06:	4690      	mov	r8, r2
    2e08:	202b      	movs	r0, #43	; 0x2b
    2e0a:	e7c9      	b.n	2da0 <_svfprintf_r+0xc8>
    2e0c:	1c4b      	adds	r3, r1, #1
    2e0e:	469b      	mov	fp, r3
    2e10:	780b      	ldrb	r3, [r1, #0]
    2e12:	2b2a      	cmp	r3, #42	; 0x2a
    2e14:	d101      	bne.n	2e1a <_svfprintf_r+0x142>
    2e16:	f001 fa1b 	bl	4250 <_svfprintf_r+0x1578>
    2e1a:	001a      	movs	r2, r3
    2e1c:	2100      	movs	r1, #0
    2e1e:	3a30      	subs	r2, #48	; 0x30
    2e20:	468a      	mov	sl, r1
    2e22:	4659      	mov	r1, fp
    2e24:	2a09      	cmp	r2, #9
    2e26:	d8bc      	bhi.n	2da2 <_svfprintf_r+0xca>
    2e28:	0003      	movs	r3, r0
    2e2a:	0011      	movs	r1, r2
    2e2c:	4650      	mov	r0, sl
    2e2e:	465a      	mov	r2, fp
    2e30:	469a      	mov	sl, r3
    2e32:	46a3      	mov	fp, r4
    2e34:	0083      	lsls	r3, r0, #2
    2e36:	181b      	adds	r3, r3, r0
    2e38:	7814      	ldrb	r4, [r2, #0]
    2e3a:	005b      	lsls	r3, r3, #1
    2e3c:	1858      	adds	r0, r3, r1
    2e3e:	0021      	movs	r1, r4
    2e40:	1c53      	adds	r3, r2, #1
    2e42:	3930      	subs	r1, #48	; 0x30
    2e44:	001a      	movs	r2, r3
    2e46:	2909      	cmp	r1, #9
    2e48:	d9f4      	bls.n	2e34 <_svfprintf_r+0x15c>
    2e4a:	4652      	mov	r2, sl
    2e4c:	0019      	movs	r1, r3
    2e4e:	4682      	mov	sl, r0
    2e50:	0023      	movs	r3, r4
    2e52:	0010      	movs	r0, r2
    2e54:	465c      	mov	r4, fp
    2e56:	e7a4      	b.n	2da2 <_svfprintf_r+0xca>
    2e58:	2380      	movs	r3, #128	; 0x80
    2e5a:	431c      	orrs	r4, r3
    2e5c:	780b      	ldrb	r3, [r1, #0]
    2e5e:	e79f      	b.n	2da0 <_svfprintf_r+0xc8>
    2e60:	468b      	mov	fp, r1
    2e62:	4641      	mov	r1, r8
    2e64:	9312      	str	r3, [sp, #72]	; 0x48
    2e66:	2900      	cmp	r1, #0
    2e68:	d001      	beq.n	2e6e <_svfprintf_r+0x196>
    2e6a:	f001 fa1f 	bl	42ac <_svfprintf_r+0x15d4>
    2e6e:	2310      	movs	r3, #16
    2e70:	431c      	orrs	r4, r3
    2e72:	9a0f      	ldr	r2, [sp, #60]	; 0x3c
    2e74:	06a3      	lsls	r3, r4, #26
    2e76:	d501      	bpl.n	2e7c <_svfprintf_r+0x1a4>
    2e78:	f000 fe88 	bl	3b8c <_svfprintf_r+0xeb4>
    2e7c:	06e3      	lsls	r3, r4, #27
    2e7e:	d501      	bpl.n	2e84 <_svfprintf_r+0x1ac>
    2e80:	f000 fd80 	bl	3984 <_svfprintf_r+0xcac>
    2e84:	0663      	lsls	r3, r4, #25
    2e86:	d401      	bmi.n	2e8c <_svfprintf_r+0x1b4>
    2e88:	f000 fd7c 	bl	3984 <_svfprintf_r+0xcac>
    2e8c:	2100      	movs	r1, #0
    2e8e:	5e53      	ldrsh	r3, [r2, r1]
    2e90:	930c      	str	r3, [sp, #48]	; 0x30
    2e92:	3204      	adds	r2, #4
    2e94:	17db      	asrs	r3, r3, #31
    2e96:	930d      	str	r3, [sp, #52]	; 0x34
    2e98:	920f      	str	r2, [sp, #60]	; 0x3c
    2e9a:	d501      	bpl.n	2ea0 <_svfprintf_r+0x1c8>
    2e9c:	f000 fe86 	bl	3bac <_svfprintf_r+0xed4>
    2ea0:	990c      	ldr	r1, [sp, #48]	; 0x30
    2ea2:	9a0d      	ldr	r2, [sp, #52]	; 0x34
    2ea4:	0008      	movs	r0, r1
    2ea6:	ab16      	add	r3, sp, #88	; 0x58
    2ea8:	7fdb      	ldrb	r3, [r3, #31]
    2eaa:	4310      	orrs	r0, r2
    2eac:	4698      	mov	r8, r3
    2eae:	0002      	movs	r2, r0
    2eb0:	2301      	movs	r3, #1
    2eb2:	4651      	mov	r1, sl
    2eb4:	3101      	adds	r1, #1
    2eb6:	d100      	bne.n	2eba <_svfprintf_r+0x1e2>
    2eb8:	e0ff      	b.n	30ba <_svfprintf_r+0x3e2>
    2eba:	2180      	movs	r1, #128	; 0x80
    2ebc:	0020      	movs	r0, r4
    2ebe:	4388      	bics	r0, r1
    2ec0:	9008      	str	r0, [sp, #32]
    2ec2:	2a00      	cmp	r2, #0
    2ec4:	d000      	beq.n	2ec8 <_svfprintf_r+0x1f0>
    2ec6:	e0fc      	b.n	30c2 <_svfprintf_r+0x3ea>
    2ec8:	4652      	mov	r2, sl
    2eca:	2a00      	cmp	r2, #0
    2ecc:	d001      	beq.n	2ed2 <_svfprintf_r+0x1fa>
    2ece:	f000 fc2c 	bl	372a <_svfprintf_r+0xa52>
    2ed2:	2b00      	cmp	r3, #0
    2ed4:	d001      	beq.n	2eda <_svfprintf_r+0x202>
    2ed6:	f000 fd04 	bl	38e2 <_svfprintf_r+0xc0a>
    2eda:	2001      	movs	r0, #1
    2edc:	ab32      	add	r3, sp, #200	; 0xc8
    2ede:	4020      	ands	r0, r4
    2ee0:	900e      	str	r0, [sp, #56]	; 0x38
    2ee2:	9311      	str	r3, [sp, #68]	; 0x44
    2ee4:	d008      	beq.n	2ef8 <_svfprintf_r+0x220>
    2ee6:	2327      	movs	r3, #39	; 0x27
    2ee8:	2130      	movs	r1, #48	; 0x30
    2eea:	aa28      	add	r2, sp, #160	; 0xa0
    2eec:	54d1      	strb	r1, [r2, r3]
    2eee:	aa16      	add	r2, sp, #88	; 0x58
    2ef0:	4694      	mov	ip, r2
    2ef2:	3348      	adds	r3, #72	; 0x48
    2ef4:	4463      	add	r3, ip
    2ef6:	9311      	str	r3, [sp, #68]	; 0x44
    2ef8:	4653      	mov	r3, sl
    2efa:	9a0e      	ldr	r2, [sp, #56]	; 0x38
    2efc:	9307      	str	r3, [sp, #28]
    2efe:	4592      	cmp	sl, r2
    2f00:	da00      	bge.n	2f04 <_svfprintf_r+0x22c>
    2f02:	9207      	str	r2, [sp, #28]
    2f04:	2300      	movs	r3, #0
    2f06:	9313      	str	r3, [sp, #76]	; 0x4c
    2f08:	4643      	mov	r3, r8
    2f0a:	2b00      	cmp	r3, #0
    2f0c:	d002      	beq.n	2f14 <_svfprintf_r+0x23c>
    2f0e:	9b07      	ldr	r3, [sp, #28]
    2f10:	3301      	adds	r3, #1
    2f12:	9307      	str	r3, [sp, #28]
    2f14:	2302      	movs	r3, #2
    2f16:	9a08      	ldr	r2, [sp, #32]
    2f18:	401a      	ands	r2, r3
    2f1a:	4691      	mov	r9, r2
    2f1c:	d002      	beq.n	2f24 <_svfprintf_r+0x24c>
    2f1e:	9b07      	ldr	r3, [sp, #28]
    2f20:	3302      	adds	r3, #2
    2f22:	9307      	str	r3, [sp, #28]
    2f24:	2384      	movs	r3, #132	; 0x84
    2f26:	9a08      	ldr	r2, [sp, #32]
    2f28:	401a      	ands	r2, r3
    2f2a:	9210      	str	r2, [sp, #64]	; 0x40
    2f2c:	d000      	beq.n	2f30 <_svfprintf_r+0x258>
    2f2e:	e24d      	b.n	33cc <_svfprintf_r+0x6f4>
    2f30:	9b0b      	ldr	r3, [sp, #44]	; 0x2c
    2f32:	9a07      	ldr	r2, [sp, #28]
    2f34:	1a9c      	subs	r4, r3, r2
    2f36:	2c00      	cmp	r4, #0
    2f38:	dc00      	bgt.n	2f3c <_svfprintf_r+0x264>
    2f3a:	e247      	b.n	33cc <_svfprintf_r+0x6f4>
    2f3c:	4974      	ldr	r1, [pc, #464]	; (3110 <_svfprintf_r+0x438>)
    2f3e:	68ba      	ldr	r2, [r7, #8]
    2f40:	687b      	ldr	r3, [r7, #4]
    2f42:	4688      	mov	r8, r1
    2f44:	2c10      	cmp	r4, #16
    2f46:	dd1f      	ble.n	2f88 <_svfprintf_r+0x2b0>
    2f48:	0031      	movs	r1, r6
    2f4a:	2510      	movs	r5, #16
    2f4c:	4646      	mov	r6, r8
    2f4e:	e003      	b.n	2f58 <_svfprintf_r+0x280>
    2f50:	3c10      	subs	r4, #16
    2f52:	3108      	adds	r1, #8
    2f54:	2c10      	cmp	r4, #16
    2f56:	dd15      	ble.n	2f84 <_svfprintf_r+0x2ac>
    2f58:	3210      	adds	r2, #16
    2f5a:	3301      	adds	r3, #1
    2f5c:	600e      	str	r6, [r1, #0]
    2f5e:	604d      	str	r5, [r1, #4]
    2f60:	60ba      	str	r2, [r7, #8]
    2f62:	607b      	str	r3, [r7, #4]
    2f64:	2b07      	cmp	r3, #7
    2f66:	ddf3      	ble.n	2f50 <_svfprintf_r+0x278>
    2f68:	003a      	movs	r2, r7
    2f6a:	9906      	ldr	r1, [sp, #24]
    2f6c:	9809      	ldr	r0, [sp, #36]	; 0x24
    2f6e:	f003 f981 	bl	6274 <__ssprint_r>
    2f72:	2800      	cmp	r0, #0
    2f74:	d000      	beq.n	2f78 <_svfprintf_r+0x2a0>
    2f76:	e736      	b.n	2de6 <_svfprintf_r+0x10e>
    2f78:	3c10      	subs	r4, #16
    2f7a:	68ba      	ldr	r2, [r7, #8]
    2f7c:	687b      	ldr	r3, [r7, #4]
    2f7e:	a932      	add	r1, sp, #200	; 0xc8
    2f80:	2c10      	cmp	r4, #16
    2f82:	dce9      	bgt.n	2f58 <_svfprintf_r+0x280>
    2f84:	46b0      	mov	r8, r6
    2f86:	000e      	movs	r6, r1
    2f88:	4641      	mov	r1, r8
    2f8a:	6074      	str	r4, [r6, #4]
    2f8c:	3301      	adds	r3, #1
    2f8e:	18a4      	adds	r4, r4, r2
    2f90:	6031      	str	r1, [r6, #0]
    2f92:	60bc      	str	r4, [r7, #8]
    2f94:	607b      	str	r3, [r7, #4]
    2f96:	2b07      	cmp	r3, #7
    2f98:	dd01      	ble.n	2f9e <_svfprintf_r+0x2c6>
    2f9a:	f000 fca8 	bl	38ee <_svfprintf_r+0xc16>
    2f9e:	ab16      	add	r3, sp, #88	; 0x58
    2fa0:	7fdb      	ldrb	r3, [r3, #31]
    2fa2:	3608      	adds	r6, #8
    2fa4:	4698      	mov	r8, r3
    2fa6:	e212      	b.n	33ce <_svfprintf_r+0x6f6>
    2fa8:	468b      	mov	fp, r1
    2faa:	4641      	mov	r1, r8
    2fac:	9312      	str	r3, [sp, #72]	; 0x48
    2fae:	2900      	cmp	r1, #0
    2fb0:	d001      	beq.n	2fb6 <_svfprintf_r+0x2de>
    2fb2:	f001 f977 	bl	42a4 <_svfprintf_r+0x15cc>
    2fb6:	2207      	movs	r2, #7
    2fb8:	9b0f      	ldr	r3, [sp, #60]	; 0x3c
    2fba:	3307      	adds	r3, #7
    2fbc:	4393      	bics	r3, r2
    2fbe:	3201      	adds	r2, #1
    2fc0:	4694      	mov	ip, r2
    2fc2:	449c      	add	ip, r3
    2fc4:	4662      	mov	r2, ip
    2fc6:	920f      	str	r2, [sp, #60]	; 0x3c
    2fc8:	681a      	ldr	r2, [r3, #0]
    2fca:	9216      	str	r2, [sp, #88]	; 0x58
    2fcc:	685b      	ldr	r3, [r3, #4]
    2fce:	2201      	movs	r2, #1
    2fd0:	9315      	str	r3, [sp, #84]	; 0x54
    2fd2:	9b15      	ldr	r3, [sp, #84]	; 0x54
    2fd4:	9d16      	ldr	r5, [sp, #88]	; 0x58
    2fd6:	005b      	lsls	r3, r3, #1
    2fd8:	085b      	lsrs	r3, r3, #1
    2fda:	4698      	mov	r8, r3
    2fdc:	4252      	negs	r2, r2
    2fde:	4b4d      	ldr	r3, [pc, #308]	; (3114 <_svfprintf_r+0x43c>)
    2fe0:	0028      	movs	r0, r5
    2fe2:	4641      	mov	r1, r8
    2fe4:	f005 fbd4 	bl	8790 <__aeabi_dcmpun>
    2fe8:	2800      	cmp	r0, #0
    2fea:	d001      	beq.n	2ff0 <_svfprintf_r+0x318>
    2fec:	f000 fdfd 	bl	3bea <_svfprintf_r+0xf12>
    2ff0:	2201      	movs	r2, #1
    2ff2:	4b48      	ldr	r3, [pc, #288]	; (3114 <_svfprintf_r+0x43c>)
    2ff4:	4252      	negs	r2, r2
    2ff6:	0028      	movs	r0, r5
    2ff8:	4641      	mov	r1, r8
    2ffa:	f003 fdf1 	bl	6be0 <__aeabi_dcmple>
    2ffe:	2800      	cmp	r0, #0
    3000:	d001      	beq.n	3006 <_svfprintf_r+0x32e>
    3002:	f000 fdf2 	bl	3bea <_svfprintf_r+0xf12>
    3006:	2200      	movs	r2, #0
    3008:	2300      	movs	r3, #0
    300a:	9816      	ldr	r0, [sp, #88]	; 0x58
    300c:	9915      	ldr	r1, [sp, #84]	; 0x54
    300e:	f003 fddd 	bl	6bcc <__aeabi_dcmplt>
    3012:	2800      	cmp	r0, #0
    3014:	d001      	beq.n	301a <_svfprintf_r+0x342>
    3016:	f001 f822 	bl	405e <_svfprintf_r+0x1386>
    301a:	ab16      	add	r3, sp, #88	; 0x58
    301c:	7fdb      	ldrb	r3, [r3, #31]
    301e:	4698      	mov	r8, r3
    3020:	9b12      	ldr	r3, [sp, #72]	; 0x48
    3022:	2b47      	cmp	r3, #71	; 0x47
    3024:	dd01      	ble.n	302a <_svfprintf_r+0x352>
    3026:	f000 fec7 	bl	3db8 <_svfprintf_r+0x10e0>
    302a:	4b3b      	ldr	r3, [pc, #236]	; (3118 <_svfprintf_r+0x440>)
    302c:	9311      	str	r3, [sp, #68]	; 0x44
    302e:	2380      	movs	r3, #128	; 0x80
    3030:	439c      	bics	r4, r3
    3032:	3b7d      	subs	r3, #125	; 0x7d
    3034:	9307      	str	r3, [sp, #28]
    3036:	930e      	str	r3, [sp, #56]	; 0x38
    3038:	2300      	movs	r3, #0
    303a:	9408      	str	r4, [sp, #32]
    303c:	469a      	mov	sl, r3
    303e:	9313      	str	r3, [sp, #76]	; 0x4c
    3040:	e762      	b.n	2f08 <_svfprintf_r+0x230>
    3042:	2200      	movs	r2, #0
    3044:	3b30      	subs	r3, #48	; 0x30
    3046:	0015      	movs	r5, r2
    3048:	001a      	movs	r2, r3
    304a:	0003      	movs	r3, r0
    304c:	9407      	str	r4, [sp, #28]
    304e:	0008      	movs	r0, r1
    3050:	002c      	movs	r4, r5
    3052:	469b      	mov	fp, r3
    3054:	00a3      	lsls	r3, r4, #2
    3056:	191c      	adds	r4, r3, r4
    3058:	7803      	ldrb	r3, [r0, #0]
    305a:	0064      	lsls	r4, r4, #1
    305c:	1914      	adds	r4, r2, r4
    305e:	001a      	movs	r2, r3
    3060:	3101      	adds	r1, #1
    3062:	3a30      	subs	r2, #48	; 0x30
    3064:	0008      	movs	r0, r1
    3066:	2a09      	cmp	r2, #9
    3068:	d9f4      	bls.n	3054 <_svfprintf_r+0x37c>
    306a:	940b      	str	r4, [sp, #44]	; 0x2c
    306c:	4658      	mov	r0, fp
    306e:	9c07      	ldr	r4, [sp, #28]
    3070:	e697      	b.n	2da2 <_svfprintf_r+0xca>
    3072:	2308      	movs	r3, #8
    3074:	431c      	orrs	r4, r3
    3076:	780b      	ldrb	r3, [r1, #0]
    3078:	e692      	b.n	2da0 <_svfprintf_r+0xc8>
    307a:	9312      	str	r3, [sp, #72]	; 0x48
    307c:	2310      	movs	r3, #16
    307e:	431c      	orrs	r4, r3
    3080:	468b      	mov	fp, r1
    3082:	06a3      	lsls	r3, r4, #26
    3084:	d500      	bpl.n	3088 <_svfprintf_r+0x3b0>
    3086:	e17b      	b.n	3380 <_svfprintf_r+0x6a8>
    3088:	06e3      	lsls	r3, r4, #27
    308a:	d501      	bpl.n	3090 <_svfprintf_r+0x3b8>
    308c:	f000 fc7e 	bl	398c <_svfprintf_r+0xcb4>
    3090:	0663      	lsls	r3, r4, #25
    3092:	d401      	bmi.n	3098 <_svfprintf_r+0x3c0>
    3094:	f000 fc7a 	bl	398c <_svfprintf_r+0xcb4>
    3098:	9b0f      	ldr	r3, [sp, #60]	; 0x3c
    309a:	881a      	ldrh	r2, [r3, #0]
    309c:	920c      	str	r2, [sp, #48]	; 0x30
    309e:	2200      	movs	r2, #0
    30a0:	3304      	adds	r3, #4
    30a2:	930f      	str	r3, [sp, #60]	; 0x3c
    30a4:	2300      	movs	r3, #0
    30a6:	920d      	str	r2, [sp, #52]	; 0x34
    30a8:	9a0c      	ldr	r2, [sp, #48]	; 0x30
    30aa:	2100      	movs	r1, #0
    30ac:	a816      	add	r0, sp, #88	; 0x58
    30ae:	77c1      	strb	r1, [r0, #31]
    30b0:	4688      	mov	r8, r1
    30b2:	4651      	mov	r1, sl
    30b4:	3101      	adds	r1, #1
    30b6:	d000      	beq.n	30ba <_svfprintf_r+0x3e2>
    30b8:	e6ff      	b.n	2eba <_svfprintf_r+0x1e2>
    30ba:	2a00      	cmp	r2, #0
    30bc:	d100      	bne.n	30c0 <_svfprintf_r+0x3e8>
    30be:	e335      	b.n	372c <_svfprintf_r+0xa54>
    30c0:	9408      	str	r4, [sp, #32]
    30c2:	2b01      	cmp	r3, #1
    30c4:	d100      	bne.n	30c8 <_svfprintf_r+0x3f0>
    30c6:	e3e5      	b.n	3894 <_svfprintf_r+0xbbc>
    30c8:	2b02      	cmp	r3, #2
    30ca:	d000      	beq.n	30ce <_svfprintf_r+0x3f6>
    30cc:	e362      	b.n	3794 <_svfprintf_r+0xabc>
    30ce:	9c17      	ldr	r4, [sp, #92]	; 0x5c
    30d0:	200f      	movs	r0, #15
    30d2:	46a1      	mov	r9, r4
    30d4:	46b4      	mov	ip, r6
    30d6:	ab32      	add	r3, sp, #200	; 0xc8
    30d8:	0019      	movs	r1, r3
    30da:	9a0c      	ldr	r2, [sp, #48]	; 0x30
    30dc:	9b0d      	ldr	r3, [sp, #52]	; 0x34
    30de:	0004      	movs	r4, r0
    30e0:	464d      	mov	r5, r9
    30e2:	4014      	ands	r4, r2
    30e4:	5d2c      	ldrb	r4, [r5, r4]
    30e6:	071e      	lsls	r6, r3, #28
    30e8:	0915      	lsrs	r5, r2, #4
    30ea:	3901      	subs	r1, #1
    30ec:	432e      	orrs	r6, r5
    30ee:	700c      	strb	r4, [r1, #0]
    30f0:	091c      	lsrs	r4, r3, #4
    30f2:	0023      	movs	r3, r4
    30f4:	0034      	movs	r4, r6
    30f6:	0032      	movs	r2, r6
    30f8:	431c      	orrs	r4, r3
    30fa:	d1f0      	bne.n	30de <_svfprintf_r+0x406>
    30fc:	920c      	str	r2, [sp, #48]	; 0x30
    30fe:	930d      	str	r3, [sp, #52]	; 0x34
    3100:	ab32      	add	r3, sp, #200	; 0xc8
    3102:	1a5b      	subs	r3, r3, r1
    3104:	9111      	str	r1, [sp, #68]	; 0x44
    3106:	4666      	mov	r6, ip
    3108:	930e      	str	r3, [sp, #56]	; 0x38
    310a:	e6f5      	b.n	2ef8 <_svfprintf_r+0x220>
    310c:	00008ef8 	.word	0x00008ef8
    3110:	000090a0 	.word	0x000090a0
    3114:	7fefffff 	.word	0x7fefffff
    3118:	0000905c 	.word	0x0000905c
    311c:	9312      	str	r3, [sp, #72]	; 0x48
    311e:	2310      	movs	r3, #16
    3120:	431c      	orrs	r4, r3
    3122:	468b      	mov	fp, r1
    3124:	06a3      	lsls	r3, r4, #26
    3126:	d500      	bpl.n	312a <_svfprintf_r+0x452>
    3128:	e111      	b.n	334e <_svfprintf_r+0x676>
    312a:	06e3      	lsls	r3, r4, #27
    312c:	d501      	bpl.n	3132 <_svfprintf_r+0x45a>
    312e:	f000 fc31 	bl	3994 <_svfprintf_r+0xcbc>
    3132:	0663      	lsls	r3, r4, #25
    3134:	d401      	bmi.n	313a <_svfprintf_r+0x462>
    3136:	f000 fc2d 	bl	3994 <_svfprintf_r+0xcbc>
    313a:	9b0f      	ldr	r3, [sp, #60]	; 0x3c
    313c:	881a      	ldrh	r2, [r3, #0]
    313e:	920c      	str	r2, [sp, #48]	; 0x30
    3140:	2200      	movs	r2, #0
    3142:	3304      	adds	r3, #4
    3144:	920d      	str	r2, [sp, #52]	; 0x34
    3146:	930f      	str	r3, [sp, #60]	; 0x3c
    3148:	9a0c      	ldr	r2, [sp, #48]	; 0x30
    314a:	2301      	movs	r3, #1
    314c:	e7ad      	b.n	30aa <_svfprintf_r+0x3d2>
    314e:	468b      	mov	fp, r1
    3150:	4641      	mov	r1, r8
    3152:	9312      	str	r3, [sp, #72]	; 0x48
    3154:	2900      	cmp	r1, #0
    3156:	d001      	beq.n	315c <_svfprintf_r+0x484>
    3158:	f001 f890 	bl	427c <_svfprintf_r+0x15a4>
    315c:	4bb8      	ldr	r3, [pc, #736]	; (3440 <_svfprintf_r+0x768>)
    315e:	9317      	str	r3, [sp, #92]	; 0x5c
    3160:	06a3      	lsls	r3, r4, #26
    3162:	d500      	bpl.n	3166 <_svfprintf_r+0x48e>
    3164:	e0ab      	b.n	32be <_svfprintf_r+0x5e6>
    3166:	06e3      	lsls	r3, r4, #27
    3168:	d501      	bpl.n	316e <_svfprintf_r+0x496>
    316a:	f000 fc07 	bl	397c <_svfprintf_r+0xca4>
    316e:	0663      	lsls	r3, r4, #25
    3170:	d401      	bmi.n	3176 <_svfprintf_r+0x49e>
    3172:	f000 fc03 	bl	397c <_svfprintf_r+0xca4>
    3176:	9b0f      	ldr	r3, [sp, #60]	; 0x3c
    3178:	881a      	ldrh	r2, [r3, #0]
    317a:	920c      	str	r2, [sp, #48]	; 0x30
    317c:	2200      	movs	r2, #0
    317e:	3304      	adds	r3, #4
    3180:	920d      	str	r2, [sp, #52]	; 0x34
    3182:	930f      	str	r3, [sp, #60]	; 0x3c
    3184:	07e3      	lsls	r3, r4, #31
    3186:	d400      	bmi.n	318a <_svfprintf_r+0x4b2>
    3188:	e0a9      	b.n	32de <_svfprintf_r+0x606>
    318a:	990c      	ldr	r1, [sp, #48]	; 0x30
    318c:	9a0d      	ldr	r2, [sp, #52]	; 0x34
    318e:	000b      	movs	r3, r1
    3190:	4313      	orrs	r3, r2
    3192:	001a      	movs	r2, r3
    3194:	2302      	movs	r3, #2
    3196:	2a00      	cmp	r2, #0
    3198:	d100      	bne.n	319c <_svfprintf_r+0x4c4>
    319a:	e786      	b.n	30aa <_svfprintf_r+0x3d2>
    319c:	2030      	movs	r0, #48	; 0x30
    319e:	a91e      	add	r1, sp, #120	; 0x78
    31a0:	7008      	strb	r0, [r1, #0]
    31a2:	2548      	movs	r5, #72	; 0x48
    31a4:	4668      	mov	r0, sp
    31a6:	1940      	adds	r0, r0, r5
    31a8:	7800      	ldrb	r0, [r0, #0]
    31aa:	431c      	orrs	r4, r3
    31ac:	7048      	strb	r0, [r1, #1]
    31ae:	e77c      	b.n	30aa <_svfprintf_r+0x3d2>
    31b0:	468b      	mov	fp, r1
    31b2:	4641      	mov	r1, r8
    31b4:	2900      	cmp	r1, #0
    31b6:	d001      	beq.n	31bc <_svfprintf_r+0x4e4>
    31b8:	f001 f883 	bl	42c2 <_svfprintf_r+0x15ea>
    31bc:	06a3      	lsls	r3, r4, #26
    31be:	d501      	bpl.n	31c4 <_svfprintf_r+0x4ec>
    31c0:	f000 fde9 	bl	3d96 <_svfprintf_r+0x10be>
    31c4:	06e3      	lsls	r3, r4, #27
    31c6:	d501      	bpl.n	31cc <_svfprintf_r+0x4f4>
    31c8:	f000 fd9b 	bl	3d02 <_svfprintf_r+0x102a>
    31cc:	0663      	lsls	r3, r4, #25
    31ce:	d401      	bmi.n	31d4 <_svfprintf_r+0x4fc>
    31d0:	f000 fd97 	bl	3d02 <_svfprintf_r+0x102a>
    31d4:	4669      	mov	r1, sp
    31d6:	9b0f      	ldr	r3, [sp, #60]	; 0x3c
    31d8:	8d09      	ldrh	r1, [r1, #40]	; 0x28
    31da:	681a      	ldr	r2, [r3, #0]
    31dc:	3304      	adds	r3, #4
    31de:	9207      	str	r2, [sp, #28]
    31e0:	8011      	strh	r1, [r2, #0]
    31e2:	930f      	str	r3, [sp, #60]	; 0x3c
    31e4:	e5a3      	b.n	2d2e <_svfprintf_r+0x56>
    31e6:	464b      	mov	r3, r9
    31e8:	431c      	orrs	r4, r3
    31ea:	780b      	ldrb	r3, [r1, #0]
    31ec:	e5d8      	b.n	2da0 <_svfprintf_r+0xc8>
    31ee:	9312      	str	r3, [sp, #72]	; 0x48
    31f0:	9b0f      	ldr	r3, [sp, #60]	; 0x3c
    31f2:	468b      	mov	fp, r1
    31f4:	1d1d      	adds	r5, r3, #4
    31f6:	681b      	ldr	r3, [r3, #0]
    31f8:	a916      	add	r1, sp, #88	; 0x58
    31fa:	001a      	movs	r2, r3
    31fc:	9311      	str	r3, [sp, #68]	; 0x44
    31fe:	2300      	movs	r3, #0
    3200:	77cb      	strb	r3, [r1, #31]
    3202:	2a00      	cmp	r2, #0
    3204:	d101      	bne.n	320a <_svfprintf_r+0x532>
    3206:	f000 fefb 	bl	4000 <_svfprintf_r+0x1328>
    320a:	4653      	mov	r3, sl
    320c:	3301      	adds	r3, #1
    320e:	d101      	bne.n	3214 <_svfprintf_r+0x53c>
    3210:	f000 fe38 	bl	3e84 <_svfprintf_r+0x11ac>
    3214:	4652      	mov	r2, sl
    3216:	2100      	movs	r1, #0
    3218:	9811      	ldr	r0, [sp, #68]	; 0x44
    321a:	f002 fc0d 	bl	5a38 <memchr>
    321e:	2800      	cmp	r0, #0
    3220:	d101      	bne.n	3226 <_svfprintf_r+0x54e>
    3222:	f000 ff54 	bl	40ce <_svfprintf_r+0x13f6>
    3226:	9b11      	ldr	r3, [sp, #68]	; 0x44
    3228:	1ac3      	subs	r3, r0, r3
    322a:	001a      	movs	r2, r3
    322c:	930e      	str	r3, [sp, #56]	; 0x38
    322e:	43db      	mvns	r3, r3
    3230:	17db      	asrs	r3, r3, #31
    3232:	401a      	ands	r2, r3
    3234:	ab16      	add	r3, sp, #88	; 0x58
    3236:	7fdb      	ldrb	r3, [r3, #31]
    3238:	9207      	str	r2, [sp, #28]
    323a:	4698      	mov	r8, r3
    323c:	2300      	movs	r3, #0
    323e:	950f      	str	r5, [sp, #60]	; 0x3c
    3240:	9408      	str	r4, [sp, #32]
    3242:	469a      	mov	sl, r3
    3244:	9313      	str	r3, [sp, #76]	; 0x4c
    3246:	e65f      	b.n	2f08 <_svfprintf_r+0x230>
    3248:	9a0f      	ldr	r2, [sp, #60]	; 0x3c
    324a:	9312      	str	r3, [sp, #72]	; 0x48
    324c:	6813      	ldr	r3, [r2, #0]
    324e:	ad28      	add	r5, sp, #160	; 0xa0
    3250:	9307      	str	r3, [sp, #28]
    3252:	466b      	mov	r3, sp
    3254:	7f1b      	ldrb	r3, [r3, #28]
    3256:	468b      	mov	fp, r1
    3258:	702b      	strb	r3, [r5, #0]
    325a:	2300      	movs	r3, #0
    325c:	a916      	add	r1, sp, #88	; 0x58
    325e:	77cb      	strb	r3, [r1, #31]
    3260:	0013      	movs	r3, r2
    3262:	3304      	adds	r3, #4
    3264:	930f      	str	r3, [sp, #60]	; 0x3c
    3266:	2300      	movs	r3, #0
    3268:	9408      	str	r4, [sp, #32]
    326a:	4698      	mov	r8, r3
    326c:	3301      	adds	r3, #1
    326e:	9307      	str	r3, [sp, #28]
    3270:	930e      	str	r3, [sp, #56]	; 0x38
    3272:	2300      	movs	r3, #0
    3274:	9511      	str	r5, [sp, #68]	; 0x44
    3276:	469a      	mov	sl, r3
    3278:	9313      	str	r3, [sp, #76]	; 0x4c
    327a:	e64b      	b.n	2f14 <_svfprintf_r+0x23c>
    327c:	468b      	mov	fp, r1
    327e:	4641      	mov	r1, r8
    3280:	9312      	str	r3, [sp, #72]	; 0x48
    3282:	2900      	cmp	r1, #0
    3284:	d100      	bne.n	3288 <_svfprintf_r+0x5b0>
    3286:	e5f4      	b.n	2e72 <_svfprintf_r+0x19a>
    3288:	ab16      	add	r3, sp, #88	; 0x58
    328a:	77d8      	strb	r0, [r3, #31]
    328c:	e5f1      	b.n	2e72 <_svfprintf_r+0x19a>
    328e:	4663      	mov	r3, ip
    3290:	431c      	orrs	r4, r3
    3292:	780b      	ldrb	r3, [r1, #0]
    3294:	e584      	b.n	2da0 <_svfprintf_r+0xc8>
    3296:	780b      	ldrb	r3, [r1, #0]
    3298:	2b6c      	cmp	r3, #108	; 0x6c
    329a:	d101      	bne.n	32a0 <_svfprintf_r+0x5c8>
    329c:	f000 fd86 	bl	3dac <_svfprintf_r+0x10d4>
    32a0:	2210      	movs	r2, #16
    32a2:	4314      	orrs	r4, r2
    32a4:	e57c      	b.n	2da0 <_svfprintf_r+0xc8>
    32a6:	468b      	mov	fp, r1
    32a8:	4641      	mov	r1, r8
    32aa:	9312      	str	r3, [sp, #72]	; 0x48
    32ac:	2900      	cmp	r1, #0
    32ae:	d001      	beq.n	32b4 <_svfprintf_r+0x5dc>
    32b0:	f000 ffe8 	bl	4284 <_svfprintf_r+0x15ac>
    32b4:	4b63      	ldr	r3, [pc, #396]	; (3444 <_svfprintf_r+0x76c>)
    32b6:	9317      	str	r3, [sp, #92]	; 0x5c
    32b8:	06a3      	lsls	r3, r4, #26
    32ba:	d400      	bmi.n	32be <_svfprintf_r+0x5e6>
    32bc:	e753      	b.n	3166 <_svfprintf_r+0x48e>
    32be:	2207      	movs	r2, #7
    32c0:	9b0f      	ldr	r3, [sp, #60]	; 0x3c
    32c2:	3307      	adds	r3, #7
    32c4:	4393      	bics	r3, r2
    32c6:	3201      	adds	r2, #1
    32c8:	4694      	mov	ip, r2
    32ca:	449c      	add	ip, r3
    32cc:	4662      	mov	r2, ip
    32ce:	920f      	str	r2, [sp, #60]	; 0x3c
    32d0:	681a      	ldr	r2, [r3, #0]
    32d2:	685b      	ldr	r3, [r3, #4]
    32d4:	920c      	str	r2, [sp, #48]	; 0x30
    32d6:	930d      	str	r3, [sp, #52]	; 0x34
    32d8:	07e3      	lsls	r3, r4, #31
    32da:	d500      	bpl.n	32de <_svfprintf_r+0x606>
    32dc:	e755      	b.n	318a <_svfprintf_r+0x4b2>
    32de:	990c      	ldr	r1, [sp, #48]	; 0x30
    32e0:	9a0d      	ldr	r2, [sp, #52]	; 0x34
    32e2:	0008      	movs	r0, r1
    32e4:	4310      	orrs	r0, r2
    32e6:	2302      	movs	r3, #2
    32e8:	0002      	movs	r2, r0
    32ea:	e6de      	b.n	30aa <_svfprintf_r+0x3d2>
    32ec:	468b      	mov	fp, r1
    32ee:	990f      	ldr	r1, [sp, #60]	; 0x3c
    32f0:	2230      	movs	r2, #48	; 0x30
    32f2:	680b      	ldr	r3, [r1, #0]
    32f4:	930c      	str	r3, [sp, #48]	; 0x30
    32f6:	2300      	movs	r3, #0
    32f8:	930d      	str	r3, [sp, #52]	; 0x34
    32fa:	3302      	adds	r3, #2
    32fc:	431c      	orrs	r4, r3
    32fe:	ab1e      	add	r3, sp, #120	; 0x78
    3300:	701a      	strb	r2, [r3, #0]
    3302:	3248      	adds	r2, #72	; 0x48
    3304:	705a      	strb	r2, [r3, #1]
    3306:	000b      	movs	r3, r1
    3308:	3304      	adds	r3, #4
    330a:	930f      	str	r3, [sp, #60]	; 0x3c
    330c:	4b4d      	ldr	r3, [pc, #308]	; (3444 <_svfprintf_r+0x76c>)
    330e:	9212      	str	r2, [sp, #72]	; 0x48
    3310:	9317      	str	r3, [sp, #92]	; 0x5c
    3312:	9a0c      	ldr	r2, [sp, #48]	; 0x30
    3314:	2302      	movs	r3, #2
    3316:	e6c8      	b.n	30aa <_svfprintf_r+0x3d2>
    3318:	2301      	movs	r3, #1
    331a:	431c      	orrs	r4, r3
    331c:	780b      	ldrb	r3, [r1, #0]
    331e:	e53f      	b.n	2da0 <_svfprintf_r+0xc8>
    3320:	9b0f      	ldr	r3, [sp, #60]	; 0x3c
    3322:	1d1a      	adds	r2, r3, #4
    3324:	681b      	ldr	r3, [r3, #0]
    3326:	930b      	str	r3, [sp, #44]	; 0x2c
    3328:	2b00      	cmp	r3, #0
    332a:	da00      	bge.n	332e <_svfprintf_r+0x656>
    332c:	e542      	b.n	2db4 <_svfprintf_r+0xdc>
    332e:	780b      	ldrb	r3, [r1, #0]
    3330:	920f      	str	r2, [sp, #60]	; 0x3c
    3332:	e535      	b.n	2da0 <_svfprintf_r+0xc8>
    3334:	780b      	ldrb	r3, [r1, #0]
    3336:	2800      	cmp	r0, #0
    3338:	d000      	beq.n	333c <_svfprintf_r+0x664>
    333a:	e531      	b.n	2da0 <_svfprintf_r+0xc8>
    333c:	2201      	movs	r2, #1
    333e:	3020      	adds	r0, #32
    3340:	4690      	mov	r8, r2
    3342:	e52d      	b.n	2da0 <_svfprintf_r+0xc8>
    3344:	468b      	mov	fp, r1
    3346:	9312      	str	r3, [sp, #72]	; 0x48
    3348:	06a3      	lsls	r3, r4, #26
    334a:	d400      	bmi.n	334e <_svfprintf_r+0x676>
    334c:	e6ed      	b.n	312a <_svfprintf_r+0x452>
    334e:	2207      	movs	r2, #7
    3350:	9b0f      	ldr	r3, [sp, #60]	; 0x3c
    3352:	3307      	adds	r3, #7
    3354:	4393      	bics	r3, r2
    3356:	3201      	adds	r2, #1
    3358:	4694      	mov	ip, r2
    335a:	449c      	add	ip, r3
    335c:	4662      	mov	r2, ip
    335e:	920f      	str	r2, [sp, #60]	; 0x3c
    3360:	681a      	ldr	r2, [r3, #0]
    3362:	685b      	ldr	r3, [r3, #4]
    3364:	0011      	movs	r1, r2
    3366:	001a      	movs	r2, r3
    3368:	0008      	movs	r0, r1
    336a:	4310      	orrs	r0, r2
    336c:	910c      	str	r1, [sp, #48]	; 0x30
    336e:	920d      	str	r2, [sp, #52]	; 0x34
    3370:	2301      	movs	r3, #1
    3372:	0002      	movs	r2, r0
    3374:	e699      	b.n	30aa <_svfprintf_r+0x3d2>
    3376:	468b      	mov	fp, r1
    3378:	9312      	str	r3, [sp, #72]	; 0x48
    337a:	06a3      	lsls	r3, r4, #26
    337c:	d400      	bmi.n	3380 <_svfprintf_r+0x6a8>
    337e:	e683      	b.n	3088 <_svfprintf_r+0x3b0>
    3380:	2207      	movs	r2, #7
    3382:	9b0f      	ldr	r3, [sp, #60]	; 0x3c
    3384:	3307      	adds	r3, #7
    3386:	4393      	bics	r3, r2
    3388:	3201      	adds	r2, #1
    338a:	4694      	mov	ip, r2
    338c:	449c      	add	ip, r3
    338e:	4662      	mov	r2, ip
    3390:	920f      	str	r2, [sp, #60]	; 0x3c
    3392:	681a      	ldr	r2, [r3, #0]
    3394:	685b      	ldr	r3, [r3, #4]
    3396:	0011      	movs	r1, r2
    3398:	001a      	movs	r2, r3
    339a:	0008      	movs	r0, r1
    339c:	4310      	orrs	r0, r2
    339e:	910c      	str	r1, [sp, #48]	; 0x30
    33a0:	920d      	str	r2, [sp, #52]	; 0x34
    33a2:	2300      	movs	r3, #0
    33a4:	0002      	movs	r2, r0
    33a6:	e680      	b.n	30aa <_svfprintf_r+0x3d2>
    33a8:	468b      	mov	fp, r1
    33aa:	4641      	mov	r1, r8
    33ac:	9312      	str	r3, [sp, #72]	; 0x48
    33ae:	2900      	cmp	r1, #0
    33b0:	d001      	beq.n	33b6 <_svfprintf_r+0x6de>
    33b2:	f000 ff7f 	bl	42b4 <_svfprintf_r+0x15dc>
    33b6:	9b12      	ldr	r3, [sp, #72]	; 0x48
    33b8:	2b00      	cmp	r3, #0
    33ba:	d100      	bne.n	33be <_svfprintf_r+0x6e6>
    33bc:	e50b      	b.n	2dd6 <_svfprintf_r+0xfe>
    33be:	ad28      	add	r5, sp, #160	; 0xa0
    33c0:	702b      	strb	r3, [r5, #0]
    33c2:	2300      	movs	r3, #0
    33c4:	aa16      	add	r2, sp, #88	; 0x58
    33c6:	77d3      	strb	r3, [r2, #31]
    33c8:	9408      	str	r4, [sp, #32]
    33ca:	e74e      	b.n	326a <_svfprintf_r+0x592>
    33cc:	68bc      	ldr	r4, [r7, #8]
    33ce:	4643      	mov	r3, r8
    33d0:	2b00      	cmp	r3, #0
    33d2:	d00f      	beq.n	33f4 <_svfprintf_r+0x71c>
    33d4:	aa16      	add	r2, sp, #88	; 0x58
    33d6:	231f      	movs	r3, #31
    33d8:	4694      	mov	ip, r2
    33da:	4463      	add	r3, ip
    33dc:	6033      	str	r3, [r6, #0]
    33de:	2301      	movs	r3, #1
    33e0:	6073      	str	r3, [r6, #4]
    33e2:	687b      	ldr	r3, [r7, #4]
    33e4:	3401      	adds	r4, #1
    33e6:	3301      	adds	r3, #1
    33e8:	60bc      	str	r4, [r7, #8]
    33ea:	607b      	str	r3, [r7, #4]
    33ec:	2b07      	cmp	r3, #7
    33ee:	dd00      	ble.n	33f2 <_svfprintf_r+0x71a>
    33f0:	e1b3      	b.n	375a <_svfprintf_r+0xa82>
    33f2:	3608      	adds	r6, #8
    33f4:	464b      	mov	r3, r9
    33f6:	2b00      	cmp	r3, #0
    33f8:	d00c      	beq.n	3414 <_svfprintf_r+0x73c>
    33fa:	ab1e      	add	r3, sp, #120	; 0x78
    33fc:	6033      	str	r3, [r6, #0]
    33fe:	2302      	movs	r3, #2
    3400:	6073      	str	r3, [r6, #4]
    3402:	687b      	ldr	r3, [r7, #4]
    3404:	3402      	adds	r4, #2
    3406:	3301      	adds	r3, #1
    3408:	60bc      	str	r4, [r7, #8]
    340a:	607b      	str	r3, [r7, #4]
    340c:	2b07      	cmp	r3, #7
    340e:	dd00      	ble.n	3412 <_svfprintf_r+0x73a>
    3410:	e1af      	b.n	3772 <_svfprintf_r+0xa9a>
    3412:	3608      	adds	r6, #8
    3414:	9b10      	ldr	r3, [sp, #64]	; 0x40
    3416:	2b80      	cmp	r3, #128	; 0x80
    3418:	d100      	bne.n	341c <_svfprintf_r+0x744>
    341a:	e120      	b.n	365e <_svfprintf_r+0x986>
    341c:	4653      	mov	r3, sl
    341e:	9a0e      	ldr	r2, [sp, #56]	; 0x38
    3420:	1a9d      	subs	r5, r3, r2
    3422:	2d00      	cmp	r5, #0
    3424:	dd3c      	ble.n	34a0 <_svfprintf_r+0x7c8>
    3426:	4a08      	ldr	r2, [pc, #32]	; (3448 <_svfprintf_r+0x770>)
    3428:	687b      	ldr	r3, [r7, #4]
    342a:	4691      	mov	r9, r2
    342c:	2d10      	cmp	r5, #16
    342e:	dd2c      	ble.n	348a <_svfprintf_r+0x7b2>
    3430:	2210      	movs	r2, #16
    3432:	0021      	movs	r1, r4
    3434:	4692      	mov	sl, r2
    3436:	9c09      	ldr	r4, [sp, #36]	; 0x24
    3438:	0032      	movs	r2, r6
    343a:	002e      	movs	r6, r5
    343c:	464d      	mov	r5, r9
    343e:	e009      	b.n	3454 <_svfprintf_r+0x77c>
    3440:	0000906c 	.word	0x0000906c
    3444:	00009080 	.word	0x00009080
    3448:	000090b0 	.word	0x000090b0
    344c:	3e10      	subs	r6, #16
    344e:	3208      	adds	r2, #8
    3450:	2e10      	cmp	r6, #16
    3452:	dd16      	ble.n	3482 <_svfprintf_r+0x7aa>
    3454:	4650      	mov	r0, sl
    3456:	3110      	adds	r1, #16
    3458:	3301      	adds	r3, #1
    345a:	6015      	str	r5, [r2, #0]
    345c:	6050      	str	r0, [r2, #4]
    345e:	60b9      	str	r1, [r7, #8]
    3460:	607b      	str	r3, [r7, #4]
    3462:	2b07      	cmp	r3, #7
    3464:	ddf2      	ble.n	344c <_svfprintf_r+0x774>
    3466:	003a      	movs	r2, r7
    3468:	9906      	ldr	r1, [sp, #24]
    346a:	0020      	movs	r0, r4
    346c:	f002 ff02 	bl	6274 <__ssprint_r>
    3470:	2800      	cmp	r0, #0
    3472:	d000      	beq.n	3476 <_svfprintf_r+0x79e>
    3474:	e4b7      	b.n	2de6 <_svfprintf_r+0x10e>
    3476:	3e10      	subs	r6, #16
    3478:	68b9      	ldr	r1, [r7, #8]
    347a:	687b      	ldr	r3, [r7, #4]
    347c:	aa32      	add	r2, sp, #200	; 0xc8
    347e:	2e10      	cmp	r6, #16
    3480:	dce8      	bgt.n	3454 <_svfprintf_r+0x77c>
    3482:	46a9      	mov	r9, r5
    3484:	000c      	movs	r4, r1
    3486:	0035      	movs	r5, r6
    3488:	0016      	movs	r6, r2
    348a:	464a      	mov	r2, r9
    348c:	1964      	adds	r4, r4, r5
    348e:	3301      	adds	r3, #1
    3490:	6032      	str	r2, [r6, #0]
    3492:	6075      	str	r5, [r6, #4]
    3494:	60bc      	str	r4, [r7, #8]
    3496:	607b      	str	r3, [r7, #4]
    3498:	2b07      	cmp	r3, #7
    349a:	dd00      	ble.n	349e <_svfprintf_r+0x7c6>
    349c:	e151      	b.n	3742 <_svfprintf_r+0xa6a>
    349e:	3608      	adds	r6, #8
    34a0:	9b08      	ldr	r3, [sp, #32]
    34a2:	05db      	lsls	r3, r3, #23
    34a4:	d500      	bpl.n	34a8 <_svfprintf_r+0x7d0>
    34a6:	e0b6      	b.n	3616 <_svfprintf_r+0x93e>
    34a8:	9b11      	ldr	r3, [sp, #68]	; 0x44
    34aa:	6033      	str	r3, [r6, #0]
    34ac:	9b0e      	ldr	r3, [sp, #56]	; 0x38
    34ae:	469c      	mov	ip, r3
    34b0:	6073      	str	r3, [r6, #4]
    34b2:	687b      	ldr	r3, [r7, #4]
    34b4:	4464      	add	r4, ip
    34b6:	3301      	adds	r3, #1
    34b8:	60bc      	str	r4, [r7, #8]
    34ba:	607b      	str	r3, [r7, #4]
    34bc:	2b07      	cmp	r3, #7
    34be:	dd00      	ble.n	34c2 <_svfprintf_r+0x7ea>
    34c0:	e09d      	b.n	35fe <_svfprintf_r+0x926>
    34c2:	3608      	adds	r6, #8
    34c4:	9b08      	ldr	r3, [sp, #32]
    34c6:	075b      	lsls	r3, r3, #29
    34c8:	d541      	bpl.n	354e <_svfprintf_r+0x876>
    34ca:	9b0b      	ldr	r3, [sp, #44]	; 0x2c
    34cc:	9a07      	ldr	r2, [sp, #28]
    34ce:	1a9d      	subs	r5, r3, r2
    34d0:	2d00      	cmp	r5, #0
    34d2:	dd3c      	ble.n	354e <_svfprintf_r+0x876>
    34d4:	4ac4      	ldr	r2, [pc, #784]	; (37e8 <_svfprintf_r+0xb10>)
    34d6:	687b      	ldr	r3, [r7, #4]
    34d8:	4690      	mov	r8, r2
    34da:	2d10      	cmp	r5, #16
    34dc:	dd26      	ble.n	352c <_svfprintf_r+0x854>
    34de:	2210      	movs	r2, #16
    34e0:	0021      	movs	r1, r4
    34e2:	4691      	mov	r9, r2
    34e4:	9c09      	ldr	r4, [sp, #36]	; 0x24
    34e6:	0032      	movs	r2, r6
    34e8:	002e      	movs	r6, r5
    34ea:	9d06      	ldr	r5, [sp, #24]
    34ec:	e003      	b.n	34f6 <_svfprintf_r+0x81e>
    34ee:	3e10      	subs	r6, #16
    34f0:	3208      	adds	r2, #8
    34f2:	2e10      	cmp	r6, #16
    34f4:	dd17      	ble.n	3526 <_svfprintf_r+0x84e>
    34f6:	48bc      	ldr	r0, [pc, #752]	; (37e8 <_svfprintf_r+0xb10>)
    34f8:	3110      	adds	r1, #16
    34fa:	6010      	str	r0, [r2, #0]
    34fc:	4648      	mov	r0, r9
    34fe:	3301      	adds	r3, #1
    3500:	6050      	str	r0, [r2, #4]
    3502:	60b9      	str	r1, [r7, #8]
    3504:	607b      	str	r3, [r7, #4]
    3506:	2b07      	cmp	r3, #7
    3508:	ddf1      	ble.n	34ee <_svfprintf_r+0x816>
    350a:	003a      	movs	r2, r7
    350c:	0029      	movs	r1, r5
    350e:	0020      	movs	r0, r4
    3510:	f002 feb0 	bl	6274 <__ssprint_r>
    3514:	2800      	cmp	r0, #0
    3516:	d000      	beq.n	351a <_svfprintf_r+0x842>
    3518:	e465      	b.n	2de6 <_svfprintf_r+0x10e>
    351a:	3e10      	subs	r6, #16
    351c:	68b9      	ldr	r1, [r7, #8]
    351e:	687b      	ldr	r3, [r7, #4]
    3520:	aa32      	add	r2, sp, #200	; 0xc8
    3522:	2e10      	cmp	r6, #16
    3524:	dce7      	bgt.n	34f6 <_svfprintf_r+0x81e>
    3526:	0035      	movs	r5, r6
    3528:	000c      	movs	r4, r1
    352a:	0016      	movs	r6, r2
    352c:	4642      	mov	r2, r8
    352e:	1964      	adds	r4, r4, r5
    3530:	3301      	adds	r3, #1
    3532:	c624      	stmia	r6!, {r2, r5}
    3534:	60bc      	str	r4, [r7, #8]
    3536:	607b      	str	r3, [r7, #4]
    3538:	2b07      	cmp	r3, #7
    353a:	dd08      	ble.n	354e <_svfprintf_r+0x876>
    353c:	003a      	movs	r2, r7
    353e:	9906      	ldr	r1, [sp, #24]
    3540:	9809      	ldr	r0, [sp, #36]	; 0x24
    3542:	f002 fe97 	bl	6274 <__ssprint_r>
    3546:	2800      	cmp	r0, #0
    3548:	d000      	beq.n	354c <_svfprintf_r+0x874>
    354a:	e44c      	b.n	2de6 <_svfprintf_r+0x10e>
    354c:	68bc      	ldr	r4, [r7, #8]
    354e:	9b0b      	ldr	r3, [sp, #44]	; 0x2c
    3550:	9907      	ldr	r1, [sp, #28]
    3552:	428b      	cmp	r3, r1
    3554:	da00      	bge.n	3558 <_svfprintf_r+0x880>
    3556:	000b      	movs	r3, r1
    3558:	9a0a      	ldr	r2, [sp, #40]	; 0x28
    355a:	4694      	mov	ip, r2
    355c:	449c      	add	ip, r3
    355e:	4663      	mov	r3, ip
    3560:	930a      	str	r3, [sp, #40]	; 0x28
    3562:	2c00      	cmp	r4, #0
    3564:	d000      	beq.n	3568 <_svfprintf_r+0x890>
    3566:	e0d6      	b.n	3716 <_svfprintf_r+0xa3e>
    3568:	2300      	movs	r3, #0
    356a:	ae32      	add	r6, sp, #200	; 0xc8
    356c:	607b      	str	r3, [r7, #4]
    356e:	f7ff fbde 	bl	2d2e <_svfprintf_r+0x56>
    3572:	9b14      	ldr	r3, [sp, #80]	; 0x50
    3574:	2b01      	cmp	r3, #1
    3576:	dc00      	bgt.n	357a <_svfprintf_r+0x8a2>
    3578:	e0ae      	b.n	36d8 <_svfprintf_r+0xa00>
    357a:	9b11      	ldr	r3, [sp, #68]	; 0x44
    357c:	3401      	adds	r4, #1
    357e:	6033      	str	r3, [r6, #0]
    3580:	2301      	movs	r3, #1
    3582:	6073      	str	r3, [r6, #4]
    3584:	687b      	ldr	r3, [r7, #4]
    3586:	60bc      	str	r4, [r7, #8]
    3588:	3301      	adds	r3, #1
    358a:	607b      	str	r3, [r7, #4]
    358c:	2b07      	cmp	r3, #7
    358e:	dd00      	ble.n	3592 <_svfprintf_r+0x8ba>
    3590:	e2df      	b.n	3b52 <_svfprintf_r+0xe7a>
    3592:	3608      	adds	r6, #8
    3594:	9a19      	ldr	r2, [sp, #100]	; 0x64
    3596:	3301      	adds	r3, #1
    3598:	6032      	str	r2, [r6, #0]
    359a:	9a18      	ldr	r2, [sp, #96]	; 0x60
    359c:	4698      	mov	r8, r3
    359e:	4694      	mov	ip, r2
    35a0:	4464      	add	r4, ip
    35a2:	6072      	str	r2, [r6, #4]
    35a4:	60bc      	str	r4, [r7, #8]
    35a6:	607b      	str	r3, [r7, #4]
    35a8:	2b07      	cmp	r3, #7
    35aa:	dd00      	ble.n	35ae <_svfprintf_r+0x8d6>
    35ac:	e2de      	b.n	3b6c <_svfprintf_r+0xe94>
    35ae:	3608      	adds	r6, #8
    35b0:	2200      	movs	r2, #0
    35b2:	2300      	movs	r3, #0
    35b4:	9816      	ldr	r0, [sp, #88]	; 0x58
    35b6:	9915      	ldr	r1, [sp, #84]	; 0x54
    35b8:	f003 fb02 	bl	6bc0 <__aeabi_dcmpeq>
    35bc:	2800      	cmp	r0, #0
    35be:	d000      	beq.n	35c2 <_svfprintf_r+0x8ea>
    35c0:	e1a4      	b.n	390c <_svfprintf_r+0xc34>
    35c2:	9d11      	ldr	r5, [sp, #68]	; 0x44
    35c4:	9b14      	ldr	r3, [sp, #80]	; 0x50
    35c6:	3501      	adds	r5, #1
    35c8:	3b01      	subs	r3, #1
    35ca:	6035      	str	r5, [r6, #0]
    35cc:	6073      	str	r3, [r6, #4]
    35ce:	18e4      	adds	r4, r4, r3
    35d0:	2301      	movs	r3, #1
    35d2:	469c      	mov	ip, r3
    35d4:	44e0      	add	r8, ip
    35d6:	4643      	mov	r3, r8
    35d8:	60bc      	str	r4, [r7, #8]
    35da:	607b      	str	r3, [r7, #4]
    35dc:	2b07      	cmp	r3, #7
    35de:	dd00      	ble.n	35e2 <_svfprintf_r+0x90a>
    35e0:	e08b      	b.n	36fa <_svfprintf_r+0xa22>
    35e2:	3608      	adds	r6, #8
    35e4:	ab21      	add	r3, sp, #132	; 0x84
    35e6:	6033      	str	r3, [r6, #0]
    35e8:	9b1a      	ldr	r3, [sp, #104]	; 0x68
    35ea:	469c      	mov	ip, r3
    35ec:	6073      	str	r3, [r6, #4]
    35ee:	4643      	mov	r3, r8
    35f0:	4464      	add	r4, ip
    35f2:	3301      	adds	r3, #1
    35f4:	60bc      	str	r4, [r7, #8]
    35f6:	607b      	str	r3, [r7, #4]
    35f8:	2b07      	cmp	r3, #7
    35fa:	dc00      	bgt.n	35fe <_svfprintf_r+0x926>
    35fc:	e761      	b.n	34c2 <_svfprintf_r+0x7ea>
    35fe:	003a      	movs	r2, r7
    3600:	9906      	ldr	r1, [sp, #24]
    3602:	9809      	ldr	r0, [sp, #36]	; 0x24
    3604:	f002 fe36 	bl	6274 <__ssprint_r>
    3608:	2800      	cmp	r0, #0
    360a:	d001      	beq.n	3610 <_svfprintf_r+0x938>
    360c:	f7ff fbeb 	bl	2de6 <_svfprintf_r+0x10e>
    3610:	68bc      	ldr	r4, [r7, #8]
    3612:	ae32      	add	r6, sp, #200	; 0xc8
    3614:	e756      	b.n	34c4 <_svfprintf_r+0x7ec>
    3616:	9b12      	ldr	r3, [sp, #72]	; 0x48
    3618:	2b65      	cmp	r3, #101	; 0x65
    361a:	ddaa      	ble.n	3572 <_svfprintf_r+0x89a>
    361c:	2200      	movs	r2, #0
    361e:	2300      	movs	r3, #0
    3620:	9816      	ldr	r0, [sp, #88]	; 0x58
    3622:	9915      	ldr	r1, [sp, #84]	; 0x54
    3624:	f003 facc 	bl	6bc0 <__aeabi_dcmpeq>
    3628:	2800      	cmp	r0, #0
    362a:	d100      	bne.n	362e <_svfprintf_r+0x956>
    362c:	e0e2      	b.n	37f4 <_svfprintf_r+0xb1c>
    362e:	4b6f      	ldr	r3, [pc, #444]	; (37ec <_svfprintf_r+0xb14>)
    3630:	3401      	adds	r4, #1
    3632:	6033      	str	r3, [r6, #0]
    3634:	2301      	movs	r3, #1
    3636:	6073      	str	r3, [r6, #4]
    3638:	687b      	ldr	r3, [r7, #4]
    363a:	60bc      	str	r4, [r7, #8]
    363c:	3301      	adds	r3, #1
    363e:	607b      	str	r3, [r7, #4]
    3640:	2b07      	cmp	r3, #7
    3642:	dd00      	ble.n	3646 <_svfprintf_r+0x96e>
    3644:	e366      	b.n	3d14 <_svfprintf_r+0x103c>
    3646:	3608      	adds	r6, #8
    3648:	9b1f      	ldr	r3, [sp, #124]	; 0x7c
    364a:	9a14      	ldr	r2, [sp, #80]	; 0x50
    364c:	4293      	cmp	r3, r2
    364e:	da00      	bge.n	3652 <_svfprintf_r+0x97a>
    3650:	e1a4      	b.n	399c <_svfprintf_r+0xcc4>
    3652:	9b08      	ldr	r3, [sp, #32]
    3654:	07db      	lsls	r3, r3, #31
    3656:	d500      	bpl.n	365a <_svfprintf_r+0x982>
    3658:	e1a0      	b.n	399c <_svfprintf_r+0xcc4>
    365a:	68bc      	ldr	r4, [r7, #8]
    365c:	e732      	b.n	34c4 <_svfprintf_r+0x7ec>
    365e:	9b0b      	ldr	r3, [sp, #44]	; 0x2c
    3660:	9a07      	ldr	r2, [sp, #28]
    3662:	1a9d      	subs	r5, r3, r2
    3664:	2d00      	cmp	r5, #0
    3666:	dc00      	bgt.n	366a <_svfprintf_r+0x992>
    3668:	e6d8      	b.n	341c <_svfprintf_r+0x744>
    366a:	4a61      	ldr	r2, [pc, #388]	; (37f0 <_svfprintf_r+0xb18>)
    366c:	687b      	ldr	r3, [r7, #4]
    366e:	4691      	mov	r9, r2
    3670:	2d10      	cmp	r5, #16
    3672:	dd25      	ble.n	36c0 <_svfprintf_r+0x9e8>
    3674:	2210      	movs	r2, #16
    3676:	0021      	movs	r1, r4
    3678:	4690      	mov	r8, r2
    367a:	9c09      	ldr	r4, [sp, #36]	; 0x24
    367c:	0032      	movs	r2, r6
    367e:	464e      	mov	r6, r9
    3680:	e003      	b.n	368a <_svfprintf_r+0x9b2>
    3682:	3d10      	subs	r5, #16
    3684:	3208      	adds	r2, #8
    3686:	2d10      	cmp	r5, #16
    3688:	dd17      	ble.n	36ba <_svfprintf_r+0x9e2>
    368a:	4640      	mov	r0, r8
    368c:	3110      	adds	r1, #16
    368e:	3301      	adds	r3, #1
    3690:	6016      	str	r6, [r2, #0]
    3692:	6050      	str	r0, [r2, #4]
    3694:	60b9      	str	r1, [r7, #8]
    3696:	607b      	str	r3, [r7, #4]
    3698:	2b07      	cmp	r3, #7
    369a:	ddf2      	ble.n	3682 <_svfprintf_r+0x9aa>
    369c:	003a      	movs	r2, r7
    369e:	9906      	ldr	r1, [sp, #24]
    36a0:	0020      	movs	r0, r4
    36a2:	f002 fde7 	bl	6274 <__ssprint_r>
    36a6:	2800      	cmp	r0, #0
    36a8:	d001      	beq.n	36ae <_svfprintf_r+0x9d6>
    36aa:	f7ff fb9c 	bl	2de6 <_svfprintf_r+0x10e>
    36ae:	3d10      	subs	r5, #16
    36b0:	68b9      	ldr	r1, [r7, #8]
    36b2:	687b      	ldr	r3, [r7, #4]
    36b4:	aa32      	add	r2, sp, #200	; 0xc8
    36b6:	2d10      	cmp	r5, #16
    36b8:	dce7      	bgt.n	368a <_svfprintf_r+0x9b2>
    36ba:	46b1      	mov	r9, r6
    36bc:	000c      	movs	r4, r1
    36be:	0016      	movs	r6, r2
    36c0:	464a      	mov	r2, r9
    36c2:	1964      	adds	r4, r4, r5
    36c4:	3301      	adds	r3, #1
    36c6:	6032      	str	r2, [r6, #0]
    36c8:	6075      	str	r5, [r6, #4]
    36ca:	60bc      	str	r4, [r7, #8]
    36cc:	607b      	str	r3, [r7, #4]
    36ce:	2b07      	cmp	r3, #7
    36d0:	dd00      	ble.n	36d4 <_svfprintf_r+0x9fc>
    36d2:	e27e      	b.n	3bd2 <_svfprintf_r+0xefa>
    36d4:	3608      	adds	r6, #8
    36d6:	e6a1      	b.n	341c <_svfprintf_r+0x744>
    36d8:	2301      	movs	r3, #1
    36da:	9a08      	ldr	r2, [sp, #32]
    36dc:	4213      	tst	r3, r2
    36de:	d000      	beq.n	36e2 <_svfprintf_r+0xa0a>
    36e0:	e74b      	b.n	357a <_svfprintf_r+0x8a2>
    36e2:	6073      	str	r3, [r6, #4]
    36e4:	687b      	ldr	r3, [r7, #4]
    36e6:	9a11      	ldr	r2, [sp, #68]	; 0x44
    36e8:	3301      	adds	r3, #1
    36ea:	3401      	adds	r4, #1
    36ec:	6032      	str	r2, [r6, #0]
    36ee:	60bc      	str	r4, [r7, #8]
    36f0:	4698      	mov	r8, r3
    36f2:	607b      	str	r3, [r7, #4]
    36f4:	2b07      	cmp	r3, #7
    36f6:	dc00      	bgt.n	36fa <_svfprintf_r+0xa22>
    36f8:	e773      	b.n	35e2 <_svfprintf_r+0x90a>
    36fa:	003a      	movs	r2, r7
    36fc:	9906      	ldr	r1, [sp, #24]
    36fe:	9809      	ldr	r0, [sp, #36]	; 0x24
    3700:	f002 fdb8 	bl	6274 <__ssprint_r>
    3704:	2800      	cmp	r0, #0
    3706:	d001      	beq.n	370c <_svfprintf_r+0xa34>
    3708:	f7ff fb6d 	bl	2de6 <_svfprintf_r+0x10e>
    370c:	687b      	ldr	r3, [r7, #4]
    370e:	68bc      	ldr	r4, [r7, #8]
    3710:	4698      	mov	r8, r3
    3712:	ae32      	add	r6, sp, #200	; 0xc8
    3714:	e766      	b.n	35e4 <_svfprintf_r+0x90c>
    3716:	003a      	movs	r2, r7
    3718:	9906      	ldr	r1, [sp, #24]
    371a:	9809      	ldr	r0, [sp, #36]	; 0x24
    371c:	f002 fdaa 	bl	6274 <__ssprint_r>
    3720:	2800      	cmp	r0, #0
    3722:	d100      	bne.n	3726 <_svfprintf_r+0xa4e>
    3724:	e720      	b.n	3568 <_svfprintf_r+0x890>
    3726:	f7ff fb5e 	bl	2de6 <_svfprintf_r+0x10e>
    372a:	9c08      	ldr	r4, [sp, #32]
    372c:	2b01      	cmp	r3, #1
    372e:	d100      	bne.n	3732 <_svfprintf_r+0xa5a>
    3730:	e184      	b.n	3a3c <_svfprintf_r+0xd64>
    3732:	2b02      	cmp	r3, #2
    3734:	d129      	bne.n	378a <_svfprintf_r+0xab2>
    3736:	9408      	str	r4, [sp, #32]
    3738:	2300      	movs	r3, #0
    373a:	2400      	movs	r4, #0
    373c:	930c      	str	r3, [sp, #48]	; 0x30
    373e:	940d      	str	r4, [sp, #52]	; 0x34
    3740:	e4c5      	b.n	30ce <_svfprintf_r+0x3f6>
    3742:	003a      	movs	r2, r7
    3744:	9906      	ldr	r1, [sp, #24]
    3746:	9809      	ldr	r0, [sp, #36]	; 0x24
    3748:	f002 fd94 	bl	6274 <__ssprint_r>
    374c:	2800      	cmp	r0, #0
    374e:	d001      	beq.n	3754 <_svfprintf_r+0xa7c>
    3750:	f7ff fb49 	bl	2de6 <_svfprintf_r+0x10e>
    3754:	68bc      	ldr	r4, [r7, #8]
    3756:	ae32      	add	r6, sp, #200	; 0xc8
    3758:	e6a2      	b.n	34a0 <_svfprintf_r+0x7c8>
    375a:	003a      	movs	r2, r7
    375c:	9906      	ldr	r1, [sp, #24]
    375e:	9809      	ldr	r0, [sp, #36]	; 0x24
    3760:	f002 fd88 	bl	6274 <__ssprint_r>
    3764:	2800      	cmp	r0, #0
    3766:	d001      	beq.n	376c <_svfprintf_r+0xa94>
    3768:	f7ff fb3d 	bl	2de6 <_svfprintf_r+0x10e>
    376c:	68bc      	ldr	r4, [r7, #8]
    376e:	ae32      	add	r6, sp, #200	; 0xc8
    3770:	e640      	b.n	33f4 <_svfprintf_r+0x71c>
    3772:	003a      	movs	r2, r7
    3774:	9906      	ldr	r1, [sp, #24]
    3776:	9809      	ldr	r0, [sp, #36]	; 0x24
    3778:	f002 fd7c 	bl	6274 <__ssprint_r>
    377c:	2800      	cmp	r0, #0
    377e:	d001      	beq.n	3784 <_svfprintf_r+0xaac>
    3780:	f7ff fb31 	bl	2de6 <_svfprintf_r+0x10e>
    3784:	68bc      	ldr	r4, [r7, #8]
    3786:	ae32      	add	r6, sp, #200	; 0xc8
    3788:	e644      	b.n	3414 <_svfprintf_r+0x73c>
    378a:	9408      	str	r4, [sp, #32]
    378c:	2300      	movs	r3, #0
    378e:	2400      	movs	r4, #0
    3790:	930c      	str	r3, [sp, #48]	; 0x30
    3792:	940d      	str	r4, [sp, #52]	; 0x34
    3794:	980c      	ldr	r0, [sp, #48]	; 0x30
    3796:	990d      	ldr	r1, [sp, #52]	; 0x34
    3798:	465b      	mov	r3, fp
    379a:	aa32      	add	r2, sp, #200	; 0xc8
    379c:	9307      	str	r3, [sp, #28]
    379e:	4691      	mov	r9, r2
    37a0:	46b3      	mov	fp, r6
    37a2:	e000      	b.n	37a6 <_svfprintf_r+0xace>
    37a4:	46a1      	mov	r9, r4
    37a6:	074a      	lsls	r2, r1, #29
    37a8:	4694      	mov	ip, r2
    37aa:	464b      	mov	r3, r9
    37ac:	4665      	mov	r5, ip
    37ae:	1e5c      	subs	r4, r3, #1
    37b0:	08c6      	lsrs	r6, r0, #3
    37b2:	2307      	movs	r3, #7
    37b4:	08ca      	lsrs	r2, r1, #3
    37b6:	4335      	orrs	r5, r6
    37b8:	0011      	movs	r1, r2
    37ba:	002a      	movs	r2, r5
    37bc:	4003      	ands	r3, r0
    37be:	3330      	adds	r3, #48	; 0x30
    37c0:	7023      	strb	r3, [r4, #0]
    37c2:	0028      	movs	r0, r5
    37c4:	430a      	orrs	r2, r1
    37c6:	d1ed      	bne.n	37a4 <_svfprintf_r+0xacc>
    37c8:	900c      	str	r0, [sp, #48]	; 0x30
    37ca:	910d      	str	r1, [sp, #52]	; 0x34
    37cc:	9907      	ldr	r1, [sp, #28]
    37ce:	465e      	mov	r6, fp
    37d0:	468b      	mov	fp, r1
    37d2:	9908      	ldr	r1, [sp, #32]
    37d4:	464a      	mov	r2, r9
    37d6:	9411      	str	r4, [sp, #68]	; 0x44
    37d8:	07c9      	lsls	r1, r1, #31
    37da:	d500      	bpl.n	37de <_svfprintf_r+0xb06>
    37dc:	e13d      	b.n	3a5a <_svfprintf_r+0xd82>
    37de:	ab32      	add	r3, sp, #200	; 0xc8
    37e0:	1b1b      	subs	r3, r3, r4
    37e2:	930e      	str	r3, [sp, #56]	; 0x38
    37e4:	f7ff fb88 	bl	2ef8 <_svfprintf_r+0x220>
    37e8:	000090a0 	.word	0x000090a0
    37ec:	0000909c 	.word	0x0000909c
    37f0:	000090b0 	.word	0x000090b0
    37f4:	981f      	ldr	r0, [sp, #124]	; 0x7c
    37f6:	2800      	cmp	r0, #0
    37f8:	dc00      	bgt.n	37fc <_svfprintf_r+0xb24>
    37fa:	e296      	b.n	3d2a <_svfprintf_r+0x1052>
    37fc:	9a13      	ldr	r2, [sp, #76]	; 0x4c
    37fe:	9914      	ldr	r1, [sp, #80]	; 0x50
    3800:	0013      	movs	r3, r2
    3802:	4690      	mov	r8, r2
    3804:	428b      	cmp	r3, r1
    3806:	dd00      	ble.n	380a <_svfprintf_r+0xb32>
    3808:	4688      	mov	r8, r1
    380a:	4643      	mov	r3, r8
    380c:	2b00      	cmp	r3, #0
    380e:	dd0c      	ble.n	382a <_svfprintf_r+0xb52>
    3810:	9b11      	ldr	r3, [sp, #68]	; 0x44
    3812:	4444      	add	r4, r8
    3814:	6033      	str	r3, [r6, #0]
    3816:	4643      	mov	r3, r8
    3818:	6073      	str	r3, [r6, #4]
    381a:	687b      	ldr	r3, [r7, #4]
    381c:	60bc      	str	r4, [r7, #8]
    381e:	3301      	adds	r3, #1
    3820:	607b      	str	r3, [r7, #4]
    3822:	2b07      	cmp	r3, #7
    3824:	dd00      	ble.n	3828 <_svfprintf_r+0xb50>
    3826:	e3b7      	b.n	3f98 <_svfprintf_r+0x12c0>
    3828:	3608      	adds	r6, #8
    382a:	4643      	mov	r3, r8
    382c:	43db      	mvns	r3, r3
    382e:	4642      	mov	r2, r8
    3830:	17db      	asrs	r3, r3, #31
    3832:	4013      	ands	r3, r2
    3834:	9a13      	ldr	r2, [sp, #76]	; 0x4c
    3836:	1ad3      	subs	r3, r2, r3
    3838:	4698      	mov	r8, r3
    383a:	2b00      	cmp	r3, #0
    383c:	dc00      	bgt.n	3840 <_svfprintf_r+0xb68>
    383e:	e128      	b.n	3a92 <_svfprintf_r+0xdba>
    3840:	2b10      	cmp	r3, #16
    3842:	dc01      	bgt.n	3848 <_svfprintf_r+0xb70>
    3844:	f000 fce7 	bl	4216 <_svfprintf_r+0x153e>
    3848:	4acf      	ldr	r2, [pc, #828]	; (3b88 <_svfprintf_r+0xeb0>)
    384a:	0021      	movs	r1, r4
    384c:	4691      	mov	r9, r2
    384e:	2210      	movs	r2, #16
    3850:	687b      	ldr	r3, [r7, #4]
    3852:	4692      	mov	sl, r2
    3854:	9d09      	ldr	r5, [sp, #36]	; 0x24
    3856:	0032      	movs	r2, r6
    3858:	464c      	mov	r4, r9
    385a:	4646      	mov	r6, r8
    385c:	e004      	b.n	3868 <_svfprintf_r+0xb90>
    385e:	3208      	adds	r2, #8
    3860:	3e10      	subs	r6, #16
    3862:	2e10      	cmp	r6, #16
    3864:	dc00      	bgt.n	3868 <_svfprintf_r+0xb90>
    3866:	e104      	b.n	3a72 <_svfprintf_r+0xd9a>
    3868:	4650      	mov	r0, sl
    386a:	3110      	adds	r1, #16
    386c:	3301      	adds	r3, #1
    386e:	6014      	str	r4, [r2, #0]
    3870:	6050      	str	r0, [r2, #4]
    3872:	60b9      	str	r1, [r7, #8]
    3874:	607b      	str	r3, [r7, #4]
    3876:	2b07      	cmp	r3, #7
    3878:	ddf1      	ble.n	385e <_svfprintf_r+0xb86>
    387a:	003a      	movs	r2, r7
    387c:	9906      	ldr	r1, [sp, #24]
    387e:	0028      	movs	r0, r5
    3880:	f002 fcf8 	bl	6274 <__ssprint_r>
    3884:	2800      	cmp	r0, #0
    3886:	d001      	beq.n	388c <_svfprintf_r+0xbb4>
    3888:	f7ff faad 	bl	2de6 <_svfprintf_r+0x10e>
    388c:	68b9      	ldr	r1, [r7, #8]
    388e:	687b      	ldr	r3, [r7, #4]
    3890:	aa32      	add	r2, sp, #200	; 0xc8
    3892:	e7e5      	b.n	3860 <_svfprintf_r+0xb88>
    3894:	9b0d      	ldr	r3, [sp, #52]	; 0x34
    3896:	2b00      	cmp	r3, #0
    3898:	d100      	bne.n	389c <_svfprintf_r+0xbc4>
    389a:	e0ca      	b.n	3a32 <_svfprintf_r+0xd5a>
    389c:	9c0c      	ldr	r4, [sp, #48]	; 0x30
    389e:	9d0d      	ldr	r5, [sp, #52]	; 0x34
    38a0:	ab32      	add	r3, sp, #200	; 0xc8
    38a2:	46b1      	mov	r9, r6
    38a4:	001e      	movs	r6, r3
    38a6:	0020      	movs	r0, r4
    38a8:	0029      	movs	r1, r5
    38aa:	220a      	movs	r2, #10
    38ac:	2300      	movs	r3, #0
    38ae:	f003 f9b5 	bl	6c1c <__aeabi_uldivmod>
    38b2:	3e01      	subs	r6, #1
    38b4:	3230      	adds	r2, #48	; 0x30
    38b6:	7032      	strb	r2, [r6, #0]
    38b8:	2300      	movs	r3, #0
    38ba:	0020      	movs	r0, r4
    38bc:	0029      	movs	r1, r5
    38be:	220a      	movs	r2, #10
    38c0:	f003 f9ac 	bl	6c1c <__aeabi_uldivmod>
    38c4:	0003      	movs	r3, r0
    38c6:	0004      	movs	r4, r0
    38c8:	000d      	movs	r5, r1
    38ca:	430b      	orrs	r3, r1
    38cc:	d1eb      	bne.n	38a6 <_svfprintf_r+0xbce>
    38ce:	0032      	movs	r2, r6
    38d0:	ab32      	add	r3, sp, #200	; 0xc8
    38d2:	1a9b      	subs	r3, r3, r2
    38d4:	9611      	str	r6, [sp, #68]	; 0x44
    38d6:	940c      	str	r4, [sp, #48]	; 0x30
    38d8:	950d      	str	r5, [sp, #52]	; 0x34
    38da:	464e      	mov	r6, r9
    38dc:	930e      	str	r3, [sp, #56]	; 0x38
    38de:	f7ff fb0b 	bl	2ef8 <_svfprintf_r+0x220>
    38e2:	2300      	movs	r3, #0
    38e4:	930e      	str	r3, [sp, #56]	; 0x38
    38e6:	ab32      	add	r3, sp, #200	; 0xc8
    38e8:	9311      	str	r3, [sp, #68]	; 0x44
    38ea:	f7ff fb05 	bl	2ef8 <_svfprintf_r+0x220>
    38ee:	003a      	movs	r2, r7
    38f0:	9906      	ldr	r1, [sp, #24]
    38f2:	9809      	ldr	r0, [sp, #36]	; 0x24
    38f4:	f002 fcbe 	bl	6274 <__ssprint_r>
    38f8:	2800      	cmp	r0, #0
    38fa:	d001      	beq.n	3900 <_svfprintf_r+0xc28>
    38fc:	f7ff fa73 	bl	2de6 <_svfprintf_r+0x10e>
    3900:	ab16      	add	r3, sp, #88	; 0x58
    3902:	7fdb      	ldrb	r3, [r3, #31]
    3904:	68bc      	ldr	r4, [r7, #8]
    3906:	4698      	mov	r8, r3
    3908:	ae32      	add	r6, sp, #200	; 0xc8
    390a:	e560      	b.n	33ce <_svfprintf_r+0x6f6>
    390c:	9b14      	ldr	r3, [sp, #80]	; 0x50
    390e:	1e5d      	subs	r5, r3, #1
    3910:	2d00      	cmp	r5, #0
    3912:	dc00      	bgt.n	3916 <_svfprintf_r+0xc3e>
    3914:	e666      	b.n	35e4 <_svfprintf_r+0x90c>
    3916:	4b9c      	ldr	r3, [pc, #624]	; (3b88 <_svfprintf_r+0xeb0>)
    3918:	4699      	mov	r9, r3
    391a:	2d10      	cmp	r5, #16
    391c:	dd29      	ble.n	3972 <_svfprintf_r+0xc9a>
    391e:	2310      	movs	r3, #16
    3920:	0032      	movs	r2, r6
    3922:	469a      	mov	sl, r3
    3924:	002e      	movs	r6, r5
    3926:	0021      	movs	r1, r4
    3928:	4643      	mov	r3, r8
    392a:	9c09      	ldr	r4, [sp, #36]	; 0x24
    392c:	464d      	mov	r5, r9
    392e:	e003      	b.n	3938 <_svfprintf_r+0xc60>
    3930:	3e10      	subs	r6, #16
    3932:	3208      	adds	r2, #8
    3934:	2e10      	cmp	r6, #16
    3936:	dd17      	ble.n	3968 <_svfprintf_r+0xc90>
    3938:	4650      	mov	r0, sl
    393a:	3110      	adds	r1, #16
    393c:	3301      	adds	r3, #1
    393e:	6015      	str	r5, [r2, #0]
    3940:	6050      	str	r0, [r2, #4]
    3942:	60b9      	str	r1, [r7, #8]
    3944:	607b      	str	r3, [r7, #4]
    3946:	2b07      	cmp	r3, #7
    3948:	ddf2      	ble.n	3930 <_svfprintf_r+0xc58>
    394a:	003a      	movs	r2, r7
    394c:	9906      	ldr	r1, [sp, #24]
    394e:	0020      	movs	r0, r4
    3950:	f002 fc90 	bl	6274 <__ssprint_r>
    3954:	2800      	cmp	r0, #0
    3956:	d001      	beq.n	395c <_svfprintf_r+0xc84>
    3958:	f7ff fa45 	bl	2de6 <_svfprintf_r+0x10e>
    395c:	3e10      	subs	r6, #16
    395e:	68b9      	ldr	r1, [r7, #8]
    3960:	687b      	ldr	r3, [r7, #4]
    3962:	aa32      	add	r2, sp, #200	; 0xc8
    3964:	2e10      	cmp	r6, #16
    3966:	dce7      	bgt.n	3938 <_svfprintf_r+0xc60>
    3968:	46a9      	mov	r9, r5
    396a:	000c      	movs	r4, r1
    396c:	0035      	movs	r5, r6
    396e:	4698      	mov	r8, r3
    3970:	0016      	movs	r6, r2
    3972:	464b      	mov	r3, r9
    3974:	6075      	str	r5, [r6, #4]
    3976:	6033      	str	r3, [r6, #0]
    3978:	1964      	adds	r4, r4, r5
    397a:	e629      	b.n	35d0 <_svfprintf_r+0x8f8>
    397c:	9b0f      	ldr	r3, [sp, #60]	; 0x3c
    397e:	681a      	ldr	r2, [r3, #0]
    3980:	f7ff fbfb 	bl	317a <_svfprintf_r+0x4a2>
    3984:	6813      	ldr	r3, [r2, #0]
    3986:	9307      	str	r3, [sp, #28]
    3988:	f7ff fa82 	bl	2e90 <_svfprintf_r+0x1b8>
    398c:	9b0f      	ldr	r3, [sp, #60]	; 0x3c
    398e:	681a      	ldr	r2, [r3, #0]
    3990:	f7ff fb84 	bl	309c <_svfprintf_r+0x3c4>
    3994:	9b0f      	ldr	r3, [sp, #60]	; 0x3c
    3996:	681a      	ldr	r2, [r3, #0]
    3998:	f7ff fbd1 	bl	313e <_svfprintf_r+0x466>
    399c:	9b19      	ldr	r3, [sp, #100]	; 0x64
    399e:	68ba      	ldr	r2, [r7, #8]
    39a0:	6033      	str	r3, [r6, #0]
    39a2:	9b18      	ldr	r3, [sp, #96]	; 0x60
    39a4:	469c      	mov	ip, r3
    39a6:	6073      	str	r3, [r6, #4]
    39a8:	687b      	ldr	r3, [r7, #4]
    39aa:	4462      	add	r2, ip
    39ac:	3301      	adds	r3, #1
    39ae:	0014      	movs	r4, r2
    39b0:	60ba      	str	r2, [r7, #8]
    39b2:	607b      	str	r3, [r7, #4]
    39b4:	2b07      	cmp	r3, #7
    39b6:	dd00      	ble.n	39ba <_svfprintf_r+0xce2>
    39b8:	e202      	b.n	3dc0 <_svfprintf_r+0x10e8>
    39ba:	3608      	adds	r6, #8
    39bc:	9b14      	ldr	r3, [sp, #80]	; 0x50
    39be:	1e5d      	subs	r5, r3, #1
    39c0:	2d00      	cmp	r5, #0
    39c2:	dc00      	bgt.n	39c6 <_svfprintf_r+0xcee>
    39c4:	e57e      	b.n	34c4 <_svfprintf_r+0x7ec>
    39c6:	4a70      	ldr	r2, [pc, #448]	; (3b88 <_svfprintf_r+0xeb0>)
    39c8:	687b      	ldr	r3, [r7, #4]
    39ca:	4691      	mov	r9, r2
    39cc:	2d10      	cmp	r5, #16
    39ce:	dd25      	ble.n	3a1c <_svfprintf_r+0xd44>
    39d0:	2210      	movs	r2, #16
    39d2:	0021      	movs	r1, r4
    39d4:	4690      	mov	r8, r2
    39d6:	9c09      	ldr	r4, [sp, #36]	; 0x24
    39d8:	0032      	movs	r2, r6
    39da:	002e      	movs	r6, r5
    39dc:	464d      	mov	r5, r9
    39de:	e003      	b.n	39e8 <_svfprintf_r+0xd10>
    39e0:	3208      	adds	r2, #8
    39e2:	3e10      	subs	r6, #16
    39e4:	2e10      	cmp	r6, #16
    39e6:	dd15      	ble.n	3a14 <_svfprintf_r+0xd3c>
    39e8:	4640      	mov	r0, r8
    39ea:	3110      	adds	r1, #16
    39ec:	3301      	adds	r3, #1
    39ee:	6015      	str	r5, [r2, #0]
    39f0:	6050      	str	r0, [r2, #4]
    39f2:	60b9      	str	r1, [r7, #8]
    39f4:	607b      	str	r3, [r7, #4]
    39f6:	2b07      	cmp	r3, #7
    39f8:	ddf2      	ble.n	39e0 <_svfprintf_r+0xd08>
    39fa:	003a      	movs	r2, r7
    39fc:	9906      	ldr	r1, [sp, #24]
    39fe:	0020      	movs	r0, r4
    3a00:	f002 fc38 	bl	6274 <__ssprint_r>
    3a04:	2800      	cmp	r0, #0
    3a06:	d001      	beq.n	3a0c <_svfprintf_r+0xd34>
    3a08:	f7ff f9ed 	bl	2de6 <_svfprintf_r+0x10e>
    3a0c:	68b9      	ldr	r1, [r7, #8]
    3a0e:	687b      	ldr	r3, [r7, #4]
    3a10:	aa32      	add	r2, sp, #200	; 0xc8
    3a12:	e7e6      	b.n	39e2 <_svfprintf_r+0xd0a>
    3a14:	46a9      	mov	r9, r5
    3a16:	000c      	movs	r4, r1
    3a18:	0035      	movs	r5, r6
    3a1a:	0016      	movs	r6, r2
    3a1c:	464a      	mov	r2, r9
    3a1e:	1964      	adds	r4, r4, r5
    3a20:	3301      	adds	r3, #1
    3a22:	6032      	str	r2, [r6, #0]
    3a24:	6075      	str	r5, [r6, #4]
    3a26:	60bc      	str	r4, [r7, #8]
    3a28:	607b      	str	r3, [r7, #4]
    3a2a:	2b07      	cmp	r3, #7
    3a2c:	dc00      	bgt.n	3a30 <_svfprintf_r+0xd58>
    3a2e:	e548      	b.n	34c2 <_svfprintf_r+0x7ea>
    3a30:	e5e5      	b.n	35fe <_svfprintf_r+0x926>
    3a32:	9b0c      	ldr	r3, [sp, #48]	; 0x30
    3a34:	2b09      	cmp	r3, #9
    3a36:	d900      	bls.n	3a3a <_svfprintf_r+0xd62>
    3a38:	e730      	b.n	389c <_svfprintf_r+0xbc4>
    3a3a:	9c08      	ldr	r4, [sp, #32]
    3a3c:	2227      	movs	r2, #39	; 0x27
    3a3e:	9b0c      	ldr	r3, [sp, #48]	; 0x30
    3a40:	a928      	add	r1, sp, #160	; 0xa0
    3a42:	3330      	adds	r3, #48	; 0x30
    3a44:	548b      	strb	r3, [r1, r2]
    3a46:	2301      	movs	r3, #1
    3a48:	aa16      	add	r2, sp, #88	; 0x58
    3a4a:	4694      	mov	ip, r2
    3a4c:	930e      	str	r3, [sp, #56]	; 0x38
    3a4e:	336e      	adds	r3, #110	; 0x6e
    3a50:	4463      	add	r3, ip
    3a52:	9408      	str	r4, [sp, #32]
    3a54:	9311      	str	r3, [sp, #68]	; 0x44
    3a56:	f7ff fa4f 	bl	2ef8 <_svfprintf_r+0x220>
    3a5a:	2b30      	cmp	r3, #48	; 0x30
    3a5c:	d100      	bne.n	3a60 <_svfprintf_r+0xd88>
    3a5e:	e20b      	b.n	3e78 <_svfprintf_r+0x11a0>
    3a60:	2330      	movs	r3, #48	; 0x30
    3a62:	3a02      	subs	r2, #2
    3a64:	7013      	strb	r3, [r2, #0]
    3a66:	ab32      	add	r3, sp, #200	; 0xc8
    3a68:	1a9b      	subs	r3, r3, r2
    3a6a:	930e      	str	r3, [sp, #56]	; 0x38
    3a6c:	9211      	str	r2, [sp, #68]	; 0x44
    3a6e:	f7ff fa43 	bl	2ef8 <_svfprintf_r+0x220>
    3a72:	46b0      	mov	r8, r6
    3a74:	46a1      	mov	r9, r4
    3a76:	0016      	movs	r6, r2
    3a78:	000c      	movs	r4, r1
    3a7a:	464a      	mov	r2, r9
    3a7c:	6032      	str	r2, [r6, #0]
    3a7e:	4642      	mov	r2, r8
    3a80:	4444      	add	r4, r8
    3a82:	3301      	adds	r3, #1
    3a84:	6072      	str	r2, [r6, #4]
    3a86:	60bc      	str	r4, [r7, #8]
    3a88:	607b      	str	r3, [r7, #4]
    3a8a:	2b07      	cmp	r3, #7
    3a8c:	dd00      	ble.n	3a90 <_svfprintf_r+0xdb8>
    3a8e:	e29c      	b.n	3fca <_svfprintf_r+0x12f2>
    3a90:	3608      	adds	r6, #8
    3a92:	9b1f      	ldr	r3, [sp, #124]	; 0x7c
    3a94:	9a14      	ldr	r2, [sp, #80]	; 0x50
    3a96:	4293      	cmp	r3, r2
    3a98:	db4c      	blt.n	3b34 <_svfprintf_r+0xe5c>
    3a9a:	9a08      	ldr	r2, [sp, #32]
    3a9c:	07d2      	lsls	r2, r2, #31
    3a9e:	d449      	bmi.n	3b34 <_svfprintf_r+0xe5c>
    3aa0:	9a14      	ldr	r2, [sp, #80]	; 0x50
    3aa2:	9913      	ldr	r1, [sp, #76]	; 0x4c
    3aa4:	1ad3      	subs	r3, r2, r3
    3aa6:	1a52      	subs	r2, r2, r1
    3aa8:	4690      	mov	r8, r2
    3aaa:	429a      	cmp	r2, r3
    3aac:	dd00      	ble.n	3ab0 <_svfprintf_r+0xdd8>
    3aae:	4698      	mov	r8, r3
    3ab0:	4642      	mov	r2, r8
    3ab2:	2a00      	cmp	r2, #0
    3ab4:	dd0f      	ble.n	3ad6 <_svfprintf_r+0xdfe>
    3ab6:	9913      	ldr	r1, [sp, #76]	; 0x4c
    3ab8:	9a11      	ldr	r2, [sp, #68]	; 0x44
    3aba:	468c      	mov	ip, r1
    3abc:	4462      	add	r2, ip
    3abe:	6032      	str	r2, [r6, #0]
    3ac0:	4642      	mov	r2, r8
    3ac2:	6072      	str	r2, [r6, #4]
    3ac4:	687a      	ldr	r2, [r7, #4]
    3ac6:	4444      	add	r4, r8
    3ac8:	3201      	adds	r2, #1
    3aca:	60bc      	str	r4, [r7, #8]
    3acc:	607a      	str	r2, [r7, #4]
    3ace:	2a07      	cmp	r2, #7
    3ad0:	dd00      	ble.n	3ad4 <_svfprintf_r+0xdfc>
    3ad2:	e286      	b.n	3fe2 <_svfprintf_r+0x130a>
    3ad4:	3608      	adds	r6, #8
    3ad6:	4642      	mov	r2, r8
    3ad8:	43d5      	mvns	r5, r2
    3ada:	17ed      	asrs	r5, r5, #31
    3adc:	4015      	ands	r5, r2
    3ade:	1b5d      	subs	r5, r3, r5
    3ae0:	2d00      	cmp	r5, #0
    3ae2:	dc00      	bgt.n	3ae6 <_svfprintf_r+0xe0e>
    3ae4:	e4ee      	b.n	34c4 <_svfprintf_r+0x7ec>
    3ae6:	4a28      	ldr	r2, [pc, #160]	; (3b88 <_svfprintf_r+0xeb0>)
    3ae8:	687b      	ldr	r3, [r7, #4]
    3aea:	4691      	mov	r9, r2
    3aec:	2d10      	cmp	r5, #16
    3aee:	dd95      	ble.n	3a1c <_svfprintf_r+0xd44>
    3af0:	2210      	movs	r2, #16
    3af2:	0021      	movs	r1, r4
    3af4:	4690      	mov	r8, r2
    3af6:	9c09      	ldr	r4, [sp, #36]	; 0x24
    3af8:	0032      	movs	r2, r6
    3afa:	002e      	movs	r6, r5
    3afc:	464d      	mov	r5, r9
    3afe:	e003      	b.n	3b08 <_svfprintf_r+0xe30>
    3b00:	3208      	adds	r2, #8
    3b02:	3e10      	subs	r6, #16
    3b04:	2e10      	cmp	r6, #16
    3b06:	dd85      	ble.n	3a14 <_svfprintf_r+0xd3c>
    3b08:	4640      	mov	r0, r8
    3b0a:	3110      	adds	r1, #16
    3b0c:	3301      	adds	r3, #1
    3b0e:	6015      	str	r5, [r2, #0]
    3b10:	6050      	str	r0, [r2, #4]
    3b12:	60b9      	str	r1, [r7, #8]
    3b14:	607b      	str	r3, [r7, #4]
    3b16:	2b07      	cmp	r3, #7
    3b18:	ddf2      	ble.n	3b00 <_svfprintf_r+0xe28>
    3b1a:	003a      	movs	r2, r7
    3b1c:	9906      	ldr	r1, [sp, #24]
    3b1e:	0020      	movs	r0, r4
    3b20:	f002 fba8 	bl	6274 <__ssprint_r>
    3b24:	2800      	cmp	r0, #0
    3b26:	d001      	beq.n	3b2c <_svfprintf_r+0xe54>
    3b28:	f7ff f95d 	bl	2de6 <_svfprintf_r+0x10e>
    3b2c:	68b9      	ldr	r1, [r7, #8]
    3b2e:	687b      	ldr	r3, [r7, #4]
    3b30:	aa32      	add	r2, sp, #200	; 0xc8
    3b32:	e7e6      	b.n	3b02 <_svfprintf_r+0xe2a>
    3b34:	9a19      	ldr	r2, [sp, #100]	; 0x64
    3b36:	6032      	str	r2, [r6, #0]
    3b38:	9a18      	ldr	r2, [sp, #96]	; 0x60
    3b3a:	4694      	mov	ip, r2
    3b3c:	6072      	str	r2, [r6, #4]
    3b3e:	687a      	ldr	r2, [r7, #4]
    3b40:	4464      	add	r4, ip
    3b42:	3201      	adds	r2, #1
    3b44:	60bc      	str	r4, [r7, #8]
    3b46:	607a      	str	r2, [r7, #4]
    3b48:	2a07      	cmp	r2, #7
    3b4a:	dd00      	ble.n	3b4e <_svfprintf_r+0xe76>
    3b4c:	e230      	b.n	3fb0 <_svfprintf_r+0x12d8>
    3b4e:	3608      	adds	r6, #8
    3b50:	e7a6      	b.n	3aa0 <_svfprintf_r+0xdc8>
    3b52:	003a      	movs	r2, r7
    3b54:	9906      	ldr	r1, [sp, #24]
    3b56:	9809      	ldr	r0, [sp, #36]	; 0x24
    3b58:	f002 fb8c 	bl	6274 <__ssprint_r>
    3b5c:	2800      	cmp	r0, #0
    3b5e:	d001      	beq.n	3b64 <_svfprintf_r+0xe8c>
    3b60:	f7ff f941 	bl	2de6 <_svfprintf_r+0x10e>
    3b64:	68bc      	ldr	r4, [r7, #8]
    3b66:	687b      	ldr	r3, [r7, #4]
    3b68:	ae32      	add	r6, sp, #200	; 0xc8
    3b6a:	e513      	b.n	3594 <_svfprintf_r+0x8bc>
    3b6c:	003a      	movs	r2, r7
    3b6e:	9906      	ldr	r1, [sp, #24]
    3b70:	9809      	ldr	r0, [sp, #36]	; 0x24
    3b72:	f002 fb7f 	bl	6274 <__ssprint_r>
    3b76:	2800      	cmp	r0, #0
    3b78:	d001      	beq.n	3b7e <_svfprintf_r+0xea6>
    3b7a:	f7ff f934 	bl	2de6 <_svfprintf_r+0x10e>
    3b7e:	687b      	ldr	r3, [r7, #4]
    3b80:	68bc      	ldr	r4, [r7, #8]
    3b82:	4698      	mov	r8, r3
    3b84:	ae32      	add	r6, sp, #200	; 0xc8
    3b86:	e513      	b.n	35b0 <_svfprintf_r+0x8d8>
    3b88:	000090b0 	.word	0x000090b0
    3b8c:	2307      	movs	r3, #7
    3b8e:	3207      	adds	r2, #7
    3b90:	439a      	bics	r2, r3
    3b92:	3301      	adds	r3, #1
    3b94:	469c      	mov	ip, r3
    3b96:	4494      	add	ip, r2
    3b98:	4663      	mov	r3, ip
    3b9a:	930f      	str	r3, [sp, #60]	; 0x3c
    3b9c:	6853      	ldr	r3, [r2, #4]
    3b9e:	6812      	ldr	r2, [r2, #0]
    3ba0:	930d      	str	r3, [sp, #52]	; 0x34
    3ba2:	920c      	str	r2, [sp, #48]	; 0x30
    3ba4:	2b00      	cmp	r3, #0
    3ba6:	db01      	blt.n	3bac <_svfprintf_r+0xed4>
    3ba8:	f7ff f97a 	bl	2ea0 <_svfprintf_r+0x1c8>
    3bac:	980c      	ldr	r0, [sp, #48]	; 0x30
    3bae:	990d      	ldr	r1, [sp, #52]	; 0x34
    3bb0:	2300      	movs	r3, #0
    3bb2:	4242      	negs	r2, r0
    3bb4:	418b      	sbcs	r3, r1
    3bb6:	0011      	movs	r1, r2
    3bb8:	001a      	movs	r2, r3
    3bba:	232d      	movs	r3, #45	; 0x2d
    3bbc:	a816      	add	r0, sp, #88	; 0x58
    3bbe:	77c3      	strb	r3, [r0, #31]
    3bc0:	0008      	movs	r0, r1
    3bc2:	4310      	orrs	r0, r2
    3bc4:	910c      	str	r1, [sp, #48]	; 0x30
    3bc6:	920d      	str	r2, [sp, #52]	; 0x34
    3bc8:	4698      	mov	r8, r3
    3bca:	0002      	movs	r2, r0
    3bcc:	3b2c      	subs	r3, #44	; 0x2c
    3bce:	f7ff f970 	bl	2eb2 <_svfprintf_r+0x1da>
    3bd2:	003a      	movs	r2, r7
    3bd4:	9906      	ldr	r1, [sp, #24]
    3bd6:	9809      	ldr	r0, [sp, #36]	; 0x24
    3bd8:	f002 fb4c 	bl	6274 <__ssprint_r>
    3bdc:	2800      	cmp	r0, #0
    3bde:	d001      	beq.n	3be4 <_svfprintf_r+0xf0c>
    3be0:	f7ff f901 	bl	2de6 <_svfprintf_r+0x10e>
    3be4:	68bc      	ldr	r4, [r7, #8]
    3be6:	ae32      	add	r6, sp, #200	; 0xc8
    3be8:	e418      	b.n	341c <_svfprintf_r+0x744>
    3bea:	9916      	ldr	r1, [sp, #88]	; 0x58
    3bec:	9d15      	ldr	r5, [sp, #84]	; 0x54
    3bee:	000a      	movs	r2, r1
    3bf0:	0008      	movs	r0, r1
    3bf2:	002b      	movs	r3, r5
    3bf4:	0029      	movs	r1, r5
    3bf6:	f004 fdcb 	bl	8790 <__aeabi_dcmpun>
    3bfa:	2800      	cmp	r0, #0
    3bfc:	d000      	beq.n	3c00 <_svfprintf_r+0xf28>
    3bfe:	e2e6      	b.n	41ce <_svfprintf_r+0x14f6>
    3c00:	4653      	mov	r3, sl
    3c02:	3301      	adds	r3, #1
    3c04:	d100      	bne.n	3c08 <_svfprintf_r+0xf30>
    3c06:	e20d      	b.n	4024 <_svfprintf_r+0x134c>
    3c08:	2320      	movs	r3, #32
    3c0a:	9a12      	ldr	r2, [sp, #72]	; 0x48
    3c0c:	439a      	bics	r2, r3
    3c0e:	920e      	str	r2, [sp, #56]	; 0x38
    3c10:	2a47      	cmp	r2, #71	; 0x47
    3c12:	d100      	bne.n	3c16 <_svfprintf_r+0xf3e>
    3c14:	e11c      	b.n	3e50 <_svfprintf_r+0x1178>
    3c16:	2380      	movs	r3, #128	; 0x80
    3c18:	005b      	lsls	r3, r3, #1
    3c1a:	4323      	orrs	r3, r4
    3c1c:	9308      	str	r3, [sp, #32]
    3c1e:	9b15      	ldr	r3, [sp, #84]	; 0x54
    3c20:	2b00      	cmp	r3, #0
    3c22:	da00      	bge.n	3c26 <_svfprintf_r+0xf4e>
    3c24:	e221      	b.n	406a <_svfprintf_r+0x1392>
    3c26:	9a16      	ldr	r2, [sp, #88]	; 0x58
    3c28:	9307      	str	r3, [sp, #28]
    3c2a:	2300      	movs	r3, #0
    3c2c:	4691      	mov	r9, r2
    3c2e:	9310      	str	r3, [sp, #64]	; 0x40
    3c30:	9b12      	ldr	r3, [sp, #72]	; 0x48
    3c32:	2b66      	cmp	r3, #102	; 0x66
    3c34:	d100      	bne.n	3c38 <_svfprintf_r+0xf60>
    3c36:	e1fc      	b.n	4032 <_svfprintf_r+0x135a>
    3c38:	2b46      	cmp	r3, #70	; 0x46
    3c3a:	d100      	bne.n	3c3e <_svfprintf_r+0xf66>
    3c3c:	e0db      	b.n	3df6 <_svfprintf_r+0x111e>
    3c3e:	9a0e      	ldr	r2, [sp, #56]	; 0x38
    3c40:	9809      	ldr	r0, [sp, #36]	; 0x24
    3c42:	3a45      	subs	r2, #69	; 0x45
    3c44:	0013      	movs	r3, r2
    3c46:	4259      	negs	r1, r3
    3c48:	4159      	adcs	r1, r3
    3c4a:	ab20      	add	r3, sp, #128	; 0x80
    3c4c:	000d      	movs	r5, r1
    3c4e:	9303      	str	r3, [sp, #12]
    3c50:	ab1f      	add	r3, sp, #124	; 0x7c
    3c52:	9302      	str	r3, [sp, #8]
    3c54:	2302      	movs	r3, #2
    3c56:	aa23      	add	r2, sp, #140	; 0x8c
    3c58:	4455      	add	r5, sl
    3c5a:	921b      	str	r2, [sp, #108]	; 0x6c
    3c5c:	9204      	str	r2, [sp, #16]
    3c5e:	9300      	str	r3, [sp, #0]
    3c60:	9501      	str	r5, [sp, #4]
    3c62:	9b07      	ldr	r3, [sp, #28]
    3c64:	464a      	mov	r2, r9
    3c66:	f000 fc43 	bl	44f0 <_dtoa_r>
    3c6a:	9b12      	ldr	r3, [sp, #72]	; 0x48
    3c6c:	9011      	str	r0, [sp, #68]	; 0x44
    3c6e:	2b67      	cmp	r3, #103	; 0x67
    3c70:	d000      	beq.n	3c74 <_svfprintf_r+0xf9c>
    3c72:	e239      	b.n	40e8 <_svfprintf_r+0x1410>
    3c74:	9b11      	ldr	r3, [sp, #68]	; 0x44
    3c76:	4698      	mov	r8, r3
    3c78:	44a8      	add	r8, r5
    3c7a:	07e3      	lsls	r3, r4, #31
    3c7c:	d400      	bmi.n	3c80 <_svfprintf_r+0xfa8>
    3c7e:	e28b      	b.n	4198 <_svfprintf_r+0x14c0>
    3c80:	2300      	movs	r3, #0
    3c82:	2200      	movs	r2, #0
    3c84:	4648      	mov	r0, r9
    3c86:	9907      	ldr	r1, [sp, #28]
    3c88:	f002 ff9a 	bl	6bc0 <__aeabi_dcmpeq>
    3c8c:	4643      	mov	r3, r8
    3c8e:	2800      	cmp	r0, #0
    3c90:	d10a      	bne.n	3ca8 <_svfprintf_r+0xfd0>
    3c92:	9b23      	ldr	r3, [sp, #140]	; 0x8c
    3c94:	4543      	cmp	r3, r8
    3c96:	d207      	bcs.n	3ca8 <_svfprintf_r+0xfd0>
    3c98:	2130      	movs	r1, #48	; 0x30
    3c9a:	4640      	mov	r0, r8
    3c9c:	1c5a      	adds	r2, r3, #1
    3c9e:	9223      	str	r2, [sp, #140]	; 0x8c
    3ca0:	7019      	strb	r1, [r3, #0]
    3ca2:	9b23      	ldr	r3, [sp, #140]	; 0x8c
    3ca4:	4298      	cmp	r0, r3
    3ca6:	d8f9      	bhi.n	3c9c <_svfprintf_r+0xfc4>
    3ca8:	9a11      	ldr	r2, [sp, #68]	; 0x44
    3caa:	1a9b      	subs	r3, r3, r2
    3cac:	9314      	str	r3, [sp, #80]	; 0x50
    3cae:	9b0e      	ldr	r3, [sp, #56]	; 0x38
    3cb0:	2b47      	cmp	r3, #71	; 0x47
    3cb2:	d100      	bne.n	3cb6 <_svfprintf_r+0xfde>
    3cb4:	e0f6      	b.n	3ea4 <_svfprintf_r+0x11cc>
    3cb6:	9b12      	ldr	r3, [sp, #72]	; 0x48
    3cb8:	2b65      	cmp	r3, #101	; 0x65
    3cba:	dc00      	bgt.n	3cbe <_svfprintf_r+0xfe6>
    3cbc:	e226      	b.n	410c <_svfprintf_r+0x1434>
    3cbe:	9b12      	ldr	r3, [sp, #72]	; 0x48
    3cc0:	2b66      	cmp	r3, #102	; 0x66
    3cc2:	d100      	bne.n	3cc6 <_svfprintf_r+0xfee>
    3cc4:	e1f4      	b.n	40b0 <_svfprintf_r+0x13d8>
    3cc6:	9b1f      	ldr	r3, [sp, #124]	; 0x7c
    3cc8:	9313      	str	r3, [sp, #76]	; 0x4c
    3cca:	9b14      	ldr	r3, [sp, #80]	; 0x50
    3ccc:	9a13      	ldr	r2, [sp, #76]	; 0x4c
    3cce:	0019      	movs	r1, r3
    3cd0:	4291      	cmp	r1, r2
    3cd2:	dd00      	ble.n	3cd6 <_svfprintf_r+0xffe>
    3cd4:	e1d4      	b.n	4080 <_svfprintf_r+0x13a8>
    3cd6:	07e3      	lsls	r3, r4, #31
    3cd8:	d500      	bpl.n	3cdc <_svfprintf_r+0x1004>
    3cda:	e249      	b.n	4170 <_svfprintf_r+0x1498>
    3cdc:	43d3      	mvns	r3, r2
    3cde:	17db      	asrs	r3, r3, #31
    3ce0:	0011      	movs	r1, r2
    3ce2:	401a      	ands	r2, r3
    3ce4:	2367      	movs	r3, #103	; 0x67
    3ce6:	9207      	str	r2, [sp, #28]
    3ce8:	910e      	str	r1, [sp, #56]	; 0x38
    3cea:	9312      	str	r3, [sp, #72]	; 0x48
    3cec:	9b10      	ldr	r3, [sp, #64]	; 0x40
    3cee:	2b00      	cmp	r3, #0
    3cf0:	d000      	beq.n	3cf4 <_svfprintf_r+0x101c>
    3cf2:	e0cf      	b.n	3e94 <_svfprintf_r+0x11bc>
    3cf4:	ab16      	add	r3, sp, #88	; 0x58
    3cf6:	7fdb      	ldrb	r3, [r3, #31]
    3cf8:	4698      	mov	r8, r3
    3cfa:	2300      	movs	r3, #0
    3cfc:	469a      	mov	sl, r3
    3cfe:	f7ff f903 	bl	2f08 <_svfprintf_r+0x230>
    3d02:	9a0f      	ldr	r2, [sp, #60]	; 0x3c
    3d04:	990a      	ldr	r1, [sp, #40]	; 0x28
    3d06:	6813      	ldr	r3, [r2, #0]
    3d08:	6019      	str	r1, [r3, #0]
    3d0a:	0013      	movs	r3, r2
    3d0c:	3304      	adds	r3, #4
    3d0e:	930f      	str	r3, [sp, #60]	; 0x3c
    3d10:	f7ff f80d 	bl	2d2e <_svfprintf_r+0x56>
    3d14:	003a      	movs	r2, r7
    3d16:	9906      	ldr	r1, [sp, #24]
    3d18:	9809      	ldr	r0, [sp, #36]	; 0x24
    3d1a:	f002 faab 	bl	6274 <__ssprint_r>
    3d1e:	2800      	cmp	r0, #0
    3d20:	d001      	beq.n	3d26 <_svfprintf_r+0x104e>
    3d22:	f7ff f860 	bl	2de6 <_svfprintf_r+0x10e>
    3d26:	ae32      	add	r6, sp, #200	; 0xc8
    3d28:	e48e      	b.n	3648 <_svfprintf_r+0x970>
    3d2a:	4bde      	ldr	r3, [pc, #888]	; (40a4 <_svfprintf_r+0x13cc>)
    3d2c:	3401      	adds	r4, #1
    3d2e:	6033      	str	r3, [r6, #0]
    3d30:	2301      	movs	r3, #1
    3d32:	6073      	str	r3, [r6, #4]
    3d34:	687b      	ldr	r3, [r7, #4]
    3d36:	60bc      	str	r4, [r7, #8]
    3d38:	3301      	adds	r3, #1
    3d3a:	607b      	str	r3, [r7, #4]
    3d3c:	2b07      	cmp	r3, #7
    3d3e:	dc7a      	bgt.n	3e36 <_svfprintf_r+0x115e>
    3d40:	3608      	adds	r6, #8
    3d42:	2800      	cmp	r0, #0
    3d44:	d107      	bne.n	3d56 <_svfprintf_r+0x107e>
    3d46:	9b14      	ldr	r3, [sp, #80]	; 0x50
    3d48:	2b00      	cmp	r3, #0
    3d4a:	d104      	bne.n	3d56 <_svfprintf_r+0x107e>
    3d4c:	9b08      	ldr	r3, [sp, #32]
    3d4e:	07db      	lsls	r3, r3, #31
    3d50:	d401      	bmi.n	3d56 <_svfprintf_r+0x107e>
    3d52:	f7ff fbb7 	bl	34c4 <_svfprintf_r+0x7ec>
    3d56:	9b19      	ldr	r3, [sp, #100]	; 0x64
    3d58:	6033      	str	r3, [r6, #0]
    3d5a:	9b18      	ldr	r3, [sp, #96]	; 0x60
    3d5c:	1919      	adds	r1, r3, r4
    3d5e:	6073      	str	r3, [r6, #4]
    3d60:	687b      	ldr	r3, [r7, #4]
    3d62:	60b9      	str	r1, [r7, #8]
    3d64:	3301      	adds	r3, #1
    3d66:	607b      	str	r3, [r7, #4]
    3d68:	2b07      	cmp	r3, #7
    3d6a:	dd00      	ble.n	3d6e <_svfprintf_r+0x1096>
    3d6c:	e1f2      	b.n	4154 <_svfprintf_r+0x147c>
    3d6e:	0032      	movs	r2, r6
    3d70:	3208      	adds	r2, #8
    3d72:	2800      	cmp	r0, #0
    3d74:	da00      	bge.n	3d78 <_svfprintf_r+0x10a0>
    3d76:	e1cc      	b.n	4112 <_svfprintf_r+0x143a>
    3d78:	9811      	ldr	r0, [sp, #68]	; 0x44
    3d7a:	3301      	adds	r3, #1
    3d7c:	6010      	str	r0, [r2, #0]
    3d7e:	9814      	ldr	r0, [sp, #80]	; 0x50
    3d80:	607b      	str	r3, [r7, #4]
    3d82:	1844      	adds	r4, r0, r1
    3d84:	6050      	str	r0, [r2, #4]
    3d86:	60bc      	str	r4, [r7, #8]
    3d88:	2b07      	cmp	r3, #7
    3d8a:	dd00      	ble.n	3d8e <_svfprintf_r+0x10b6>
    3d8c:	e437      	b.n	35fe <_svfprintf_r+0x926>
    3d8e:	3208      	adds	r2, #8
    3d90:	0016      	movs	r6, r2
    3d92:	f7ff fb97 	bl	34c4 <_svfprintf_r+0x7ec>
    3d96:	990f      	ldr	r1, [sp, #60]	; 0x3c
    3d98:	9a0a      	ldr	r2, [sp, #40]	; 0x28
    3d9a:	680b      	ldr	r3, [r1, #0]
    3d9c:	601a      	str	r2, [r3, #0]
    3d9e:	17d2      	asrs	r2, r2, #31
    3da0:	605a      	str	r2, [r3, #4]
    3da2:	000b      	movs	r3, r1
    3da4:	3304      	adds	r3, #4
    3da6:	930f      	str	r3, [sp, #60]	; 0x3c
    3da8:	f7fe ffc1 	bl	2d2e <_svfprintf_r+0x56>
    3dac:	464b      	mov	r3, r9
    3dae:	3101      	adds	r1, #1
    3db0:	431c      	orrs	r4, r3
    3db2:	780b      	ldrb	r3, [r1, #0]
    3db4:	f7fe fff4 	bl	2da0 <_svfprintf_r+0xc8>
    3db8:	4bbb      	ldr	r3, [pc, #748]	; (40a8 <_svfprintf_r+0x13d0>)
    3dba:	9311      	str	r3, [sp, #68]	; 0x44
    3dbc:	f7ff f937 	bl	302e <_svfprintf_r+0x356>
    3dc0:	003a      	movs	r2, r7
    3dc2:	9906      	ldr	r1, [sp, #24]
    3dc4:	9809      	ldr	r0, [sp, #36]	; 0x24
    3dc6:	f002 fa55 	bl	6274 <__ssprint_r>
    3dca:	2800      	cmp	r0, #0
    3dcc:	d001      	beq.n	3dd2 <_svfprintf_r+0x10fa>
    3dce:	f7ff f80a 	bl	2de6 <_svfprintf_r+0x10e>
    3dd2:	68bc      	ldr	r4, [r7, #8]
    3dd4:	ae32      	add	r6, sp, #200	; 0xc8
    3dd6:	e5f1      	b.n	39bc <_svfprintf_r+0xce4>
    3dd8:	2140      	movs	r1, #64	; 0x40
    3dda:	9809      	ldr	r0, [sp, #36]	; 0x24
    3ddc:	f001 fb78 	bl	54d0 <_malloc_r>
    3de0:	9b06      	ldr	r3, [sp, #24]
    3de2:	6018      	str	r0, [r3, #0]
    3de4:	6118      	str	r0, [r3, #16]
    3de6:	2800      	cmp	r0, #0
    3de8:	d100      	bne.n	3dec <_svfprintf_r+0x1114>
    3dea:	e24f      	b.n	428c <_svfprintf_r+0x15b4>
    3dec:	2340      	movs	r3, #64	; 0x40
    3dee:	9a06      	ldr	r2, [sp, #24]
    3df0:	6153      	str	r3, [r2, #20]
    3df2:	f7fe ff8e 	bl	2d12 <_svfprintf_r+0x3a>
    3df6:	ab23      	add	r3, sp, #140	; 0x8c
    3df8:	931b      	str	r3, [sp, #108]	; 0x6c
    3dfa:	9304      	str	r3, [sp, #16]
    3dfc:	ab20      	add	r3, sp, #128	; 0x80
    3dfe:	9303      	str	r3, [sp, #12]
    3e00:	ab1f      	add	r3, sp, #124	; 0x7c
    3e02:	9302      	str	r3, [sp, #8]
    3e04:	4653      	mov	r3, sl
    3e06:	9301      	str	r3, [sp, #4]
    3e08:	2303      	movs	r3, #3
    3e0a:	464a      	mov	r2, r9
    3e0c:	9300      	str	r3, [sp, #0]
    3e0e:	9809      	ldr	r0, [sp, #36]	; 0x24
    3e10:	9b07      	ldr	r3, [sp, #28]
    3e12:	f000 fb6d 	bl	44f0 <_dtoa_r>
    3e16:	4655      	mov	r5, sl
    3e18:	9011      	str	r0, [sp, #68]	; 0x44
    3e1a:	9b11      	ldr	r3, [sp, #68]	; 0x44
    3e1c:	4698      	mov	r8, r3
    3e1e:	9b12      	ldr	r3, [sp, #72]	; 0x48
    3e20:	44a8      	add	r8, r5
    3e22:	2b46      	cmp	r3, #70	; 0x46
    3e24:	d000      	beq.n	3e28 <_svfprintf_r+0x1150>
    3e26:	e72b      	b.n	3c80 <_svfprintf_r+0xfa8>
    3e28:	9b11      	ldr	r3, [sp, #68]	; 0x44
    3e2a:	781b      	ldrb	r3, [r3, #0]
    3e2c:	2b30      	cmp	r3, #48	; 0x30
    3e2e:	d016      	beq.n	3e5e <_svfprintf_r+0x1186>
    3e30:	9b1f      	ldr	r3, [sp, #124]	; 0x7c
    3e32:	4498      	add	r8, r3
    3e34:	e724      	b.n	3c80 <_svfprintf_r+0xfa8>
    3e36:	003a      	movs	r2, r7
    3e38:	9906      	ldr	r1, [sp, #24]
    3e3a:	9809      	ldr	r0, [sp, #36]	; 0x24
    3e3c:	f002 fa1a 	bl	6274 <__ssprint_r>
    3e40:	2800      	cmp	r0, #0
    3e42:	d001      	beq.n	3e48 <_svfprintf_r+0x1170>
    3e44:	f7fe ffcf 	bl	2de6 <_svfprintf_r+0x10e>
    3e48:	981f      	ldr	r0, [sp, #124]	; 0x7c
    3e4a:	68bc      	ldr	r4, [r7, #8]
    3e4c:	ae32      	add	r6, sp, #200	; 0xc8
    3e4e:	e778      	b.n	3d42 <_svfprintf_r+0x106a>
    3e50:	4653      	mov	r3, sl
    3e52:	2b00      	cmp	r3, #0
    3e54:	d000      	beq.n	3e58 <_svfprintf_r+0x1180>
    3e56:	e6de      	b.n	3c16 <_svfprintf_r+0xf3e>
    3e58:	3301      	adds	r3, #1
    3e5a:	469a      	mov	sl, r3
    3e5c:	e6db      	b.n	3c16 <_svfprintf_r+0xf3e>
    3e5e:	2200      	movs	r2, #0
    3e60:	2300      	movs	r3, #0
    3e62:	4648      	mov	r0, r9
    3e64:	9907      	ldr	r1, [sp, #28]
    3e66:	f002 feab 	bl	6bc0 <__aeabi_dcmpeq>
    3e6a:	2800      	cmp	r0, #0
    3e6c:	d1e0      	bne.n	3e30 <_svfprintf_r+0x1158>
    3e6e:	2301      	movs	r3, #1
    3e70:	1b5b      	subs	r3, r3, r5
    3e72:	931f      	str	r3, [sp, #124]	; 0x7c
    3e74:	4498      	add	r8, r3
    3e76:	e703      	b.n	3c80 <_svfprintf_r+0xfa8>
    3e78:	9a11      	ldr	r2, [sp, #68]	; 0x44
    3e7a:	ab32      	add	r3, sp, #200	; 0xc8
    3e7c:	1a9b      	subs	r3, r3, r2
    3e7e:	930e      	str	r3, [sp, #56]	; 0x38
    3e80:	f7ff f83a 	bl	2ef8 <_svfprintf_r+0x220>
    3e84:	9811      	ldr	r0, [sp, #68]	; 0x44
    3e86:	f002 f9c3 	bl	6210 <strlen>
    3e8a:	0002      	movs	r2, r0
    3e8c:	900e      	str	r0, [sp, #56]	; 0x38
    3e8e:	0003      	movs	r3, r0
    3e90:	f7ff f9cd 	bl	322e <_svfprintf_r+0x556>
    3e94:	232d      	movs	r3, #45	; 0x2d
    3e96:	aa16      	add	r2, sp, #88	; 0x58
    3e98:	77d3      	strb	r3, [r2, #31]
    3e9a:	4698      	mov	r8, r3
    3e9c:	2300      	movs	r3, #0
    3e9e:	469a      	mov	sl, r3
    3ea0:	f7ff f835 	bl	2f0e <_svfprintf_r+0x236>
    3ea4:	9b1f      	ldr	r3, [sp, #124]	; 0x7c
    3ea6:	9313      	str	r3, [sp, #76]	; 0x4c
    3ea8:	1cda      	adds	r2, r3, #3
    3eaa:	db02      	blt.n	3eb2 <_svfprintf_r+0x11da>
    3eac:	459a      	cmp	sl, r3
    3eae:	db00      	blt.n	3eb2 <_svfprintf_r+0x11da>
    3eb0:	e70b      	b.n	3cca <_svfprintf_r+0xff2>
    3eb2:	9b12      	ldr	r3, [sp, #72]	; 0x48
    3eb4:	3b02      	subs	r3, #2
    3eb6:	9312      	str	r3, [sp, #72]	; 0x48
    3eb8:	222c      	movs	r2, #44	; 0x2c
    3eba:	9b13      	ldr	r3, [sp, #76]	; 0x4c
    3ebc:	2148      	movs	r1, #72	; 0x48
    3ebe:	1e5d      	subs	r5, r3, #1
    3ec0:	ab16      	add	r3, sp, #88	; 0x58
    3ec2:	189b      	adds	r3, r3, r2
    3ec4:	466a      	mov	r2, sp
    3ec6:	1852      	adds	r2, r2, r1
    3ec8:	7812      	ldrb	r2, [r2, #0]
    3eca:	951f      	str	r5, [sp, #124]	; 0x7c
    3ecc:	701a      	strb	r2, [r3, #0]
    3ece:	2d00      	cmp	r5, #0
    3ed0:	da00      	bge.n	3ed4 <_svfprintf_r+0x11fc>
    3ed2:	e1a4      	b.n	421e <_svfprintf_r+0x1546>
    3ed4:	212d      	movs	r1, #45	; 0x2d
    3ed6:	232b      	movs	r3, #43	; 0x2b
    3ed8:	aa16      	add	r2, sp, #88	; 0x58
    3eda:	1852      	adds	r2, r2, r1
    3edc:	7013      	strb	r3, [r2, #0]
    3ede:	2d09      	cmp	r5, #9
    3ee0:	dc00      	bgt.n	3ee4 <_svfprintf_r+0x120c>
    3ee2:	e14c      	b.n	417e <_svfprintf_r+0x14a6>
    3ee4:	aa16      	add	r2, sp, #88	; 0x58
    3ee6:	233b      	movs	r3, #59	; 0x3b
    3ee8:	4694      	mov	ip, r2
    3eea:	4463      	add	r3, ip
    3eec:	469a      	mov	sl, r3
    3eee:	46b1      	mov	r9, r6
    3ef0:	46a0      	mov	r8, r4
    3ef2:	4656      	mov	r6, sl
    3ef4:	e000      	b.n	3ef8 <_svfprintf_r+0x1220>
    3ef6:	0026      	movs	r6, r4
    3ef8:	0028      	movs	r0, r5
    3efa:	210a      	movs	r1, #10
    3efc:	f7fd fefe 	bl	1cfc <__aeabi_idivmod>
    3f00:	1e74      	subs	r4, r6, #1
    3f02:	3130      	adds	r1, #48	; 0x30
    3f04:	7021      	strb	r1, [r4, #0]
    3f06:	0028      	movs	r0, r5
    3f08:	210a      	movs	r1, #10
    3f0a:	f7fd fe11 	bl	1b30 <__divsi3>
    3f0e:	0005      	movs	r5, r0
    3f10:	2809      	cmp	r0, #9
    3f12:	dcf0      	bgt.n	3ef6 <_svfprintf_r+0x121e>
    3f14:	0023      	movs	r3, r4
    3f16:	4644      	mov	r4, r8
    3f18:	46b0      	mov	r8, r6
    3f1a:	464e      	mov	r6, r9
    3f1c:	4699      	mov	r9, r3
    3f1e:	0003      	movs	r3, r0
    3f20:	3330      	adds	r3, #48	; 0x30
    3f22:	b2d8      	uxtb	r0, r3
    3f24:	4643      	mov	r3, r8
    3f26:	3b02      	subs	r3, #2
    3f28:	7018      	strb	r0, [r3, #0]
    3f2a:	459a      	cmp	sl, r3
    3f2c:	d800      	bhi.n	3f30 <_svfprintf_r+0x1258>
    3f2e:	e1b4      	b.n	429a <_svfprintf_r+0x15c2>
    3f30:	4642      	mov	r2, r8
    3f32:	9b1b      	ldr	r3, [sp, #108]	; 0x6c
    3f34:	4645      	mov	r5, r8
    3f36:	1a99      	subs	r1, r3, r2
    3f38:	2301      	movs	r3, #1
    3f3a:	3107      	adds	r1, #7
    3f3c:	425b      	negs	r3, r3
    3f3e:	e001      	b.n	3f44 <_svfprintf_r+0x126c>
    3f40:	5ce8      	ldrb	r0, [r5, r3]
    3f42:	3301      	adds	r3, #1
    3f44:	aa21      	add	r2, sp, #132	; 0x84
    3f46:	18d2      	adds	r2, r2, r3
    3f48:	70d0      	strb	r0, [r2, #3]
    3f4a:	428b      	cmp	r3, r1
    3f4c:	d1f8      	bne.n	3f40 <_svfprintf_r+0x1268>
    3f4e:	a916      	add	r1, sp, #88	; 0x58
    3f50:	468c      	mov	ip, r1
    3f52:	222e      	movs	r2, #46	; 0x2e
    3f54:	464b      	mov	r3, r9
    3f56:	4462      	add	r2, ip
    3f58:	4694      	mov	ip, r2
    3f5a:	1afb      	subs	r3, r7, r3
    3f5c:	4463      	add	r3, ip
    3f5e:	aa21      	add	r2, sp, #132	; 0x84
    3f60:	9914      	ldr	r1, [sp, #80]	; 0x50
    3f62:	1a9b      	subs	r3, r3, r2
    3f64:	469c      	mov	ip, r3
    3f66:	000a      	movs	r2, r1
    3f68:	4462      	add	r2, ip
    3f6a:	931a      	str	r3, [sp, #104]	; 0x68
    3f6c:	920e      	str	r2, [sp, #56]	; 0x38
    3f6e:	2901      	cmp	r1, #1
    3f70:	dc00      	bgt.n	3f74 <_svfprintf_r+0x129c>
    3f72:	e145      	b.n	4200 <_svfprintf_r+0x1528>
    3f74:	9a18      	ldr	r2, [sp, #96]	; 0x60
    3f76:	9b0e      	ldr	r3, [sp, #56]	; 0x38
    3f78:	4694      	mov	ip, r2
    3f7a:	4463      	add	r3, ip
    3f7c:	001a      	movs	r2, r3
    3f7e:	930e      	str	r3, [sp, #56]	; 0x38
    3f80:	43db      	mvns	r3, r3
    3f82:	17db      	asrs	r3, r3, #31
    3f84:	401a      	ands	r2, r3
    3f86:	2300      	movs	r3, #0
    3f88:	9207      	str	r2, [sp, #28]
    3f8a:	9313      	str	r3, [sp, #76]	; 0x4c
    3f8c:	e6ae      	b.n	3cec <_svfprintf_r+0x1014>
    3f8e:	2301      	movs	r3, #1
    3f90:	425b      	negs	r3, r3
    3f92:	930a      	str	r3, [sp, #40]	; 0x28
    3f94:	f7fe ff2d 	bl	2df2 <_svfprintf_r+0x11a>
    3f98:	003a      	movs	r2, r7
    3f9a:	9906      	ldr	r1, [sp, #24]
    3f9c:	9809      	ldr	r0, [sp, #36]	; 0x24
    3f9e:	f002 f969 	bl	6274 <__ssprint_r>
    3fa2:	2800      	cmp	r0, #0
    3fa4:	d001      	beq.n	3faa <_svfprintf_r+0x12d2>
    3fa6:	f7fe ff1e 	bl	2de6 <_svfprintf_r+0x10e>
    3faa:	68bc      	ldr	r4, [r7, #8]
    3fac:	ae32      	add	r6, sp, #200	; 0xc8
    3fae:	e43c      	b.n	382a <_svfprintf_r+0xb52>
    3fb0:	003a      	movs	r2, r7
    3fb2:	9906      	ldr	r1, [sp, #24]
    3fb4:	9809      	ldr	r0, [sp, #36]	; 0x24
    3fb6:	f002 f95d 	bl	6274 <__ssprint_r>
    3fba:	2800      	cmp	r0, #0
    3fbc:	d001      	beq.n	3fc2 <_svfprintf_r+0x12ea>
    3fbe:	f7fe ff12 	bl	2de6 <_svfprintf_r+0x10e>
    3fc2:	9b1f      	ldr	r3, [sp, #124]	; 0x7c
    3fc4:	68bc      	ldr	r4, [r7, #8]
    3fc6:	ae32      	add	r6, sp, #200	; 0xc8
    3fc8:	e56a      	b.n	3aa0 <_svfprintf_r+0xdc8>
    3fca:	003a      	movs	r2, r7
    3fcc:	9906      	ldr	r1, [sp, #24]
    3fce:	9809      	ldr	r0, [sp, #36]	; 0x24
    3fd0:	f002 f950 	bl	6274 <__ssprint_r>
    3fd4:	2800      	cmp	r0, #0
    3fd6:	d001      	beq.n	3fdc <_svfprintf_r+0x1304>
    3fd8:	f7fe ff05 	bl	2de6 <_svfprintf_r+0x10e>
    3fdc:	68bc      	ldr	r4, [r7, #8]
    3fde:	ae32      	add	r6, sp, #200	; 0xc8
    3fe0:	e557      	b.n	3a92 <_svfprintf_r+0xdba>
    3fe2:	003a      	movs	r2, r7
    3fe4:	9906      	ldr	r1, [sp, #24]
    3fe6:	9809      	ldr	r0, [sp, #36]	; 0x24
    3fe8:	f002 f944 	bl	6274 <__ssprint_r>
    3fec:	2800      	cmp	r0, #0
    3fee:	d001      	beq.n	3ff4 <_svfprintf_r+0x131c>
    3ff0:	f7fe fef9 	bl	2de6 <_svfprintf_r+0x10e>
    3ff4:	9b14      	ldr	r3, [sp, #80]	; 0x50
    3ff6:	9a1f      	ldr	r2, [sp, #124]	; 0x7c
    3ff8:	68bc      	ldr	r4, [r7, #8]
    3ffa:	1a9b      	subs	r3, r3, r2
    3ffc:	ae32      	add	r6, sp, #200	; 0xc8
    3ffe:	e56a      	b.n	3ad6 <_svfprintf_r+0xdfe>
    4000:	4653      	mov	r3, sl
    4002:	9307      	str	r3, [sp, #28]
    4004:	2b06      	cmp	r3, #6
    4006:	d901      	bls.n	400c <_svfprintf_r+0x1334>
    4008:	2306      	movs	r3, #6
    400a:	9307      	str	r3, [sp, #28]
    400c:	9b07      	ldr	r3, [sp, #28]
    400e:	950f      	str	r5, [sp, #60]	; 0x3c
    4010:	930e      	str	r3, [sp, #56]	; 0x38
    4012:	2300      	movs	r3, #0
    4014:	4698      	mov	r8, r3
    4016:	469a      	mov	sl, r3
    4018:	9313      	str	r3, [sp, #76]	; 0x4c
    401a:	4b24      	ldr	r3, [pc, #144]	; (40ac <_svfprintf_r+0x13d4>)
    401c:	9408      	str	r4, [sp, #32]
    401e:	9311      	str	r3, [sp, #68]	; 0x44
    4020:	f7fe ff78 	bl	2f14 <_svfprintf_r+0x23c>
    4024:	2320      	movs	r3, #32
    4026:	9a12      	ldr	r2, [sp, #72]	; 0x48
    4028:	439a      	bics	r2, r3
    402a:	3b1a      	subs	r3, #26
    402c:	920e      	str	r2, [sp, #56]	; 0x38
    402e:	469a      	mov	sl, r3
    4030:	e5f1      	b.n	3c16 <_svfprintf_r+0xf3e>
    4032:	ab23      	add	r3, sp, #140	; 0x8c
    4034:	931b      	str	r3, [sp, #108]	; 0x6c
    4036:	9304      	str	r3, [sp, #16]
    4038:	ab20      	add	r3, sp, #128	; 0x80
    403a:	9303      	str	r3, [sp, #12]
    403c:	ab1f      	add	r3, sp, #124	; 0x7c
    403e:	9302      	str	r3, [sp, #8]
    4040:	4653      	mov	r3, sl
    4042:	9301      	str	r3, [sp, #4]
    4044:	2303      	movs	r3, #3
    4046:	464a      	mov	r2, r9
    4048:	9300      	str	r3, [sp, #0]
    404a:	9809      	ldr	r0, [sp, #36]	; 0x24
    404c:	9b07      	ldr	r3, [sp, #28]
    404e:	f000 fa4f 	bl	44f0 <_dtoa_r>
    4052:	0003      	movs	r3, r0
    4054:	4453      	add	r3, sl
    4056:	9011      	str	r0, [sp, #68]	; 0x44
    4058:	4698      	mov	r8, r3
    405a:	4655      	mov	r5, sl
    405c:	e6e4      	b.n	3e28 <_svfprintf_r+0x1150>
    405e:	232d      	movs	r3, #45	; 0x2d
    4060:	aa16      	add	r2, sp, #88	; 0x58
    4062:	77d3      	strb	r3, [r2, #31]
    4064:	4698      	mov	r8, r3
    4066:	f7fe ffdb 	bl	3020 <_svfprintf_r+0x348>
    406a:	2280      	movs	r2, #128	; 0x80
    406c:	0612      	lsls	r2, r2, #24
    406e:	4694      	mov	ip, r2
    4070:	9b16      	ldr	r3, [sp, #88]	; 0x58
    4072:	4699      	mov	r9, r3
    4074:	9b15      	ldr	r3, [sp, #84]	; 0x54
    4076:	4463      	add	r3, ip
    4078:	9307      	str	r3, [sp, #28]
    407a:	232d      	movs	r3, #45	; 0x2d
    407c:	9310      	str	r3, [sp, #64]	; 0x40
    407e:	e5d7      	b.n	3c30 <_svfprintf_r+0xf58>
    4080:	9a18      	ldr	r2, [sp, #96]	; 0x60
    4082:	9b14      	ldr	r3, [sp, #80]	; 0x50
    4084:	4694      	mov	ip, r2
    4086:	9a13      	ldr	r2, [sp, #76]	; 0x4c
    4088:	4463      	add	r3, ip
    408a:	930e      	str	r3, [sp, #56]	; 0x38
    408c:	2a00      	cmp	r2, #0
    408e:	dc00      	bgt.n	4092 <_svfprintf_r+0x13ba>
    4090:	e0ce      	b.n	4230 <_svfprintf_r+0x1558>
    4092:	001a      	movs	r2, r3
    4094:	43db      	mvns	r3, r3
    4096:	17db      	asrs	r3, r3, #31
    4098:	401a      	ands	r2, r3
    409a:	2367      	movs	r3, #103	; 0x67
    409c:	9207      	str	r2, [sp, #28]
    409e:	9312      	str	r3, [sp, #72]	; 0x48
    40a0:	e624      	b.n	3cec <_svfprintf_r+0x1014>
    40a2:	46c0      	nop			; (mov r8, r8)
    40a4:	0000909c 	.word	0x0000909c
    40a8:	00009060 	.word	0x00009060
    40ac:	00009094 	.word	0x00009094
    40b0:	9b1f      	ldr	r3, [sp, #124]	; 0x7c
    40b2:	9313      	str	r3, [sp, #76]	; 0x4c
    40b4:	2b00      	cmp	r3, #0
    40b6:	dc00      	bgt.n	40ba <_svfprintf_r+0x13e2>
    40b8:	e0d5      	b.n	4266 <_svfprintf_r+0x158e>
    40ba:	4652      	mov	r2, sl
    40bc:	2a00      	cmp	r2, #0
    40be:	d000      	beq.n	40c2 <_svfprintf_r+0x13ea>
    40c0:	e092      	b.n	41e8 <_svfprintf_r+0x1510>
    40c2:	07e2      	lsls	r2, r4, #31
    40c4:	d500      	bpl.n	40c8 <_svfprintf_r+0x13f0>
    40c6:	e08f      	b.n	41e8 <_svfprintf_r+0x1510>
    40c8:	9307      	str	r3, [sp, #28]
    40ca:	930e      	str	r3, [sp, #56]	; 0x38
    40cc:	e60e      	b.n	3cec <_svfprintf_r+0x1014>
    40ce:	ab16      	add	r3, sp, #88	; 0x58
    40d0:	7fdb      	ldrb	r3, [r3, #31]
    40d2:	950f      	str	r5, [sp, #60]	; 0x3c
    40d4:	4698      	mov	r8, r3
    40d6:	4653      	mov	r3, sl
    40d8:	9307      	str	r3, [sp, #28]
    40da:	930e      	str	r3, [sp, #56]	; 0x38
    40dc:	2300      	movs	r3, #0
    40de:	9408      	str	r4, [sp, #32]
    40e0:	469a      	mov	sl, r3
    40e2:	9313      	str	r3, [sp, #76]	; 0x4c
    40e4:	f7fe ff10 	bl	2f08 <_svfprintf_r+0x230>
    40e8:	9b11      	ldr	r3, [sp, #68]	; 0x44
    40ea:	4698      	mov	r8, r3
    40ec:	9b12      	ldr	r3, [sp, #72]	; 0x48
    40ee:	44a8      	add	r8, r5
    40f0:	2b47      	cmp	r3, #71	; 0x47
    40f2:	d000      	beq.n	40f6 <_svfprintf_r+0x141e>
    40f4:	e5c4      	b.n	3c80 <_svfprintf_r+0xfa8>
    40f6:	07e3      	lsls	r3, r4, #31
    40f8:	d500      	bpl.n	40fc <_svfprintf_r+0x1424>
    40fa:	e68e      	b.n	3e1a <_svfprintf_r+0x1142>
    40fc:	9b23      	ldr	r3, [sp, #140]	; 0x8c
    40fe:	9a11      	ldr	r2, [sp, #68]	; 0x44
    4100:	1a9b      	subs	r3, r3, r2
    4102:	9314      	str	r3, [sp, #80]	; 0x50
    4104:	9b0e      	ldr	r3, [sp, #56]	; 0x38
    4106:	2b47      	cmp	r3, #71	; 0x47
    4108:	d100      	bne.n	410c <_svfprintf_r+0x1434>
    410a:	e6cb      	b.n	3ea4 <_svfprintf_r+0x11cc>
    410c:	9b1f      	ldr	r3, [sp, #124]	; 0x7c
    410e:	9313      	str	r3, [sp, #76]	; 0x4c
    4110:	e6d2      	b.n	3eb8 <_svfprintf_r+0x11e0>
    4112:	4244      	negs	r4, r0
    4114:	3010      	adds	r0, #16
    4116:	db00      	blt.n	411a <_svfprintf_r+0x1442>
    4118:	e0d0      	b.n	42bc <_svfprintf_r+0x15e4>
    411a:	486e      	ldr	r0, [pc, #440]	; (42d4 <_svfprintf_r+0x15fc>)
    411c:	2610      	movs	r6, #16
    411e:	0005      	movs	r5, r0
    4120:	e003      	b.n	412a <_svfprintf_r+0x1452>
    4122:	3208      	adds	r2, #8
    4124:	3c10      	subs	r4, #16
    4126:	2c10      	cmp	r4, #16
    4128:	dd38      	ble.n	419c <_svfprintf_r+0x14c4>
    412a:	3110      	adds	r1, #16
    412c:	3301      	adds	r3, #1
    412e:	6015      	str	r5, [r2, #0]
    4130:	6056      	str	r6, [r2, #4]
    4132:	60b9      	str	r1, [r7, #8]
    4134:	607b      	str	r3, [r7, #4]
    4136:	2b07      	cmp	r3, #7
    4138:	ddf3      	ble.n	4122 <_svfprintf_r+0x144a>
    413a:	003a      	movs	r2, r7
    413c:	9906      	ldr	r1, [sp, #24]
    413e:	9809      	ldr	r0, [sp, #36]	; 0x24
    4140:	f002 f898 	bl	6274 <__ssprint_r>
    4144:	2800      	cmp	r0, #0
    4146:	d001      	beq.n	414c <_svfprintf_r+0x1474>
    4148:	f7fe fe4d 	bl	2de6 <_svfprintf_r+0x10e>
    414c:	68b9      	ldr	r1, [r7, #8]
    414e:	687b      	ldr	r3, [r7, #4]
    4150:	aa32      	add	r2, sp, #200	; 0xc8
    4152:	e7e7      	b.n	4124 <_svfprintf_r+0x144c>
    4154:	003a      	movs	r2, r7
    4156:	9906      	ldr	r1, [sp, #24]
    4158:	9809      	ldr	r0, [sp, #36]	; 0x24
    415a:	f002 f88b 	bl	6274 <__ssprint_r>
    415e:	2800      	cmp	r0, #0
    4160:	d001      	beq.n	4166 <_svfprintf_r+0x148e>
    4162:	f7fe fe40 	bl	2de6 <_svfprintf_r+0x10e>
    4166:	981f      	ldr	r0, [sp, #124]	; 0x7c
    4168:	68b9      	ldr	r1, [r7, #8]
    416a:	687b      	ldr	r3, [r7, #4]
    416c:	aa32      	add	r2, sp, #200	; 0xc8
    416e:	e600      	b.n	3d72 <_svfprintf_r+0x109a>
    4170:	9a18      	ldr	r2, [sp, #96]	; 0x60
    4172:	9b13      	ldr	r3, [sp, #76]	; 0x4c
    4174:	4694      	mov	ip, r2
    4176:	4463      	add	r3, ip
    4178:	001a      	movs	r2, r3
    417a:	930e      	str	r3, [sp, #56]	; 0x38
    417c:	e78a      	b.n	4094 <_svfprintf_r+0x13bc>
    417e:	212e      	movs	r1, #46	; 0x2e
    4180:	2330      	movs	r3, #48	; 0x30
    4182:	aa16      	add	r2, sp, #88	; 0x58
    4184:	1852      	adds	r2, r2, r1
    4186:	7013      	strb	r3, [r2, #0]
    4188:	002b      	movs	r3, r5
    418a:	aa16      	add	r2, sp, #88	; 0x58
    418c:	3101      	adds	r1, #1
    418e:	3330      	adds	r3, #48	; 0x30
    4190:	1852      	adds	r2, r2, r1
    4192:	7013      	strb	r3, [r2, #0]
    4194:	ab22      	add	r3, sp, #136	; 0x88
    4196:	e6e2      	b.n	3f5e <_svfprintf_r+0x1286>
    4198:	9b23      	ldr	r3, [sp, #140]	; 0x8c
    419a:	e585      	b.n	3ca8 <_svfprintf_r+0xfd0>
    419c:	46a9      	mov	r9, r5
    419e:	4648      	mov	r0, r9
    41a0:	1909      	adds	r1, r1, r4
    41a2:	3301      	adds	r3, #1
    41a4:	6010      	str	r0, [r2, #0]
    41a6:	6054      	str	r4, [r2, #4]
    41a8:	60b9      	str	r1, [r7, #8]
    41aa:	3208      	adds	r2, #8
    41ac:	607b      	str	r3, [r7, #4]
    41ae:	2b07      	cmp	r3, #7
    41b0:	dc00      	bgt.n	41b4 <_svfprintf_r+0x14dc>
    41b2:	e5e1      	b.n	3d78 <_svfprintf_r+0x10a0>
    41b4:	003a      	movs	r2, r7
    41b6:	9906      	ldr	r1, [sp, #24]
    41b8:	9809      	ldr	r0, [sp, #36]	; 0x24
    41ba:	f002 f85b 	bl	6274 <__ssprint_r>
    41be:	2800      	cmp	r0, #0
    41c0:	d001      	beq.n	41c6 <_svfprintf_r+0x14ee>
    41c2:	f7fe fe10 	bl	2de6 <_svfprintf_r+0x10e>
    41c6:	68b9      	ldr	r1, [r7, #8]
    41c8:	687b      	ldr	r3, [r7, #4]
    41ca:	aa32      	add	r2, sp, #200	; 0xc8
    41cc:	e5d4      	b.n	3d78 <_svfprintf_r+0x10a0>
    41ce:	9b15      	ldr	r3, [sp, #84]	; 0x54
    41d0:	2b00      	cmp	r3, #0
    41d2:	db38      	blt.n	4246 <_svfprintf_r+0x156e>
    41d4:	ab16      	add	r3, sp, #88	; 0x58
    41d6:	7fdb      	ldrb	r3, [r3, #31]
    41d8:	4698      	mov	r8, r3
    41da:	9b12      	ldr	r3, [sp, #72]	; 0x48
    41dc:	2b47      	cmp	r3, #71	; 0x47
    41de:	dc2e      	bgt.n	423e <_svfprintf_r+0x1566>
    41e0:	4b3d      	ldr	r3, [pc, #244]	; (42d8 <_svfprintf_r+0x1600>)
    41e2:	9311      	str	r3, [sp, #68]	; 0x44
    41e4:	f7fe ff23 	bl	302e <_svfprintf_r+0x356>
    41e8:	9a18      	ldr	r2, [sp, #96]	; 0x60
    41ea:	9b13      	ldr	r3, [sp, #76]	; 0x4c
    41ec:	4694      	mov	ip, r2
    41ee:	4463      	add	r3, ip
    41f0:	4453      	add	r3, sl
    41f2:	001a      	movs	r2, r3
    41f4:	930e      	str	r3, [sp, #56]	; 0x38
    41f6:	43db      	mvns	r3, r3
    41f8:	17db      	asrs	r3, r3, #31
    41fa:	401a      	ands	r2, r3
    41fc:	9207      	str	r2, [sp, #28]
    41fe:	e575      	b.n	3cec <_svfprintf_r+0x1014>
    4200:	2301      	movs	r3, #1
    4202:	4023      	ands	r3, r4
    4204:	9313      	str	r3, [sp, #76]	; 0x4c
    4206:	d000      	beq.n	420a <_svfprintf_r+0x1532>
    4208:	e6b4      	b.n	3f74 <_svfprintf_r+0x129c>
    420a:	9a0e      	ldr	r2, [sp, #56]	; 0x38
    420c:	43d3      	mvns	r3, r2
    420e:	17db      	asrs	r3, r3, #31
    4210:	401a      	ands	r2, r3
    4212:	9207      	str	r2, [sp, #28]
    4214:	e56a      	b.n	3cec <_svfprintf_r+0x1014>
    4216:	4a2f      	ldr	r2, [pc, #188]	; (42d4 <_svfprintf_r+0x15fc>)
    4218:	687b      	ldr	r3, [r7, #4]
    421a:	4691      	mov	r9, r2
    421c:	e42d      	b.n	3a7a <_svfprintf_r+0xda2>
    421e:	2301      	movs	r3, #1
    4220:	9a13      	ldr	r2, [sp, #76]	; 0x4c
    4222:	391b      	subs	r1, #27
    4224:	1a9d      	subs	r5, r3, r2
    4226:	aa16      	add	r2, sp, #88	; 0x58
    4228:	332c      	adds	r3, #44	; 0x2c
    422a:	1852      	adds	r2, r2, r1
    422c:	7013      	strb	r3, [r2, #0]
    422e:	e656      	b.n	3ede <_svfprintf_r+0x1206>
    4230:	9b0e      	ldr	r3, [sp, #56]	; 0x38
    4232:	9a13      	ldr	r2, [sp, #76]	; 0x4c
    4234:	1a98      	subs	r0, r3, r2
    4236:	1c43      	adds	r3, r0, #1
    4238:	001a      	movs	r2, r3
    423a:	930e      	str	r3, [sp, #56]	; 0x38
    423c:	e72a      	b.n	4094 <_svfprintf_r+0x13bc>
    423e:	4b27      	ldr	r3, [pc, #156]	; (42dc <_svfprintf_r+0x1604>)
    4240:	9311      	str	r3, [sp, #68]	; 0x44
    4242:	f7fe fef4 	bl	302e <_svfprintf_r+0x356>
    4246:	232d      	movs	r3, #45	; 0x2d
    4248:	aa16      	add	r2, sp, #88	; 0x58
    424a:	77d3      	strb	r3, [r2, #31]
    424c:	4698      	mov	r8, r3
    424e:	e7c4      	b.n	41da <_svfprintf_r+0x1502>
    4250:	9b0f      	ldr	r3, [sp, #60]	; 0x3c
    4252:	1d1a      	adds	r2, r3, #4
    4254:	681b      	ldr	r3, [r3, #0]
    4256:	469a      	mov	sl, r3
    4258:	2b00      	cmp	r3, #0
    425a:	db36      	blt.n	42ca <_svfprintf_r+0x15f2>
    425c:	784b      	ldrb	r3, [r1, #1]
    425e:	920f      	str	r2, [sp, #60]	; 0x3c
    4260:	4659      	mov	r1, fp
    4262:	f7fe fd9d 	bl	2da0 <_svfprintf_r+0xc8>
    4266:	4653      	mov	r3, sl
    4268:	2b00      	cmp	r3, #0
    426a:	d101      	bne.n	4270 <_svfprintf_r+0x1598>
    426c:	07e3      	lsls	r3, r4, #31
    426e:	d503      	bpl.n	4278 <_svfprintf_r+0x15a0>
    4270:	9b18      	ldr	r3, [sp, #96]	; 0x60
    4272:	1c58      	adds	r0, r3, #1
    4274:	0003      	movs	r3, r0
    4276:	e7bb      	b.n	41f0 <_svfprintf_r+0x1518>
    4278:	2301      	movs	r3, #1
    427a:	e725      	b.n	40c8 <_svfprintf_r+0x13f0>
    427c:	ab16      	add	r3, sp, #88	; 0x58
    427e:	77d8      	strb	r0, [r3, #31]
    4280:	f7fe ff6c 	bl	315c <_svfprintf_r+0x484>
    4284:	ab16      	add	r3, sp, #88	; 0x58
    4286:	77d8      	strb	r0, [r3, #31]
    4288:	f7ff f814 	bl	32b4 <_svfprintf_r+0x5dc>
    428c:	230c      	movs	r3, #12
    428e:	9a09      	ldr	r2, [sp, #36]	; 0x24
    4290:	6013      	str	r3, [r2, #0]
    4292:	3b0d      	subs	r3, #13
    4294:	930a      	str	r3, [sp, #40]	; 0x28
    4296:	f7fe fdac 	bl	2df2 <_svfprintf_r+0x11a>
    429a:	aa16      	add	r2, sp, #88	; 0x58
    429c:	232e      	movs	r3, #46	; 0x2e
    429e:	4694      	mov	ip, r2
    42a0:	4463      	add	r3, ip
    42a2:	e65c      	b.n	3f5e <_svfprintf_r+0x1286>
    42a4:	ab16      	add	r3, sp, #88	; 0x58
    42a6:	77d8      	strb	r0, [r3, #31]
    42a8:	f7fe fe85 	bl	2fb6 <_svfprintf_r+0x2de>
    42ac:	ab16      	add	r3, sp, #88	; 0x58
    42ae:	77d8      	strb	r0, [r3, #31]
    42b0:	f7fe fddd 	bl	2e6e <_svfprintf_r+0x196>
    42b4:	ab16      	add	r3, sp, #88	; 0x58
    42b6:	77d8      	strb	r0, [r3, #31]
    42b8:	f7ff f87d 	bl	33b6 <_svfprintf_r+0x6de>
    42bc:	4805      	ldr	r0, [pc, #20]	; (42d4 <_svfprintf_r+0x15fc>)
    42be:	4681      	mov	r9, r0
    42c0:	e76d      	b.n	419e <_svfprintf_r+0x14c6>
    42c2:	ab16      	add	r3, sp, #88	; 0x58
    42c4:	77d8      	strb	r0, [r3, #31]
    42c6:	f7fe ff79 	bl	31bc <_svfprintf_r+0x4e4>
    42ca:	2301      	movs	r3, #1
    42cc:	425b      	negs	r3, r3
    42ce:	469a      	mov	sl, r3
    42d0:	e7c4      	b.n	425c <_svfprintf_r+0x1584>
    42d2:	46c0      	nop			; (mov r8, r8)
    42d4:	000090b0 	.word	0x000090b0
    42d8:	00009064 	.word	0x00009064
    42dc:	00009068 	.word	0x00009068

000042e0 <__utoa>:
    42e0:	b5f0      	push	{r4, r5, r6, r7, lr}
    42e2:	4646      	mov	r6, r8
    42e4:	46d6      	mov	lr, sl
    42e6:	464f      	mov	r7, r9
    42e8:	b5c0      	push	{r6, r7, lr}
    42ea:	b08a      	sub	sp, #40	; 0x28
    42ec:	4690      	mov	r8, r2
    42ee:	466a      	mov	r2, sp
    42f0:	4b1d      	ldr	r3, [pc, #116]	; (4368 <__utoa+0x88>)
    42f2:	000d      	movs	r5, r1
    42f4:	0006      	movs	r6, r0
    42f6:	cb13      	ldmia	r3!, {r0, r1, r4}
    42f8:	c213      	stmia	r2!, {r0, r1, r4}
    42fa:	cb13      	ldmia	r3!, {r0, r1, r4}
    42fc:	c213      	stmia	r2!, {r0, r1, r4}
    42fe:	cb13      	ldmia	r3!, {r0, r1, r4}
    4300:	c213      	stmia	r2!, {r0, r1, r4}
    4302:	781b      	ldrb	r3, [r3, #0]
    4304:	46ea      	mov	sl, sp
    4306:	7013      	strb	r3, [r2, #0]
    4308:	4643      	mov	r3, r8
    430a:	3b02      	subs	r3, #2
    430c:	002f      	movs	r7, r5
    430e:	2400      	movs	r4, #0
    4310:	2b22      	cmp	r3, #34	; 0x22
    4312:	d901      	bls.n	4318 <__utoa+0x38>
    4314:	e024      	b.n	4360 <__utoa+0x80>
    4316:	464c      	mov	r4, r9
    4318:	1c63      	adds	r3, r4, #1
    431a:	0030      	movs	r0, r6
    431c:	4641      	mov	r1, r8
    431e:	4699      	mov	r9, r3
    4320:	f7fd fc02 	bl	1b28 <__aeabi_uidivmod>
    4324:	4653      	mov	r3, sl
    4326:	5c5b      	ldrb	r3, [r3, r1]
    4328:	0030      	movs	r0, r6
    432a:	703b      	strb	r3, [r7, #0]
    432c:	4641      	mov	r1, r8
    432e:	f7fd fb75 	bl	1a1c <__udivsi3>
    4332:	3701      	adds	r7, #1
    4334:	1e06      	subs	r6, r0, #0
    4336:	d1ee      	bne.n	4316 <__utoa+0x36>
    4338:	464b      	mov	r3, r9
    433a:	54e8      	strb	r0, [r5, r3]
    433c:	2300      	movs	r3, #0
    433e:	2c00      	cmp	r4, #0
    4340:	d007      	beq.n	4352 <__utoa+0x72>
    4342:	5cea      	ldrb	r2, [r5, r3]
    4344:	5d29      	ldrb	r1, [r5, r4]
    4346:	54e9      	strb	r1, [r5, r3]
    4348:	552a      	strb	r2, [r5, r4]
    434a:	3301      	adds	r3, #1
    434c:	3c01      	subs	r4, #1
    434e:	42a3      	cmp	r3, r4
    4350:	dbf7      	blt.n	4342 <__utoa+0x62>
    4352:	0028      	movs	r0, r5
    4354:	b00a      	add	sp, #40	; 0x28
    4356:	bc1c      	pop	{r2, r3, r4}
    4358:	4690      	mov	r8, r2
    435a:	4699      	mov	r9, r3
    435c:	46a2      	mov	sl, r4
    435e:	bdf0      	pop	{r4, r5, r6, r7, pc}
    4360:	702c      	strb	r4, [r5, #0]
    4362:	2000      	movs	r0, #0
    4364:	e7f6      	b.n	4354 <__utoa+0x74>
    4366:	46c0      	nop			; (mov r8, r8)
    4368:	000090c0 	.word	0x000090c0

0000436c <utoa>:
    436c:	b510      	push	{r4, lr}
    436e:	f7ff ffb7 	bl	42e0 <__utoa>
    4372:	bd10      	pop	{r4, pc}

00004374 <register_fini>:
    4374:	4b03      	ldr	r3, [pc, #12]	; (4384 <register_fini+0x10>)
    4376:	b510      	push	{r4, lr}
    4378:	2b00      	cmp	r3, #0
    437a:	d002      	beq.n	4382 <register_fini+0xe>
    437c:	4802      	ldr	r0, [pc, #8]	; (4388 <register_fini+0x14>)
    437e:	f000 f805 	bl	438c <atexit>
    4382:	bd10      	pop	{r4, pc}
    4384:	00000000 	.word	0x00000000
    4388:	00005479 	.word	0x00005479

0000438c <atexit>:
    438c:	b510      	push	{r4, lr}
    438e:	0001      	movs	r1, r0
    4390:	2300      	movs	r3, #0
    4392:	2200      	movs	r2, #0
    4394:	2000      	movs	r0, #0
    4396:	f001 fffd 	bl	6394 <__register_exitproc>
    439a:	bd10      	pop	{r4, pc}

0000439c <quorem>:
    439c:	b5f0      	push	{r4, r5, r6, r7, lr}
    439e:	4645      	mov	r5, r8
    43a0:	4680      	mov	r8, r0
    43a2:	46de      	mov	lr, fp
    43a4:	4657      	mov	r7, sl
    43a6:	464e      	mov	r6, r9
    43a8:	4642      	mov	r2, r8
    43aa:	b5e0      	push	{r5, r6, r7, lr}
    43ac:	690c      	ldr	r4, [r1, #16]
    43ae:	6912      	ldr	r2, [r2, #16]
    43b0:	b085      	sub	sp, #20
    43b2:	000b      	movs	r3, r1
    43b4:	9102      	str	r1, [sp, #8]
    43b6:	2000      	movs	r0, #0
    43b8:	4294      	cmp	r4, r2
    43ba:	dd00      	ble.n	43be <quorem+0x22>
    43bc:	e090      	b.n	44e0 <quorem+0x144>
    43be:	2214      	movs	r2, #20
    43c0:	4694      	mov	ip, r2
    43c2:	4463      	add	r3, ip
    43c4:	4699      	mov	r9, r3
    43c6:	464a      	mov	r2, r9
    43c8:	3c01      	subs	r4, #1
    43ca:	00a3      	lsls	r3, r4, #2
    43cc:	18d6      	adds	r6, r2, r3
    43ce:	2214      	movs	r2, #20
    43d0:	4442      	add	r2, r8
    43d2:	4693      	mov	fp, r2
    43d4:	449b      	add	fp, r3
    43d6:	6833      	ldr	r3, [r6, #0]
    43d8:	0015      	movs	r5, r2
    43da:	1c59      	adds	r1, r3, #1
    43dc:	465b      	mov	r3, fp
    43de:	6818      	ldr	r0, [r3, #0]
    43e0:	9201      	str	r2, [sp, #4]
    43e2:	f7fd fb1b 	bl	1a1c <__udivsi3>
    43e6:	1e03      	subs	r3, r0, #0
    43e8:	9000      	str	r0, [sp, #0]
    43ea:	d042      	beq.n	4472 <quorem+0xd6>
    43ec:	0029      	movs	r1, r5
    43ee:	2700      	movs	r7, #0
    43f0:	464d      	mov	r5, r9
    43f2:	2000      	movs	r0, #0
    43f4:	46b1      	mov	r9, r6
    43f6:	46a2      	mov	sl, r4
    43f8:	003e      	movs	r6, r7
    43fa:	0004      	movs	r4, r0
    43fc:	469c      	mov	ip, r3
    43fe:	002f      	movs	r7, r5
    4400:	0008      	movs	r0, r1
    4402:	9503      	str	r5, [sp, #12]
    4404:	4663      	mov	r3, ip
    4406:	cf04      	ldmia	r7!, {r2}
    4408:	0415      	lsls	r5, r2, #16
    440a:	0c2d      	lsrs	r5, r5, #16
    440c:	435d      	muls	r5, r3
    440e:	0c12      	lsrs	r2, r2, #16
    4410:	435a      	muls	r2, r3
    4412:	19ad      	adds	r5, r5, r6
    4414:	0c2b      	lsrs	r3, r5, #16
    4416:	18d2      	adds	r2, r2, r3
    4418:	6803      	ldr	r3, [r0, #0]
    441a:	042d      	lsls	r5, r5, #16
    441c:	0419      	lsls	r1, r3, #16
    441e:	0c09      	lsrs	r1, r1, #16
    4420:	1909      	adds	r1, r1, r4
    4422:	0c16      	lsrs	r6, r2, #16
    4424:	0c2d      	lsrs	r5, r5, #16
    4426:	0412      	lsls	r2, r2, #16
    4428:	1b49      	subs	r1, r1, r5
    442a:	0c12      	lsrs	r2, r2, #16
    442c:	0c1b      	lsrs	r3, r3, #16
    442e:	1a9b      	subs	r3, r3, r2
    4430:	140a      	asrs	r2, r1, #16
    4432:	189b      	adds	r3, r3, r2
    4434:	0409      	lsls	r1, r1, #16
    4436:	141c      	asrs	r4, r3, #16
    4438:	0c09      	lsrs	r1, r1, #16
    443a:	041b      	lsls	r3, r3, #16
    443c:	4319      	orrs	r1, r3
    443e:	c002      	stmia	r0!, {r1}
    4440:	45b9      	cmp	r9, r7
    4442:	d2df      	bcs.n	4404 <quorem+0x68>
    4444:	9b03      	ldr	r3, [sp, #12]
    4446:	464e      	mov	r6, r9
    4448:	4699      	mov	r9, r3
    444a:	465b      	mov	r3, fp
    444c:	681b      	ldr	r3, [r3, #0]
    444e:	4654      	mov	r4, sl
    4450:	2b00      	cmp	r3, #0
    4452:	d10e      	bne.n	4472 <quorem+0xd6>
    4454:	465b      	mov	r3, fp
    4456:	9a01      	ldr	r2, [sp, #4]
    4458:	3b04      	subs	r3, #4
    445a:	429a      	cmp	r2, r3
    445c:	d304      	bcc.n	4468 <quorem+0xcc>
    445e:	e006      	b.n	446e <quorem+0xd2>
    4460:	3b04      	subs	r3, #4
    4462:	3c01      	subs	r4, #1
    4464:	429a      	cmp	r2, r3
    4466:	d202      	bcs.n	446e <quorem+0xd2>
    4468:	6819      	ldr	r1, [r3, #0]
    446a:	2900      	cmp	r1, #0
    446c:	d0f8      	beq.n	4460 <quorem+0xc4>
    446e:	4643      	mov	r3, r8
    4470:	611c      	str	r4, [r3, #16]
    4472:	9902      	ldr	r1, [sp, #8]
    4474:	4640      	mov	r0, r8
    4476:	f001 fda5 	bl	5fc4 <__mcmp>
    447a:	2800      	cmp	r0, #0
    447c:	db2f      	blt.n	44de <quorem+0x142>
    447e:	464f      	mov	r7, r9
    4480:	2000      	movs	r0, #0
    4482:	9b00      	ldr	r3, [sp, #0]
    4484:	9d01      	ldr	r5, [sp, #4]
    4486:	3301      	adds	r3, #1
    4488:	9300      	str	r3, [sp, #0]
    448a:	682b      	ldr	r3, [r5, #0]
    448c:	cf02      	ldmia	r7!, {r1}
    448e:	041a      	lsls	r2, r3, #16
    4490:	0c12      	lsrs	r2, r2, #16
    4492:	1810      	adds	r0, r2, r0
    4494:	040a      	lsls	r2, r1, #16
    4496:	0c12      	lsrs	r2, r2, #16
    4498:	1a82      	subs	r2, r0, r2
    449a:	0c09      	lsrs	r1, r1, #16
    449c:	0c1b      	lsrs	r3, r3, #16
    449e:	1a5b      	subs	r3, r3, r1
    44a0:	1411      	asrs	r1, r2, #16
    44a2:	185b      	adds	r3, r3, r1
    44a4:	0412      	lsls	r2, r2, #16
    44a6:	1418      	asrs	r0, r3, #16
    44a8:	0c12      	lsrs	r2, r2, #16
    44aa:	041b      	lsls	r3, r3, #16
    44ac:	4313      	orrs	r3, r2
    44ae:	c508      	stmia	r5!, {r3}
    44b0:	42be      	cmp	r6, r7
    44b2:	d2ea      	bcs.n	448a <quorem+0xee>
    44b4:	9901      	ldr	r1, [sp, #4]
    44b6:	00a3      	lsls	r3, r4, #2
    44b8:	468c      	mov	ip, r1
    44ba:	4463      	add	r3, ip
    44bc:	681a      	ldr	r2, [r3, #0]
    44be:	2a00      	cmp	r2, #0
    44c0:	d10d      	bne.n	44de <quorem+0x142>
    44c2:	3b04      	subs	r3, #4
    44c4:	000a      	movs	r2, r1
    44c6:	4299      	cmp	r1, r3
    44c8:	d304      	bcc.n	44d4 <quorem+0x138>
    44ca:	e006      	b.n	44da <quorem+0x13e>
    44cc:	3b04      	subs	r3, #4
    44ce:	3c01      	subs	r4, #1
    44d0:	429a      	cmp	r2, r3
    44d2:	d202      	bcs.n	44da <quorem+0x13e>
    44d4:	6819      	ldr	r1, [r3, #0]
    44d6:	2900      	cmp	r1, #0
    44d8:	d0f8      	beq.n	44cc <quorem+0x130>
    44da:	4643      	mov	r3, r8
    44dc:	611c      	str	r4, [r3, #16]
    44de:	9800      	ldr	r0, [sp, #0]
    44e0:	b005      	add	sp, #20
    44e2:	bc3c      	pop	{r2, r3, r4, r5}
    44e4:	4690      	mov	r8, r2
    44e6:	4699      	mov	r9, r3
    44e8:	46a2      	mov	sl, r4
    44ea:	46ab      	mov	fp, r5
    44ec:	bdf0      	pop	{r4, r5, r6, r7, pc}
    44ee:	46c0      	nop			; (mov r8, r8)

000044f0 <_dtoa_r>:
    44f0:	b5f0      	push	{r4, r5, r6, r7, lr}
    44f2:	4657      	mov	r7, sl
    44f4:	464e      	mov	r6, r9
    44f6:	4645      	mov	r5, r8
    44f8:	46de      	mov	lr, fp
    44fa:	b5e0      	push	{r5, r6, r7, lr}
    44fc:	6c01      	ldr	r1, [r0, #64]	; 0x40
    44fe:	b099      	sub	sp, #100	; 0x64
    4500:	4682      	mov	sl, r0
    4502:	001d      	movs	r5, r3
    4504:	0016      	movs	r6, r2
    4506:	001f      	movs	r7, r3
    4508:	2900      	cmp	r1, #0
    450a:	d009      	beq.n	4520 <_dtoa_r+0x30>
    450c:	2301      	movs	r3, #1
    450e:	6c42      	ldr	r2, [r0, #68]	; 0x44
    4510:	4093      	lsls	r3, r2
    4512:	604a      	str	r2, [r1, #4]
    4514:	608b      	str	r3, [r1, #8]
    4516:	f001 fb49 	bl	5bac <_Bfree>
    451a:	2300      	movs	r3, #0
    451c:	4652      	mov	r2, sl
    451e:	6413      	str	r3, [r2, #64]	; 0x40
    4520:	46b8      	mov	r8, r7
    4522:	2f00      	cmp	r7, #0
    4524:	db37      	blt.n	4596 <_dtoa_r+0xa6>
    4526:	2300      	movs	r3, #0
    4528:	9a25      	ldr	r2, [sp, #148]	; 0x94
    452a:	6013      	str	r3, [r2, #0]
    452c:	4642      	mov	r2, r8
    452e:	4bd6      	ldr	r3, [pc, #856]	; (4888 <_dtoa_r+0x398>)
    4530:	401a      	ands	r2, r3
    4532:	429a      	cmp	r2, r3
    4534:	d018      	beq.n	4568 <_dtoa_r+0x78>
    4536:	2200      	movs	r2, #0
    4538:	2300      	movs	r3, #0
    453a:	0030      	movs	r0, r6
    453c:	0039      	movs	r1, r7
    453e:	f002 fb3f 	bl	6bc0 <__aeabi_dcmpeq>
    4542:	2800      	cmp	r0, #0
    4544:	d02f      	beq.n	45a6 <_dtoa_r+0xb6>
    4546:	2301      	movs	r3, #1
    4548:	9a24      	ldr	r2, [sp, #144]	; 0x90
    454a:	6013      	str	r3, [r2, #0]
    454c:	9b26      	ldr	r3, [sp, #152]	; 0x98
    454e:	2b00      	cmp	r3, #0
    4550:	d100      	bne.n	4554 <_dtoa_r+0x64>
    4552:	e22a      	b.n	49aa <_dtoa_r+0x4ba>
    4554:	48cd      	ldr	r0, [pc, #820]	; (488c <_dtoa_r+0x39c>)
    4556:	6018      	str	r0, [r3, #0]
    4558:	3801      	subs	r0, #1
    455a:	b019      	add	sp, #100	; 0x64
    455c:	bc3c      	pop	{r2, r3, r4, r5}
    455e:	4690      	mov	r8, r2
    4560:	4699      	mov	r9, r3
    4562:	46a2      	mov	sl, r4
    4564:	46ab      	mov	fp, r5
    4566:	bdf0      	pop	{r4, r5, r6, r7, pc}
    4568:	4bc9      	ldr	r3, [pc, #804]	; (4890 <_dtoa_r+0x3a0>)
    456a:	9a24      	ldr	r2, [sp, #144]	; 0x90
    456c:	6013      	str	r3, [r2, #0]
    456e:	2e00      	cmp	r6, #0
    4570:	d10b      	bne.n	458a <_dtoa_r+0x9a>
    4572:	4643      	mov	r3, r8
    4574:	0318      	lsls	r0, r3, #12
    4576:	d108      	bne.n	458a <_dtoa_r+0x9a>
    4578:	9b26      	ldr	r3, [sp, #152]	; 0x98
    457a:	48c6      	ldr	r0, [pc, #792]	; (4894 <_dtoa_r+0x3a4>)
    457c:	2b00      	cmp	r3, #0
    457e:	d0ec      	beq.n	455a <_dtoa_r+0x6a>
    4580:	0003      	movs	r3, r0
    4582:	3308      	adds	r3, #8
    4584:	9a26      	ldr	r2, [sp, #152]	; 0x98
    4586:	6013      	str	r3, [r2, #0]
    4588:	e7e7      	b.n	455a <_dtoa_r+0x6a>
    458a:	9b26      	ldr	r3, [sp, #152]	; 0x98
    458c:	48c2      	ldr	r0, [pc, #776]	; (4898 <_dtoa_r+0x3a8>)
    458e:	2b00      	cmp	r3, #0
    4590:	d0e3      	beq.n	455a <_dtoa_r+0x6a>
    4592:	1cc3      	adds	r3, r0, #3
    4594:	e7f6      	b.n	4584 <_dtoa_r+0x94>
    4596:	2301      	movs	r3, #1
    4598:	9a25      	ldr	r2, [sp, #148]	; 0x94
    459a:	0068      	lsls	r0, r5, #1
    459c:	6013      	str	r3, [r2, #0]
    459e:	0843      	lsrs	r3, r0, #1
    45a0:	4698      	mov	r8, r3
    45a2:	001f      	movs	r7, r3
    45a4:	e7c2      	b.n	452c <_dtoa_r+0x3c>
    45a6:	ab16      	add	r3, sp, #88	; 0x58
    45a8:	9301      	str	r3, [sp, #4]
    45aa:	ab17      	add	r3, sp, #92	; 0x5c
    45ac:	9300      	str	r3, [sp, #0]
    45ae:	0032      	movs	r2, r6
    45b0:	003b      	movs	r3, r7
    45b2:	4650      	mov	r0, sl
    45b4:	f001 fdbc 	bl	6130 <__d2b>
    45b8:	4643      	mov	r3, r8
    45ba:	4683      	mov	fp, r0
    45bc:	0d1a      	lsrs	r2, r3, #20
    45be:	d100      	bne.n	45c2 <_dtoa_r+0xd2>
    45c0:	e1d6      	b.n	4970 <_dtoa_r+0x480>
    45c2:	033b      	lsls	r3, r7, #12
    45c4:	4cb5      	ldr	r4, [pc, #724]	; (489c <_dtoa_r+0x3ac>)
    45c6:	0b1b      	lsrs	r3, r3, #12
    45c8:	431c      	orrs	r4, r3
    45ca:	4bb5      	ldr	r3, [pc, #724]	; (48a0 <_dtoa_r+0x3b0>)
    45cc:	0030      	movs	r0, r6
    45ce:	4698      	mov	r8, r3
    45d0:	9b16      	ldr	r3, [sp, #88]	; 0x58
    45d2:	0021      	movs	r1, r4
    45d4:	4699      	mov	r9, r3
    45d6:	2300      	movs	r3, #0
    45d8:	4490      	add	r8, r2
    45da:	930f      	str	r3, [sp, #60]	; 0x3c
    45dc:	2200      	movs	r2, #0
    45de:	4bb1      	ldr	r3, [pc, #708]	; (48a4 <_dtoa_r+0x3b4>)
    45e0:	f003 fdc0 	bl	8164 <__aeabi_dsub>
    45e4:	4ab0      	ldr	r2, [pc, #704]	; (48a8 <_dtoa_r+0x3b8>)
    45e6:	4bb1      	ldr	r3, [pc, #708]	; (48ac <_dtoa_r+0x3bc>)
    45e8:	f003 fb3c 	bl	7c64 <__aeabi_dmul>
    45ec:	4ab0      	ldr	r2, [pc, #704]	; (48b0 <_dtoa_r+0x3c0>)
    45ee:	4bb1      	ldr	r3, [pc, #708]	; (48b4 <_dtoa_r+0x3c4>)
    45f0:	f002 fbf4 	bl	6ddc <__aeabi_dadd>
    45f4:	0004      	movs	r4, r0
    45f6:	4640      	mov	r0, r8
    45f8:	000d      	movs	r5, r1
    45fa:	f004 f91d 	bl	8838 <__aeabi_i2d>
    45fe:	4aae      	ldr	r2, [pc, #696]	; (48b8 <_dtoa_r+0x3c8>)
    4600:	4bae      	ldr	r3, [pc, #696]	; (48bc <_dtoa_r+0x3cc>)
    4602:	f003 fb2f 	bl	7c64 <__aeabi_dmul>
    4606:	0002      	movs	r2, r0
    4608:	000b      	movs	r3, r1
    460a:	0020      	movs	r0, r4
    460c:	0029      	movs	r1, r5
    460e:	f002 fbe5 	bl	6ddc <__aeabi_dadd>
    4612:	0004      	movs	r4, r0
    4614:	000d      	movs	r5, r1
    4616:	f004 f8db 	bl	87d0 <__aeabi_d2iz>
    461a:	2200      	movs	r2, #0
    461c:	9003      	str	r0, [sp, #12]
    461e:	2300      	movs	r3, #0
    4620:	0020      	movs	r0, r4
    4622:	0029      	movs	r1, r5
    4624:	f002 fad2 	bl	6bcc <__aeabi_dcmplt>
    4628:	2800      	cmp	r0, #0
    462a:	d000      	beq.n	462e <_dtoa_r+0x13e>
    462c:	e2b1      	b.n	4b92 <_dtoa_r+0x6a2>
    462e:	2301      	movs	r3, #1
    4630:	9c03      	ldr	r4, [sp, #12]
    4632:	930c      	str	r3, [sp, #48]	; 0x30
    4634:	2c16      	cmp	r4, #22
    4636:	d810      	bhi.n	465a <_dtoa_r+0x16a>
    4638:	49a1      	ldr	r1, [pc, #644]	; (48c0 <_dtoa_r+0x3d0>)
    463a:	00e3      	lsls	r3, r4, #3
    463c:	18c9      	adds	r1, r1, r3
    463e:	0032      	movs	r2, r6
    4640:	6808      	ldr	r0, [r1, #0]
    4642:	6849      	ldr	r1, [r1, #4]
    4644:	003b      	movs	r3, r7
    4646:	f002 fad5 	bl	6bf4 <__aeabi_dcmpgt>
    464a:	2800      	cmp	r0, #0
    464c:	d100      	bne.n	4650 <_dtoa_r+0x160>
    464e:	e31d      	b.n	4c8c <_dtoa_r+0x79c>
    4650:	0023      	movs	r3, r4
    4652:	3b01      	subs	r3, #1
    4654:	9303      	str	r3, [sp, #12]
    4656:	2300      	movs	r3, #0
    4658:	930c      	str	r3, [sp, #48]	; 0x30
    465a:	464b      	mov	r3, r9
    465c:	4642      	mov	r2, r8
    465e:	1a9a      	subs	r2, r3, r2
    4660:	2300      	movs	r3, #0
    4662:	9306      	str	r3, [sp, #24]
    4664:	0013      	movs	r3, r2
    4666:	3b01      	subs	r3, #1
    4668:	9304      	str	r3, [sp, #16]
    466a:	d500      	bpl.n	466e <_dtoa_r+0x17e>
    466c:	e2a1      	b.n	4bb2 <_dtoa_r+0x6c2>
    466e:	9b03      	ldr	r3, [sp, #12]
    4670:	2b00      	cmp	r3, #0
    4672:	da00      	bge.n	4676 <_dtoa_r+0x186>
    4674:	e284      	b.n	4b80 <_dtoa_r+0x690>
    4676:	469c      	mov	ip, r3
    4678:	930d      	str	r3, [sp, #52]	; 0x34
    467a:	2300      	movs	r3, #0
    467c:	9a04      	ldr	r2, [sp, #16]
    467e:	4699      	mov	r9, r3
    4680:	0011      	movs	r1, r2
    4682:	4461      	add	r1, ip
    4684:	9104      	str	r1, [sp, #16]
    4686:	9b22      	ldr	r3, [sp, #136]	; 0x88
    4688:	2b09      	cmp	r3, #9
    468a:	d900      	bls.n	468e <_dtoa_r+0x19e>
    468c:	e18f      	b.n	49ae <_dtoa_r+0x4be>
    468e:	2401      	movs	r4, #1
    4690:	2b05      	cmp	r3, #5
    4692:	dd02      	ble.n	469a <_dtoa_r+0x1aa>
    4694:	2400      	movs	r4, #0
    4696:	3b04      	subs	r3, #4
    4698:	9322      	str	r3, [sp, #136]	; 0x88
    469a:	9b22      	ldr	r3, [sp, #136]	; 0x88
    469c:	2b03      	cmp	r3, #3
    469e:	d101      	bne.n	46a4 <_dtoa_r+0x1b4>
    46a0:	f000 fcce 	bl	5040 <_dtoa_r+0xb50>
    46a4:	dc01      	bgt.n	46aa <_dtoa_r+0x1ba>
    46a6:	f000 fc92 	bl	4fce <_dtoa_r+0xade>
    46aa:	9b22      	ldr	r3, [sp, #136]	; 0x88
    46ac:	2b04      	cmp	r3, #4
    46ae:	d101      	bne.n	46b4 <_dtoa_r+0x1c4>
    46b0:	f000 fc40 	bl	4f34 <_dtoa_r+0xa44>
    46b4:	2301      	movs	r3, #1
    46b6:	930b      	str	r3, [sp, #44]	; 0x2c
    46b8:	9b22      	ldr	r3, [sp, #136]	; 0x88
    46ba:	2b05      	cmp	r3, #5
    46bc:	d001      	beq.n	46c2 <_dtoa_r+0x1d2>
    46be:	f000 fc8b 	bl	4fd8 <_dtoa_r+0xae8>
    46c2:	9a23      	ldr	r2, [sp, #140]	; 0x8c
    46c4:	9b03      	ldr	r3, [sp, #12]
    46c6:	4694      	mov	ip, r2
    46c8:	4463      	add	r3, ip
    46ca:	930e      	str	r3, [sp, #56]	; 0x38
    46cc:	3301      	adds	r3, #1
    46ce:	9307      	str	r3, [sp, #28]
    46d0:	1e1d      	subs	r5, r3, #0
    46d2:	dc01      	bgt.n	46d8 <_dtoa_r+0x1e8>
    46d4:	f000 fd49 	bl	516a <_dtoa_r+0xc7a>
    46d8:	9b07      	ldr	r3, [sp, #28]
    46da:	4698      	mov	r8, r3
    46dc:	2300      	movs	r3, #0
    46de:	4652      	mov	r2, sl
    46e0:	2100      	movs	r1, #0
    46e2:	6453      	str	r3, [r2, #68]	; 0x44
    46e4:	2d17      	cmp	r5, #23
    46e6:	d90a      	bls.n	46fe <_dtoa_r+0x20e>
    46e8:	2201      	movs	r2, #1
    46ea:	3304      	adds	r3, #4
    46ec:	005b      	lsls	r3, r3, #1
    46ee:	0018      	movs	r0, r3
    46f0:	3014      	adds	r0, #20
    46f2:	0011      	movs	r1, r2
    46f4:	3201      	adds	r2, #1
    46f6:	4285      	cmp	r5, r0
    46f8:	d2f8      	bcs.n	46ec <_dtoa_r+0x1fc>
    46fa:	4653      	mov	r3, sl
    46fc:	6459      	str	r1, [r3, #68]	; 0x44
    46fe:	4650      	mov	r0, sl
    4700:	f001 fa2c 	bl	5b5c <_Balloc>
    4704:	4653      	mov	r3, sl
    4706:	6418      	str	r0, [r3, #64]	; 0x40
    4708:	4643      	mov	r3, r8
    470a:	900a      	str	r0, [sp, #40]	; 0x28
    470c:	2b0e      	cmp	r3, #14
    470e:	d900      	bls.n	4712 <_dtoa_r+0x222>
    4710:	e161      	b.n	49d6 <_dtoa_r+0x4e6>
    4712:	2c00      	cmp	r4, #0
    4714:	d100      	bne.n	4718 <_dtoa_r+0x228>
    4716:	e15e      	b.n	49d6 <_dtoa_r+0x4e6>
    4718:	9610      	str	r6, [sp, #64]	; 0x40
    471a:	9711      	str	r7, [sp, #68]	; 0x44
    471c:	9e03      	ldr	r6, [sp, #12]
    471e:	2e00      	cmp	r6, #0
    4720:	dc01      	bgt.n	4726 <_dtoa_r+0x236>
    4722:	f000 fd25 	bl	5170 <_dtoa_r+0xc80>
    4726:	0032      	movs	r2, r6
    4728:	210f      	movs	r1, #15
    472a:	4b65      	ldr	r3, [pc, #404]	; (48c0 <_dtoa_r+0x3d0>)
    472c:	400a      	ands	r2, r1
    472e:	00d2      	lsls	r2, r2, #3
    4730:	189b      	adds	r3, r3, r2
    4732:	1136      	asrs	r6, r6, #4
    4734:	681c      	ldr	r4, [r3, #0]
    4736:	685d      	ldr	r5, [r3, #4]
    4738:	06f3      	lsls	r3, r6, #27
    473a:	d401      	bmi.n	4740 <_dtoa_r+0x250>
    473c:	f000 fcca 	bl	50d4 <_dtoa_r+0xbe4>
    4740:	4b60      	ldr	r3, [pc, #384]	; (48c4 <_dtoa_r+0x3d4>)
    4742:	400e      	ands	r6, r1
    4744:	6a1a      	ldr	r2, [r3, #32]
    4746:	6a5b      	ldr	r3, [r3, #36]	; 0x24
    4748:	9810      	ldr	r0, [sp, #64]	; 0x40
    474a:	9911      	ldr	r1, [sp, #68]	; 0x44
    474c:	f002 fe56 	bl	73fc <__aeabi_ddiv>
    4750:	2303      	movs	r3, #3
    4752:	4698      	mov	r8, r3
    4754:	9008      	str	r0, [sp, #32]
    4756:	9109      	str	r1, [sp, #36]	; 0x24
    4758:	2e00      	cmp	r6, #0
    475a:	d011      	beq.n	4780 <_dtoa_r+0x290>
    475c:	4f59      	ldr	r7, [pc, #356]	; (48c4 <_dtoa_r+0x3d4>)
    475e:	2301      	movs	r3, #1
    4760:	4233      	tst	r3, r6
    4762:	d009      	beq.n	4778 <_dtoa_r+0x288>
    4764:	469c      	mov	ip, r3
    4766:	683a      	ldr	r2, [r7, #0]
    4768:	687b      	ldr	r3, [r7, #4]
    476a:	0020      	movs	r0, r4
    476c:	0029      	movs	r1, r5
    476e:	44e0      	add	r8, ip
    4770:	f003 fa78 	bl	7c64 <__aeabi_dmul>
    4774:	0004      	movs	r4, r0
    4776:	000d      	movs	r5, r1
    4778:	1076      	asrs	r6, r6, #1
    477a:	3708      	adds	r7, #8
    477c:	2e00      	cmp	r6, #0
    477e:	d1ee      	bne.n	475e <_dtoa_r+0x26e>
    4780:	0022      	movs	r2, r4
    4782:	9808      	ldr	r0, [sp, #32]
    4784:	9909      	ldr	r1, [sp, #36]	; 0x24
    4786:	002b      	movs	r3, r5
    4788:	f002 fe38 	bl	73fc <__aeabi_ddiv>
    478c:	0006      	movs	r6, r0
    478e:	000f      	movs	r7, r1
    4790:	9b0c      	ldr	r3, [sp, #48]	; 0x30
    4792:	2b00      	cmp	r3, #0
    4794:	d009      	beq.n	47aa <_dtoa_r+0x2ba>
    4796:	2200      	movs	r2, #0
    4798:	4b40      	ldr	r3, [pc, #256]	; (489c <_dtoa_r+0x3ac>)
    479a:	0030      	movs	r0, r6
    479c:	0039      	movs	r1, r7
    479e:	f002 fa15 	bl	6bcc <__aeabi_dcmplt>
    47a2:	2800      	cmp	r0, #0
    47a4:	d001      	beq.n	47aa <_dtoa_r+0x2ba>
    47a6:	f000 fdc2 	bl	532e <_dtoa_r+0xe3e>
    47aa:	4640      	mov	r0, r8
    47ac:	f004 f844 	bl	8838 <__aeabi_i2d>
    47b0:	0032      	movs	r2, r6
    47b2:	003b      	movs	r3, r7
    47b4:	f003 fa56 	bl	7c64 <__aeabi_dmul>
    47b8:	2200      	movs	r2, #0
    47ba:	4b43      	ldr	r3, [pc, #268]	; (48c8 <_dtoa_r+0x3d8>)
    47bc:	f002 fb0e 	bl	6ddc <__aeabi_dadd>
    47c0:	4a42      	ldr	r2, [pc, #264]	; (48cc <_dtoa_r+0x3dc>)
    47c2:	000b      	movs	r3, r1
    47c4:	4694      	mov	ip, r2
    47c6:	4463      	add	r3, ip
    47c8:	9008      	str	r0, [sp, #32]
    47ca:	9109      	str	r1, [sp, #36]	; 0x24
    47cc:	9309      	str	r3, [sp, #36]	; 0x24
    47ce:	9b07      	ldr	r3, [sp, #28]
    47d0:	2b00      	cmp	r3, #0
    47d2:	d101      	bne.n	47d8 <_dtoa_r+0x2e8>
    47d4:	f000 fc50 	bl	5078 <_dtoa_r+0xb88>
    47d8:	9b03      	ldr	r3, [sp, #12]
    47da:	9313      	str	r3, [sp, #76]	; 0x4c
    47dc:	9b07      	ldr	r3, [sp, #28]
    47de:	9312      	str	r3, [sp, #72]	; 0x48
    47e0:	9b0b      	ldr	r3, [sp, #44]	; 0x2c
    47e2:	2b00      	cmp	r3, #0
    47e4:	d101      	bne.n	47ea <_dtoa_r+0x2fa>
    47e6:	f000 fd1d 	bl	5224 <_dtoa_r+0xd34>
    47ea:	9b12      	ldr	r3, [sp, #72]	; 0x48
    47ec:	2000      	movs	r0, #0
    47ee:	1e5a      	subs	r2, r3, #1
    47f0:	4b33      	ldr	r3, [pc, #204]	; (48c0 <_dtoa_r+0x3d0>)
    47f2:	00d2      	lsls	r2, r2, #3
    47f4:	189b      	adds	r3, r3, r2
    47f6:	681a      	ldr	r2, [r3, #0]
    47f8:	685b      	ldr	r3, [r3, #4]
    47fa:	4935      	ldr	r1, [pc, #212]	; (48d0 <_dtoa_r+0x3e0>)
    47fc:	f002 fdfe 	bl	73fc <__aeabi_ddiv>
    4800:	9a08      	ldr	r2, [sp, #32]
    4802:	9b09      	ldr	r3, [sp, #36]	; 0x24
    4804:	f003 fcae 	bl	8164 <__aeabi_dsub>
    4808:	9008      	str	r0, [sp, #32]
    480a:	9109      	str	r1, [sp, #36]	; 0x24
    480c:	0039      	movs	r1, r7
    480e:	0030      	movs	r0, r6
    4810:	f003 ffde 	bl	87d0 <__aeabi_d2iz>
    4814:	0004      	movs	r4, r0
    4816:	f004 f80f 	bl	8838 <__aeabi_i2d>
    481a:	0002      	movs	r2, r0
    481c:	000b      	movs	r3, r1
    481e:	0030      	movs	r0, r6
    4820:	0039      	movs	r1, r7
    4822:	f003 fc9f 	bl	8164 <__aeabi_dsub>
    4826:	0005      	movs	r5, r0
    4828:	000e      	movs	r6, r1
    482a:	9a0a      	ldr	r2, [sp, #40]	; 0x28
    482c:	3430      	adds	r4, #48	; 0x30
    482e:	1c51      	adds	r1, r2, #1
    4830:	b2e7      	uxtb	r7, r4
    4832:	9114      	str	r1, [sp, #80]	; 0x50
    4834:	7017      	strb	r7, [r2, #0]
    4836:	0033      	movs	r3, r6
    4838:	9808      	ldr	r0, [sp, #32]
    483a:	9909      	ldr	r1, [sp, #36]	; 0x24
    483c:	002a      	movs	r2, r5
    483e:	f002 f9d9 	bl	6bf4 <__aeabi_dcmpgt>
    4842:	2800      	cmp	r0, #0
    4844:	d001      	beq.n	484a <_dtoa_r+0x35a>
    4846:	f000 fdfe 	bl	5446 <_dtoa_r+0xf56>
    484a:	002a      	movs	r2, r5
    484c:	0033      	movs	r3, r6
    484e:	2000      	movs	r0, #0
    4850:	4912      	ldr	r1, [pc, #72]	; (489c <_dtoa_r+0x3ac>)
    4852:	f003 fc87 	bl	8164 <__aeabi_dsub>
    4856:	0002      	movs	r2, r0
    4858:	000b      	movs	r3, r1
    485a:	9808      	ldr	r0, [sp, #32]
    485c:	9909      	ldr	r1, [sp, #36]	; 0x24
    485e:	f002 f9c9 	bl	6bf4 <__aeabi_dcmpgt>
    4862:	2800      	cmp	r0, #0
    4864:	d001      	beq.n	486a <_dtoa_r+0x37a>
    4866:	f000 fde7 	bl	5438 <_dtoa_r+0xf48>
    486a:	9b12      	ldr	r3, [sp, #72]	; 0x48
    486c:	2b01      	cmp	r3, #1
    486e:	d101      	bne.n	4874 <_dtoa_r+0x384>
    4870:	f000 fc78 	bl	5164 <_dtoa_r+0xc74>
    4874:	9a0a      	ldr	r2, [sp, #40]	; 0x28
    4876:	9b12      	ldr	r3, [sp, #72]	; 0x48
    4878:	4694      	mov	ip, r2
    487a:	4463      	add	r3, ip
    487c:	4698      	mov	r8, r3
    487e:	464b      	mov	r3, r9
    4880:	9312      	str	r3, [sp, #72]	; 0x48
    4882:	9b14      	ldr	r3, [sp, #80]	; 0x50
    4884:	4699      	mov	r9, r3
    4886:	e038      	b.n	48fa <_dtoa_r+0x40a>
    4888:	7ff00000 	.word	0x7ff00000
    488c:	0000909d 	.word	0x0000909d
    4890:	0000270f 	.word	0x0000270f
    4894:	000090e8 	.word	0x000090e8
    4898:	000090f4 	.word	0x000090f4
    489c:	3ff00000 	.word	0x3ff00000
    48a0:	fffffc01 	.word	0xfffffc01
    48a4:	3ff80000 	.word	0x3ff80000
    48a8:	636f4361 	.word	0x636f4361
    48ac:	3fd287a7 	.word	0x3fd287a7
    48b0:	8b60c8b3 	.word	0x8b60c8b3
    48b4:	3fc68a28 	.word	0x3fc68a28
    48b8:	509f79fb 	.word	0x509f79fb
    48bc:	3fd34413 	.word	0x3fd34413
    48c0:	00009120 	.word	0x00009120
    48c4:	000090f8 	.word	0x000090f8
    48c8:	401c0000 	.word	0x401c0000
    48cc:	fcc00000 	.word	0xfcc00000
    48d0:	3fe00000 	.word	0x3fe00000
    48d4:	002a      	movs	r2, r5
    48d6:	0033      	movs	r3, r6
    48d8:	2000      	movs	r0, #0
    48da:	49b9      	ldr	r1, [pc, #740]	; (4bc0 <_dtoa_r+0x6d0>)
    48dc:	f003 fc42 	bl	8164 <__aeabi_dsub>
    48e0:	9a08      	ldr	r2, [sp, #32]
    48e2:	9b09      	ldr	r3, [sp, #36]	; 0x24
    48e4:	f002 f972 	bl	6bcc <__aeabi_dcmplt>
    48e8:	2800      	cmp	r0, #0
    48ea:	d001      	beq.n	48f0 <_dtoa_r+0x400>
    48ec:	f000 fd74 	bl	53d8 <_dtoa_r+0xee8>
    48f0:	46a1      	mov	r9, r4
    48f2:	4544      	cmp	r4, r8
    48f4:	d101      	bne.n	48fa <_dtoa_r+0x40a>
    48f6:	f000 fc33 	bl	5160 <_dtoa_r+0xc70>
    48fa:	9808      	ldr	r0, [sp, #32]
    48fc:	9909      	ldr	r1, [sp, #36]	; 0x24
    48fe:	2200      	movs	r2, #0
    4900:	4bb0      	ldr	r3, [pc, #704]	; (4bc4 <_dtoa_r+0x6d4>)
    4902:	f003 f9af 	bl	7c64 <__aeabi_dmul>
    4906:	2200      	movs	r2, #0
    4908:	4bae      	ldr	r3, [pc, #696]	; (4bc4 <_dtoa_r+0x6d4>)
    490a:	9008      	str	r0, [sp, #32]
    490c:	9109      	str	r1, [sp, #36]	; 0x24
    490e:	0028      	movs	r0, r5
    4910:	0031      	movs	r1, r6
    4912:	f003 f9a7 	bl	7c64 <__aeabi_dmul>
    4916:	000d      	movs	r5, r1
    4918:	0004      	movs	r4, r0
    491a:	f003 ff59 	bl	87d0 <__aeabi_d2iz>
    491e:	0007      	movs	r7, r0
    4920:	f003 ff8a 	bl	8838 <__aeabi_i2d>
    4924:	0002      	movs	r2, r0
    4926:	000b      	movs	r3, r1
    4928:	0020      	movs	r0, r4
    492a:	0029      	movs	r1, r5
    492c:	f003 fc1a 	bl	8164 <__aeabi_dsub>
    4930:	464b      	mov	r3, r9
    4932:	3730      	adds	r7, #48	; 0x30
    4934:	b2ff      	uxtb	r7, r7
    4936:	1c5c      	adds	r4, r3, #1
    4938:	701f      	strb	r7, [r3, #0]
    493a:	9a08      	ldr	r2, [sp, #32]
    493c:	9b09      	ldr	r3, [sp, #36]	; 0x24
    493e:	0005      	movs	r5, r0
    4940:	000e      	movs	r6, r1
    4942:	f002 f943 	bl	6bcc <__aeabi_dcmplt>
    4946:	2800      	cmp	r0, #0
    4948:	d0c4      	beq.n	48d4 <_dtoa_r+0x3e4>
    494a:	9b13      	ldr	r3, [sp, #76]	; 0x4c
    494c:	9303      	str	r3, [sp, #12]
    494e:	4659      	mov	r1, fp
    4950:	4650      	mov	r0, sl
    4952:	f001 f92b 	bl	5bac <_Bfree>
    4956:	2300      	movs	r3, #0
    4958:	7023      	strb	r3, [r4, #0]
    495a:	9b03      	ldr	r3, [sp, #12]
    495c:	9a24      	ldr	r2, [sp, #144]	; 0x90
    495e:	3301      	adds	r3, #1
    4960:	6013      	str	r3, [r2, #0]
    4962:	9b26      	ldr	r3, [sp, #152]	; 0x98
    4964:	2b00      	cmp	r3, #0
    4966:	d100      	bne.n	496a <_dtoa_r+0x47a>
    4968:	e3a8      	b.n	50bc <_dtoa_r+0xbcc>
    496a:	601c      	str	r4, [r3, #0]
    496c:	980a      	ldr	r0, [sp, #40]	; 0x28
    496e:	e5f4      	b.n	455a <_dtoa_r+0x6a>
    4970:	9b16      	ldr	r3, [sp, #88]	; 0x58
    4972:	4699      	mov	r9, r3
    4974:	9b17      	ldr	r3, [sp, #92]	; 0x5c
    4976:	444b      	add	r3, r9
    4978:	001c      	movs	r4, r3
    497a:	4b93      	ldr	r3, [pc, #588]	; (4bc8 <_dtoa_r+0x6d8>)
    497c:	18e3      	adds	r3, r4, r3
    497e:	2b20      	cmp	r3, #32
    4980:	dc00      	bgt.n	4984 <_dtoa_r+0x494>
    4982:	e17e      	b.n	4c82 <_dtoa_r+0x792>
    4984:	0031      	movs	r1, r6
    4986:	4a91      	ldr	r2, [pc, #580]	; (4bcc <_dtoa_r+0x6dc>)
    4988:	4640      	mov	r0, r8
    498a:	18a2      	adds	r2, r4, r2
    498c:	40d1      	lsrs	r1, r2
    498e:	000a      	movs	r2, r1
    4990:	2140      	movs	r1, #64	; 0x40
    4992:	1acb      	subs	r3, r1, r3
    4994:	4098      	lsls	r0, r3
    4996:	4310      	orrs	r0, r2
    4998:	f003 ff90 	bl	88bc <__aeabi_ui2d>
    499c:	1e63      	subs	r3, r4, #1
    499e:	4698      	mov	r8, r3
    49a0:	2301      	movs	r3, #1
    49a2:	4d8b      	ldr	r5, [pc, #556]	; (4bd0 <_dtoa_r+0x6e0>)
    49a4:	930f      	str	r3, [sp, #60]	; 0x3c
    49a6:	1949      	adds	r1, r1, r5
    49a8:	e618      	b.n	45dc <_dtoa_r+0xec>
    49aa:	488a      	ldr	r0, [pc, #552]	; (4bd4 <_dtoa_r+0x6e4>)
    49ac:	e5d5      	b.n	455a <_dtoa_r+0x6a>
    49ae:	2300      	movs	r3, #0
    49b0:	4652      	mov	r2, sl
    49b2:	2100      	movs	r1, #0
    49b4:	6453      	str	r3, [r2, #68]	; 0x44
    49b6:	4650      	mov	r0, sl
    49b8:	f001 f8d0 	bl	5b5c <_Balloc>
    49bc:	4653      	mov	r3, sl
    49be:	6418      	str	r0, [r3, #64]	; 0x40
    49c0:	2301      	movs	r3, #1
    49c2:	425b      	negs	r3, r3
    49c4:	9307      	str	r3, [sp, #28]
    49c6:	930e      	str	r3, [sp, #56]	; 0x38
    49c8:	3302      	adds	r3, #2
    49ca:	2200      	movs	r2, #0
    49cc:	930b      	str	r3, [sp, #44]	; 0x2c
    49ce:	2300      	movs	r3, #0
    49d0:	900a      	str	r0, [sp, #40]	; 0x28
    49d2:	9223      	str	r2, [sp, #140]	; 0x8c
    49d4:	9322      	str	r3, [sp, #136]	; 0x88
    49d6:	9b17      	ldr	r3, [sp, #92]	; 0x5c
    49d8:	2b00      	cmp	r3, #0
    49da:	da00      	bge.n	49de <_dtoa_r+0x4ee>
    49dc:	e0ab      	b.n	4b36 <_dtoa_r+0x646>
    49de:	9a03      	ldr	r2, [sp, #12]
    49e0:	2a0e      	cmp	r2, #14
    49e2:	dd00      	ble.n	49e6 <_dtoa_r+0x4f6>
    49e4:	e0a7      	b.n	4b36 <_dtoa_r+0x646>
    49e6:	4b7c      	ldr	r3, [pc, #496]	; (4bd8 <_dtoa_r+0x6e8>)
    49e8:	00d2      	lsls	r2, r2, #3
    49ea:	189b      	adds	r3, r3, r2
    49ec:	685c      	ldr	r4, [r3, #4]
    49ee:	681b      	ldr	r3, [r3, #0]
    49f0:	9304      	str	r3, [sp, #16]
    49f2:	9405      	str	r4, [sp, #20]
    49f4:	9b23      	ldr	r3, [sp, #140]	; 0x8c
    49f6:	2b00      	cmp	r3, #0
    49f8:	da00      	bge.n	49fc <_dtoa_r+0x50c>
    49fa:	e2a7      	b.n	4f4c <_dtoa_r+0xa5c>
    49fc:	9c04      	ldr	r4, [sp, #16]
    49fe:	9d05      	ldr	r5, [sp, #20]
    4a00:	0030      	movs	r0, r6
    4a02:	0022      	movs	r2, r4
    4a04:	002b      	movs	r3, r5
    4a06:	0039      	movs	r1, r7
    4a08:	f002 fcf8 	bl	73fc <__aeabi_ddiv>
    4a0c:	f003 fee0 	bl	87d0 <__aeabi_d2iz>
    4a10:	4680      	mov	r8, r0
    4a12:	f003 ff11 	bl	8838 <__aeabi_i2d>
    4a16:	0022      	movs	r2, r4
    4a18:	002b      	movs	r3, r5
    4a1a:	f003 f923 	bl	7c64 <__aeabi_dmul>
    4a1e:	0002      	movs	r2, r0
    4a20:	000b      	movs	r3, r1
    4a22:	0030      	movs	r0, r6
    4a24:	0039      	movs	r1, r7
    4a26:	f003 fb9d 	bl	8164 <__aeabi_dsub>
    4a2a:	4643      	mov	r3, r8
    4a2c:	9a0a      	ldr	r2, [sp, #40]	; 0x28
    4a2e:	3330      	adds	r3, #48	; 0x30
    4a30:	7013      	strb	r3, [r2, #0]
    4a32:	9b07      	ldr	r3, [sp, #28]
    4a34:	0006      	movs	r6, r0
    4a36:	000f      	movs	r7, r1
    4a38:	1c54      	adds	r4, r2, #1
    4a3a:	2b01      	cmp	r3, #1
    4a3c:	d04e      	beq.n	4adc <_dtoa_r+0x5ec>
    4a3e:	2200      	movs	r2, #0
    4a40:	4b60      	ldr	r3, [pc, #384]	; (4bc4 <_dtoa_r+0x6d4>)
    4a42:	f003 f90f 	bl	7c64 <__aeabi_dmul>
    4a46:	2200      	movs	r2, #0
    4a48:	2300      	movs	r3, #0
    4a4a:	0006      	movs	r6, r0
    4a4c:	000f      	movs	r7, r1
    4a4e:	f002 f8b7 	bl	6bc0 <__aeabi_dcmpeq>
    4a52:	2800      	cmp	r0, #0
    4a54:	d000      	beq.n	4a58 <_dtoa_r+0x568>
    4a56:	e77a      	b.n	494e <_dtoa_r+0x45e>
    4a58:	9b0a      	ldr	r3, [sp, #40]	; 0x28
    4a5a:	9a07      	ldr	r2, [sp, #28]
    4a5c:	1c9d      	adds	r5, r3, #2
    4a5e:	469c      	mov	ip, r3
    4a60:	465b      	mov	r3, fp
    4a62:	9306      	str	r3, [sp, #24]
    4a64:	4653      	mov	r3, sl
    4a66:	4462      	add	r2, ip
    4a68:	46aa      	mov	sl, r5
    4a6a:	9c04      	ldr	r4, [sp, #16]
    4a6c:	9d05      	ldr	r5, [sp, #20]
    4a6e:	4691      	mov	r9, r2
    4a70:	9307      	str	r3, [sp, #28]
    4a72:	e00f      	b.n	4a94 <_dtoa_r+0x5a4>
    4a74:	2200      	movs	r2, #0
    4a76:	4b53      	ldr	r3, [pc, #332]	; (4bc4 <_dtoa_r+0x6d4>)
    4a78:	f003 f8f4 	bl	7c64 <__aeabi_dmul>
    4a7c:	2301      	movs	r3, #1
    4a7e:	469c      	mov	ip, r3
    4a80:	2200      	movs	r2, #0
    4a82:	2300      	movs	r3, #0
    4a84:	0006      	movs	r6, r0
    4a86:	000f      	movs	r7, r1
    4a88:	44e2      	add	sl, ip
    4a8a:	f002 f899 	bl	6bc0 <__aeabi_dcmpeq>
    4a8e:	2800      	cmp	r0, #0
    4a90:	d000      	beq.n	4a94 <_dtoa_r+0x5a4>
    4a92:	e2d9      	b.n	5048 <_dtoa_r+0xb58>
    4a94:	0022      	movs	r2, r4
    4a96:	002b      	movs	r3, r5
    4a98:	0030      	movs	r0, r6
    4a9a:	0039      	movs	r1, r7
    4a9c:	f002 fcae 	bl	73fc <__aeabi_ddiv>
    4aa0:	f003 fe96 	bl	87d0 <__aeabi_d2iz>
    4aa4:	4680      	mov	r8, r0
    4aa6:	f003 fec7 	bl	8838 <__aeabi_i2d>
    4aaa:	0022      	movs	r2, r4
    4aac:	002b      	movs	r3, r5
    4aae:	f003 f8d9 	bl	7c64 <__aeabi_dmul>
    4ab2:	0002      	movs	r2, r0
    4ab4:	000b      	movs	r3, r1
    4ab6:	0030      	movs	r0, r6
    4ab8:	0039      	movs	r1, r7
    4aba:	f003 fb53 	bl	8164 <__aeabi_dsub>
    4abe:	4653      	mov	r3, sl
    4ac0:	4642      	mov	r2, r8
    4ac2:	3b01      	subs	r3, #1
    4ac4:	3230      	adds	r2, #48	; 0x30
    4ac6:	0006      	movs	r6, r0
    4ac8:	000f      	movs	r7, r1
    4aca:	46d3      	mov	fp, sl
    4acc:	701a      	strb	r2, [r3, #0]
    4ace:	45d1      	cmp	r9, sl
    4ad0:	d1d0      	bne.n	4a74 <_dtoa_r+0x584>
    4ad2:	9b06      	ldr	r3, [sp, #24]
    4ad4:	4654      	mov	r4, sl
    4ad6:	469b      	mov	fp, r3
    4ad8:	9b07      	ldr	r3, [sp, #28]
    4ada:	469a      	mov	sl, r3
    4adc:	0032      	movs	r2, r6
    4ade:	003b      	movs	r3, r7
    4ae0:	0030      	movs	r0, r6
    4ae2:	0039      	movs	r1, r7
    4ae4:	f002 f97a 	bl	6ddc <__aeabi_dadd>
    4ae8:	0006      	movs	r6, r0
    4aea:	000f      	movs	r7, r1
    4aec:	0002      	movs	r2, r0
    4aee:	000b      	movs	r3, r1
    4af0:	9804      	ldr	r0, [sp, #16]
    4af2:	9905      	ldr	r1, [sp, #20]
    4af4:	f002 f86a 	bl	6bcc <__aeabi_dcmplt>
    4af8:	2800      	cmp	r0, #0
    4afa:	d10c      	bne.n	4b16 <_dtoa_r+0x626>
    4afc:	9804      	ldr	r0, [sp, #16]
    4afe:	9905      	ldr	r1, [sp, #20]
    4b00:	0032      	movs	r2, r6
    4b02:	003b      	movs	r3, r7
    4b04:	f002 f85c 	bl	6bc0 <__aeabi_dcmpeq>
    4b08:	2800      	cmp	r0, #0
    4b0a:	d100      	bne.n	4b0e <_dtoa_r+0x61e>
    4b0c:	e71f      	b.n	494e <_dtoa_r+0x45e>
    4b0e:	4643      	mov	r3, r8
    4b10:	07db      	lsls	r3, r3, #31
    4b12:	d400      	bmi.n	4b16 <_dtoa_r+0x626>
    4b14:	e71b      	b.n	494e <_dtoa_r+0x45e>
    4b16:	1e65      	subs	r5, r4, #1
    4b18:	782f      	ldrb	r7, [r5, #0]
    4b1a:	9b0a      	ldr	r3, [sp, #40]	; 0x28
    4b1c:	e006      	b.n	4b2c <_dtoa_r+0x63c>
    4b1e:	429d      	cmp	r5, r3
    4b20:	d100      	bne.n	4b24 <_dtoa_r+0x634>
    4b22:	e351      	b.n	51c8 <_dtoa_r+0xcd8>
    4b24:	3c02      	subs	r4, #2
    4b26:	7827      	ldrb	r7, [r4, #0]
    4b28:	002c      	movs	r4, r5
    4b2a:	3d01      	subs	r5, #1
    4b2c:	2f39      	cmp	r7, #57	; 0x39
    4b2e:	d0f6      	beq.n	4b1e <_dtoa_r+0x62e>
    4b30:	3701      	adds	r7, #1
    4b32:	702f      	strb	r7, [r5, #0]
    4b34:	e70b      	b.n	494e <_dtoa_r+0x45e>
    4b36:	9a0b      	ldr	r2, [sp, #44]	; 0x2c
    4b38:	2a00      	cmp	r2, #0
    4b3a:	d04f      	beq.n	4bdc <_dtoa_r+0x6ec>
    4b3c:	9a22      	ldr	r2, [sp, #136]	; 0x88
    4b3e:	2a01      	cmp	r2, #1
    4b40:	dc00      	bgt.n	4b44 <_dtoa_r+0x654>
    4b42:	e22c      	b.n	4f9e <_dtoa_r+0xaae>
    4b44:	9b07      	ldr	r3, [sp, #28]
    4b46:	1e5c      	subs	r4, r3, #1
    4b48:	464b      	mov	r3, r9
    4b4a:	45a1      	cmp	r9, r4
    4b4c:	da00      	bge.n	4b50 <_dtoa_r+0x660>
    4b4e:	e2b8      	b.n	50c2 <_dtoa_r+0xbd2>
    4b50:	1b1c      	subs	r4, r3, r4
    4b52:	9b07      	ldr	r3, [sp, #28]
    4b54:	2b00      	cmp	r3, #0
    4b56:	da00      	bge.n	4b5a <_dtoa_r+0x66a>
    4b58:	e3d4      	b.n	5304 <_dtoa_r+0xe14>
    4b5a:	9b06      	ldr	r3, [sp, #24]
    4b5c:	9308      	str	r3, [sp, #32]
    4b5e:	9b07      	ldr	r3, [sp, #28]
    4b60:	9a06      	ldr	r2, [sp, #24]
    4b62:	2101      	movs	r1, #1
    4b64:	4694      	mov	ip, r2
    4b66:	449c      	add	ip, r3
    4b68:	4662      	mov	r2, ip
    4b6a:	9206      	str	r2, [sp, #24]
    4b6c:	9a04      	ldr	r2, [sp, #16]
    4b6e:	4650      	mov	r0, sl
    4b70:	4694      	mov	ip, r2
    4b72:	449c      	add	ip, r3
    4b74:	4663      	mov	r3, ip
    4b76:	9304      	str	r3, [sp, #16]
    4b78:	f001 f8b0 	bl	5cdc <__i2b>
    4b7c:	4680      	mov	r8, r0
    4b7e:	e032      	b.n	4be6 <_dtoa_r+0x6f6>
    4b80:	9a06      	ldr	r2, [sp, #24]
    4b82:	9b03      	ldr	r3, [sp, #12]
    4b84:	1ad2      	subs	r2, r2, r3
    4b86:	425b      	negs	r3, r3
    4b88:	4699      	mov	r9, r3
    4b8a:	2300      	movs	r3, #0
    4b8c:	9206      	str	r2, [sp, #24]
    4b8e:	930d      	str	r3, [sp, #52]	; 0x34
    4b90:	e579      	b.n	4686 <_dtoa_r+0x196>
    4b92:	9803      	ldr	r0, [sp, #12]
    4b94:	f003 fe50 	bl	8838 <__aeabi_i2d>
    4b98:	000b      	movs	r3, r1
    4b9a:	0002      	movs	r2, r0
    4b9c:	0029      	movs	r1, r5
    4b9e:	0020      	movs	r0, r4
    4ba0:	f002 f80e 	bl	6bc0 <__aeabi_dcmpeq>
    4ba4:	0002      	movs	r2, r0
    4ba6:	4250      	negs	r0, r2
    4ba8:	4150      	adcs	r0, r2
    4baa:	9b03      	ldr	r3, [sp, #12]
    4bac:	1a1b      	subs	r3, r3, r0
    4bae:	9303      	str	r3, [sp, #12]
    4bb0:	e53d      	b.n	462e <_dtoa_r+0x13e>
    4bb2:	2301      	movs	r3, #1
    4bb4:	1a9b      	subs	r3, r3, r2
    4bb6:	9306      	str	r3, [sp, #24]
    4bb8:	2300      	movs	r3, #0
    4bba:	9304      	str	r3, [sp, #16]
    4bbc:	e557      	b.n	466e <_dtoa_r+0x17e>
    4bbe:	46c0      	nop			; (mov r8, r8)
    4bc0:	3ff00000 	.word	0x3ff00000
    4bc4:	40240000 	.word	0x40240000
    4bc8:	00000432 	.word	0x00000432
    4bcc:	00000412 	.word	0x00000412
    4bd0:	fe100000 	.word	0xfe100000
    4bd4:	0000909c 	.word	0x0000909c
    4bd8:	00009120 	.word	0x00009120
    4bdc:	9b06      	ldr	r3, [sp, #24]
    4bde:	464c      	mov	r4, r9
    4be0:	9308      	str	r3, [sp, #32]
    4be2:	2300      	movs	r3, #0
    4be4:	4698      	mov	r8, r3
    4be6:	9908      	ldr	r1, [sp, #32]
    4be8:	1e0b      	subs	r3, r1, #0
    4bea:	dd0e      	ble.n	4c0a <_dtoa_r+0x71a>
    4bec:	9a04      	ldr	r2, [sp, #16]
    4bee:	2a00      	cmp	r2, #0
    4bf0:	dd0b      	ble.n	4c0a <_dtoa_r+0x71a>
    4bf2:	4293      	cmp	r3, r2
    4bf4:	dd00      	ble.n	4bf8 <_dtoa_r+0x708>
    4bf6:	e187      	b.n	4f08 <_dtoa_r+0xa18>
    4bf8:	9a06      	ldr	r2, [sp, #24]
    4bfa:	1ad2      	subs	r2, r2, r3
    4bfc:	9206      	str	r2, [sp, #24]
    4bfe:	9a08      	ldr	r2, [sp, #32]
    4c00:	1ad2      	subs	r2, r2, r3
    4c02:	9208      	str	r2, [sp, #32]
    4c04:	9a04      	ldr	r2, [sp, #16]
    4c06:	1ad3      	subs	r3, r2, r3
    4c08:	9304      	str	r3, [sp, #16]
    4c0a:	464b      	mov	r3, r9
    4c0c:	2b00      	cmp	r3, #0
    4c0e:	d01a      	beq.n	4c46 <_dtoa_r+0x756>
    4c10:	9b0b      	ldr	r3, [sp, #44]	; 0x2c
    4c12:	2b00      	cmp	r3, #0
    4c14:	d100      	bne.n	4c18 <_dtoa_r+0x728>
    4c16:	e1bb      	b.n	4f90 <_dtoa_r+0xaa0>
    4c18:	2c00      	cmp	r4, #0
    4c1a:	dd10      	ble.n	4c3e <_dtoa_r+0x74e>
    4c1c:	4641      	mov	r1, r8
    4c1e:	0022      	movs	r2, r4
    4c20:	4650      	mov	r0, sl
    4c22:	f001 f90f 	bl	5e44 <__pow5mult>
    4c26:	465a      	mov	r2, fp
    4c28:	0001      	movs	r1, r0
    4c2a:	4680      	mov	r8, r0
    4c2c:	4650      	mov	r0, sl
    4c2e:	f001 f85f 	bl	5cf0 <__multiply>
    4c32:	0005      	movs	r5, r0
    4c34:	4659      	mov	r1, fp
    4c36:	4650      	mov	r0, sl
    4c38:	f000 ffb8 	bl	5bac <_Bfree>
    4c3c:	46ab      	mov	fp, r5
    4c3e:	464b      	mov	r3, r9
    4c40:	1b1a      	subs	r2, r3, r4
    4c42:	d000      	beq.n	4c46 <_dtoa_r+0x756>
    4c44:	e1a5      	b.n	4f92 <_dtoa_r+0xaa2>
    4c46:	2101      	movs	r1, #1
    4c48:	4650      	mov	r0, sl
    4c4a:	f001 f847 	bl	5cdc <__i2b>
    4c4e:	9b0d      	ldr	r3, [sp, #52]	; 0x34
    4c50:	4681      	mov	r9, r0
    4c52:	2b00      	cmp	r3, #0
    4c54:	dd1d      	ble.n	4c92 <_dtoa_r+0x7a2>
    4c56:	001a      	movs	r2, r3
    4c58:	0001      	movs	r1, r0
    4c5a:	4650      	mov	r0, sl
    4c5c:	f001 f8f2 	bl	5e44 <__pow5mult>
    4c60:	9b22      	ldr	r3, [sp, #136]	; 0x88
    4c62:	4681      	mov	r9, r0
    4c64:	2b01      	cmp	r3, #1
    4c66:	dc00      	bgt.n	4c6a <_dtoa_r+0x77a>
    4c68:	e150      	b.n	4f0c <_dtoa_r+0xa1c>
    4c6a:	2400      	movs	r4, #0
    4c6c:	464b      	mov	r3, r9
    4c6e:	691b      	ldr	r3, [r3, #16]
    4c70:	3303      	adds	r3, #3
    4c72:	009b      	lsls	r3, r3, #2
    4c74:	444b      	add	r3, r9
    4c76:	6858      	ldr	r0, [r3, #4]
    4c78:	f000 ffe8 	bl	5c4c <__hi0bits>
    4c7c:	2320      	movs	r3, #32
    4c7e:	1a1b      	subs	r3, r3, r0
    4c80:	e010      	b.n	4ca4 <_dtoa_r+0x7b4>
    4c82:	2220      	movs	r2, #32
    4c84:	0030      	movs	r0, r6
    4c86:	1ad3      	subs	r3, r2, r3
    4c88:	4098      	lsls	r0, r3
    4c8a:	e685      	b.n	4998 <_dtoa_r+0x4a8>
    4c8c:	2300      	movs	r3, #0
    4c8e:	930c      	str	r3, [sp, #48]	; 0x30
    4c90:	e4e3      	b.n	465a <_dtoa_r+0x16a>
    4c92:	9b22      	ldr	r3, [sp, #136]	; 0x88
    4c94:	2400      	movs	r4, #0
    4c96:	2b01      	cmp	r3, #1
    4c98:	dc00      	bgt.n	4c9c <_dtoa_r+0x7ac>
    4c9a:	e18b      	b.n	4fb4 <_dtoa_r+0xac4>
    4c9c:	9a0d      	ldr	r2, [sp, #52]	; 0x34
    4c9e:	2301      	movs	r3, #1
    4ca0:	2a00      	cmp	r2, #0
    4ca2:	d1e3      	bne.n	4c6c <_dtoa_r+0x77c>
    4ca4:	9904      	ldr	r1, [sp, #16]
    4ca6:	201f      	movs	r0, #31
    4ca8:	468c      	mov	ip, r1
    4caa:	4463      	add	r3, ip
    4cac:	4018      	ands	r0, r3
    4cae:	d100      	bne.n	4cb2 <_dtoa_r+0x7c2>
    4cb0:	e0ae      	b.n	4e10 <_dtoa_r+0x920>
    4cb2:	2320      	movs	r3, #32
    4cb4:	1a1b      	subs	r3, r3, r0
    4cb6:	2b04      	cmp	r3, #4
    4cb8:	dc00      	bgt.n	4cbc <_dtoa_r+0x7cc>
    4cba:	e3cc      	b.n	5456 <_dtoa_r+0xf66>
    4cbc:	231c      	movs	r3, #28
    4cbe:	1a18      	subs	r0, r3, r0
    4cc0:	9b06      	ldr	r3, [sp, #24]
    4cc2:	469c      	mov	ip, r3
    4cc4:	4484      	add	ip, r0
    4cc6:	4663      	mov	r3, ip
    4cc8:	9306      	str	r3, [sp, #24]
    4cca:	9b08      	ldr	r3, [sp, #32]
    4ccc:	469c      	mov	ip, r3
    4cce:	4484      	add	ip, r0
    4cd0:	4663      	mov	r3, ip
    4cd2:	468c      	mov	ip, r1
    4cd4:	4484      	add	ip, r0
    4cd6:	9308      	str	r3, [sp, #32]
    4cd8:	4663      	mov	r3, ip
    4cda:	9304      	str	r3, [sp, #16]
    4cdc:	9b06      	ldr	r3, [sp, #24]
    4cde:	2b00      	cmp	r3, #0
    4ce0:	dd05      	ble.n	4cee <_dtoa_r+0x7fe>
    4ce2:	4659      	mov	r1, fp
    4ce4:	001a      	movs	r2, r3
    4ce6:	4650      	mov	r0, sl
    4ce8:	f001 f90c 	bl	5f04 <__lshift>
    4cec:	4683      	mov	fp, r0
    4cee:	9b04      	ldr	r3, [sp, #16]
    4cf0:	2b00      	cmp	r3, #0
    4cf2:	dd05      	ble.n	4d00 <_dtoa_r+0x810>
    4cf4:	4649      	mov	r1, r9
    4cf6:	001a      	movs	r2, r3
    4cf8:	4650      	mov	r0, sl
    4cfa:	f001 f903 	bl	5f04 <__lshift>
    4cfe:	4681      	mov	r9, r0
    4d00:	9b0c      	ldr	r3, [sp, #48]	; 0x30
    4d02:	2b00      	cmp	r3, #0
    4d04:	d000      	beq.n	4d08 <_dtoa_r+0x818>
    4d06:	e094      	b.n	4e32 <_dtoa_r+0x942>
    4d08:	9b07      	ldr	r3, [sp, #28]
    4d0a:	2b00      	cmp	r3, #0
    4d0c:	dc00      	bgt.n	4d10 <_dtoa_r+0x820>
    4d0e:	e175      	b.n	4ffc <_dtoa_r+0xb0c>
    4d10:	9b0b      	ldr	r3, [sp, #44]	; 0x2c
    4d12:	2b00      	cmp	r3, #0
    4d14:	d100      	bne.n	4d18 <_dtoa_r+0x828>
    4d16:	e0a6      	b.n	4e66 <_dtoa_r+0x976>
    4d18:	9b08      	ldr	r3, [sp, #32]
    4d1a:	2b00      	cmp	r3, #0
    4d1c:	dd05      	ble.n	4d2a <_dtoa_r+0x83a>
    4d1e:	4641      	mov	r1, r8
    4d20:	001a      	movs	r2, r3
    4d22:	4650      	mov	r0, sl
    4d24:	f001 f8ee 	bl	5f04 <__lshift>
    4d28:	4680      	mov	r8, r0
    4d2a:	4643      	mov	r3, r8
    4d2c:	930c      	str	r3, [sp, #48]	; 0x30
    4d2e:	2c00      	cmp	r4, #0
    4d30:	d000      	beq.n	4d34 <_dtoa_r+0x844>
    4d32:	e250      	b.n	51d6 <_dtoa_r+0xce6>
    4d34:	9c07      	ldr	r4, [sp, #28]
    4d36:	9a0a      	ldr	r2, [sp, #40]	; 0x28
    4d38:	3c01      	subs	r4, #1
    4d3a:	0023      	movs	r3, r4
    4d3c:	4694      	mov	ip, r2
    4d3e:	4463      	add	r3, ip
    4d40:	9308      	str	r3, [sp, #32]
    4d42:	2301      	movs	r3, #1
    4d44:	4033      	ands	r3, r6
    4d46:	9307      	str	r3, [sp, #28]
    4d48:	464b      	mov	r3, r9
    4d4a:	9306      	str	r3, [sp, #24]
    4d4c:	9b0c      	ldr	r3, [sp, #48]	; 0x30
    4d4e:	4657      	mov	r7, sl
    4d50:	4645      	mov	r5, r8
    4d52:	465e      	mov	r6, fp
    4d54:	4692      	mov	sl, r2
    4d56:	4698      	mov	r8, r3
    4d58:	9b06      	ldr	r3, [sp, #24]
    4d5a:	0030      	movs	r0, r6
    4d5c:	0019      	movs	r1, r3
    4d5e:	4699      	mov	r9, r3
    4d60:	f7ff fb1c 	bl	439c <quorem>
    4d64:	0003      	movs	r3, r0
    4d66:	900b      	str	r0, [sp, #44]	; 0x2c
    4d68:	3330      	adds	r3, #48	; 0x30
    4d6a:	0029      	movs	r1, r5
    4d6c:	0030      	movs	r0, r6
    4d6e:	9304      	str	r3, [sp, #16]
    4d70:	f001 f928 	bl	5fc4 <__mcmp>
    4d74:	4649      	mov	r1, r9
    4d76:	0004      	movs	r4, r0
    4d78:	4642      	mov	r2, r8
    4d7a:	0038      	movs	r0, r7
    4d7c:	f001 f93c 	bl	5ff8 <__mdiff>
    4d80:	68c3      	ldr	r3, [r0, #12]
    4d82:	4681      	mov	r9, r0
    4d84:	2b00      	cmp	r3, #0
    4d86:	d000      	beq.n	4d8a <_dtoa_r+0x89a>
    4d88:	e11e      	b.n	4fc8 <_dtoa_r+0xad8>
    4d8a:	0001      	movs	r1, r0
    4d8c:	0030      	movs	r0, r6
    4d8e:	f001 f919 	bl	5fc4 <__mcmp>
    4d92:	4683      	mov	fp, r0
    4d94:	4649      	mov	r1, r9
    4d96:	0038      	movs	r0, r7
    4d98:	f000 ff08 	bl	5bac <_Bfree>
    4d9c:	465b      	mov	r3, fp
    4d9e:	9a22      	ldr	r2, [sp, #136]	; 0x88
    4da0:	4313      	orrs	r3, r2
    4da2:	d103      	bne.n	4dac <_dtoa_r+0x8bc>
    4da4:	9b07      	ldr	r3, [sp, #28]
    4da6:	2b00      	cmp	r3, #0
    4da8:	d100      	bne.n	4dac <_dtoa_r+0x8bc>
    4daa:	e306      	b.n	53ba <_dtoa_r+0xeca>
    4dac:	2c00      	cmp	r4, #0
    4dae:	da00      	bge.n	4db2 <_dtoa_r+0x8c2>
    4db0:	e1a8      	b.n	5104 <_dtoa_r+0xc14>
    4db2:	9b22      	ldr	r3, [sp, #136]	; 0x88
    4db4:	431c      	orrs	r4, r3
    4db6:	d103      	bne.n	4dc0 <_dtoa_r+0x8d0>
    4db8:	9b07      	ldr	r3, [sp, #28]
    4dba:	2b00      	cmp	r3, #0
    4dbc:	d100      	bne.n	4dc0 <_dtoa_r+0x8d0>
    4dbe:	e1a1      	b.n	5104 <_dtoa_r+0xc14>
    4dc0:	465b      	mov	r3, fp
    4dc2:	2b00      	cmp	r3, #0
    4dc4:	dd00      	ble.n	4dc8 <_dtoa_r+0x8d8>
    4dc6:	e282      	b.n	52ce <_dtoa_r+0xdde>
    4dc8:	4669      	mov	r1, sp
    4dca:	4652      	mov	r2, sl
    4dcc:	4653      	mov	r3, sl
    4dce:	7c09      	ldrb	r1, [r1, #16]
    4dd0:	1c5c      	adds	r4, r3, #1
    4dd2:	7011      	strb	r1, [r2, #0]
    4dd4:	9a08      	ldr	r2, [sp, #32]
    4dd6:	4552      	cmp	r2, sl
    4dd8:	d100      	bne.n	4ddc <_dtoa_r+0x8ec>
    4dda:	e28a      	b.n	52f2 <_dtoa_r+0xe02>
    4ddc:	0031      	movs	r1, r6
    4dde:	2300      	movs	r3, #0
    4de0:	220a      	movs	r2, #10
    4de2:	0038      	movs	r0, r7
    4de4:	f000 feec 	bl	5bc0 <__multadd>
    4de8:	2300      	movs	r3, #0
    4dea:	0006      	movs	r6, r0
    4dec:	220a      	movs	r2, #10
    4dee:	0029      	movs	r1, r5
    4df0:	0038      	movs	r0, r7
    4df2:	4545      	cmp	r5, r8
    4df4:	d100      	bne.n	4df8 <_dtoa_r+0x908>
    4df6:	e0e1      	b.n	4fbc <_dtoa_r+0xacc>
    4df8:	f000 fee2 	bl	5bc0 <__multadd>
    4dfc:	4641      	mov	r1, r8
    4dfe:	0005      	movs	r5, r0
    4e00:	2300      	movs	r3, #0
    4e02:	220a      	movs	r2, #10
    4e04:	0038      	movs	r0, r7
    4e06:	f000 fedb 	bl	5bc0 <__multadd>
    4e0a:	46a2      	mov	sl, r4
    4e0c:	4680      	mov	r8, r0
    4e0e:	e7a3      	b.n	4d58 <_dtoa_r+0x868>
    4e10:	201c      	movs	r0, #28
    4e12:	9b06      	ldr	r3, [sp, #24]
    4e14:	469c      	mov	ip, r3
    4e16:	4484      	add	ip, r0
    4e18:	4663      	mov	r3, ip
    4e1a:	9306      	str	r3, [sp, #24]
    4e1c:	9b08      	ldr	r3, [sp, #32]
    4e1e:	469c      	mov	ip, r3
    4e20:	4484      	add	ip, r0
    4e22:	4663      	mov	r3, ip
    4e24:	9308      	str	r3, [sp, #32]
    4e26:	9b04      	ldr	r3, [sp, #16]
    4e28:	469c      	mov	ip, r3
    4e2a:	4484      	add	ip, r0
    4e2c:	4663      	mov	r3, ip
    4e2e:	9304      	str	r3, [sp, #16]
    4e30:	e754      	b.n	4cdc <_dtoa_r+0x7ec>
    4e32:	4649      	mov	r1, r9
    4e34:	4658      	mov	r0, fp
    4e36:	f001 f8c5 	bl	5fc4 <__mcmp>
    4e3a:	2800      	cmp	r0, #0
    4e3c:	db00      	blt.n	4e40 <_dtoa_r+0x950>
    4e3e:	e763      	b.n	4d08 <_dtoa_r+0x818>
    4e40:	9b03      	ldr	r3, [sp, #12]
    4e42:	4659      	mov	r1, fp
    4e44:	3b01      	subs	r3, #1
    4e46:	9303      	str	r3, [sp, #12]
    4e48:	220a      	movs	r2, #10
    4e4a:	2300      	movs	r3, #0
    4e4c:	4650      	mov	r0, sl
    4e4e:	f000 feb7 	bl	5bc0 <__multadd>
    4e52:	9b0b      	ldr	r3, [sp, #44]	; 0x2c
    4e54:	4683      	mov	fp, r0
    4e56:	2b00      	cmp	r3, #0
    4e58:	d000      	beq.n	4e5c <_dtoa_r+0x96c>
    4e5a:	e2ca      	b.n	53f2 <_dtoa_r+0xf02>
    4e5c:	9b0e      	ldr	r3, [sp, #56]	; 0x38
    4e5e:	2b00      	cmp	r3, #0
    4e60:	dc00      	bgt.n	4e64 <_dtoa_r+0x974>
    4e62:	e2d8      	b.n	5416 <_dtoa_r+0xf26>
    4e64:	9307      	str	r3, [sp, #28]
    4e66:	9b0a      	ldr	r3, [sp, #40]	; 0x28
    4e68:	465d      	mov	r5, fp
    4e6a:	2400      	movs	r4, #0
    4e6c:	9f07      	ldr	r7, [sp, #28]
    4e6e:	469b      	mov	fp, r3
    4e70:	e006      	b.n	4e80 <_dtoa_r+0x990>
    4e72:	0029      	movs	r1, r5
    4e74:	2300      	movs	r3, #0
    4e76:	220a      	movs	r2, #10
    4e78:	4650      	mov	r0, sl
    4e7a:	f000 fea1 	bl	5bc0 <__multadd>
    4e7e:	0005      	movs	r5, r0
    4e80:	4649      	mov	r1, r9
    4e82:	0028      	movs	r0, r5
    4e84:	f7ff fa8a 	bl	439c <quorem>
    4e88:	465b      	mov	r3, fp
    4e8a:	3030      	adds	r0, #48	; 0x30
    4e8c:	5518      	strb	r0, [r3, r4]
    4e8e:	3401      	adds	r4, #1
    4e90:	42bc      	cmp	r4, r7
    4e92:	dbee      	blt.n	4e72 <_dtoa_r+0x982>
    4e94:	46ab      	mov	fp, r5
    4e96:	0006      	movs	r6, r0
    4e98:	9c07      	ldr	r4, [sp, #28]
    4e9a:	2c00      	cmp	r4, #0
    4e9c:	dc00      	bgt.n	4ea0 <_dtoa_r+0x9b0>
    4e9e:	e237      	b.n	5310 <_dtoa_r+0xe20>
    4ea0:	9b0a      	ldr	r3, [sp, #40]	; 0x28
    4ea2:	2700      	movs	r7, #0
    4ea4:	469c      	mov	ip, r3
    4ea6:	4464      	add	r4, ip
    4ea8:	4659      	mov	r1, fp
    4eaa:	2201      	movs	r2, #1
    4eac:	4650      	mov	r0, sl
    4eae:	f001 f829 	bl	5f04 <__lshift>
    4eb2:	4649      	mov	r1, r9
    4eb4:	4683      	mov	fp, r0
    4eb6:	f001 f885 	bl	5fc4 <__mcmp>
    4eba:	2800      	cmp	r0, #0
    4ebc:	dc00      	bgt.n	4ec0 <_dtoa_r+0x9d0>
    4ebe:	e144      	b.n	514a <_dtoa_r+0xc5a>
    4ec0:	1e65      	subs	r5, r4, #1
    4ec2:	782b      	ldrb	r3, [r5, #0]
    4ec4:	9a0a      	ldr	r2, [sp, #40]	; 0x28
    4ec6:	e006      	b.n	4ed6 <_dtoa_r+0x9e6>
    4ec8:	4295      	cmp	r5, r2
    4eca:	d100      	bne.n	4ece <_dtoa_r+0x9de>
    4ecc:	e0b1      	b.n	5032 <_dtoa_r+0xb42>
    4ece:	3c02      	subs	r4, #2
    4ed0:	7823      	ldrb	r3, [r4, #0]
    4ed2:	002c      	movs	r4, r5
    4ed4:	3d01      	subs	r5, #1
    4ed6:	2b39      	cmp	r3, #57	; 0x39
    4ed8:	d0f6      	beq.n	4ec8 <_dtoa_r+0x9d8>
    4eda:	3301      	adds	r3, #1
    4edc:	702b      	strb	r3, [r5, #0]
    4ede:	4649      	mov	r1, r9
    4ee0:	4650      	mov	r0, sl
    4ee2:	f000 fe63 	bl	5bac <_Bfree>
    4ee6:	4643      	mov	r3, r8
    4ee8:	2b00      	cmp	r3, #0
    4eea:	d100      	bne.n	4eee <_dtoa_r+0x9fe>
    4eec:	e52f      	b.n	494e <_dtoa_r+0x45e>
    4eee:	2f00      	cmp	r7, #0
    4ef0:	d005      	beq.n	4efe <_dtoa_r+0xa0e>
    4ef2:	4547      	cmp	r7, r8
    4ef4:	d003      	beq.n	4efe <_dtoa_r+0xa0e>
    4ef6:	0039      	movs	r1, r7
    4ef8:	4650      	mov	r0, sl
    4efa:	f000 fe57 	bl	5bac <_Bfree>
    4efe:	4641      	mov	r1, r8
    4f00:	4650      	mov	r0, sl
    4f02:	f000 fe53 	bl	5bac <_Bfree>
    4f06:	e522      	b.n	494e <_dtoa_r+0x45e>
    4f08:	0013      	movs	r3, r2
    4f0a:	e675      	b.n	4bf8 <_dtoa_r+0x708>
    4f0c:	2e00      	cmp	r6, #0
    4f0e:	d000      	beq.n	4f12 <_dtoa_r+0xa22>
    4f10:	e6ab      	b.n	4c6a <_dtoa_r+0x77a>
    4f12:	033b      	lsls	r3, r7, #12
    4f14:	2400      	movs	r4, #0
    4f16:	2b00      	cmp	r3, #0
    4f18:	d000      	beq.n	4f1c <_dtoa_r+0xa2c>
    4f1a:	e6bf      	b.n	4c9c <_dtoa_r+0x7ac>
    4f1c:	4bba      	ldr	r3, [pc, #744]	; (5208 <_dtoa_r+0xd18>)
    4f1e:	423b      	tst	r3, r7
    4f20:	d100      	bne.n	4f24 <_dtoa_r+0xa34>
    4f22:	e6bb      	b.n	4c9c <_dtoa_r+0x7ac>
    4f24:	9b06      	ldr	r3, [sp, #24]
    4f26:	3401      	adds	r4, #1
    4f28:	3301      	adds	r3, #1
    4f2a:	9306      	str	r3, [sp, #24]
    4f2c:	9b04      	ldr	r3, [sp, #16]
    4f2e:	3301      	adds	r3, #1
    4f30:	9304      	str	r3, [sp, #16]
    4f32:	e6b3      	b.n	4c9c <_dtoa_r+0x7ac>
    4f34:	2301      	movs	r3, #1
    4f36:	930b      	str	r3, [sp, #44]	; 0x2c
    4f38:	9b23      	ldr	r3, [sp, #140]	; 0x8c
    4f3a:	2b00      	cmp	r3, #0
    4f3c:	dc00      	bgt.n	4f40 <_dtoa_r+0xa50>
    4f3e:	e0d1      	b.n	50e4 <_dtoa_r+0xbf4>
    4f40:	001d      	movs	r5, r3
    4f42:	4698      	mov	r8, r3
    4f44:	930e      	str	r3, [sp, #56]	; 0x38
    4f46:	9307      	str	r3, [sp, #28]
    4f48:	f7ff fbc8 	bl	46dc <_dtoa_r+0x1ec>
    4f4c:	9b07      	ldr	r3, [sp, #28]
    4f4e:	2b00      	cmp	r3, #0
    4f50:	dd00      	ble.n	4f54 <_dtoa_r+0xa64>
    4f52:	e553      	b.n	49fc <_dtoa_r+0x50c>
    4f54:	d000      	beq.n	4f58 <_dtoa_r+0xa68>
    4f56:	e0ad      	b.n	50b4 <_dtoa_r+0xbc4>
    4f58:	9804      	ldr	r0, [sp, #16]
    4f5a:	9905      	ldr	r1, [sp, #20]
    4f5c:	2200      	movs	r2, #0
    4f5e:	4bab      	ldr	r3, [pc, #684]	; (520c <_dtoa_r+0xd1c>)
    4f60:	f002 fe80 	bl	7c64 <__aeabi_dmul>
    4f64:	003b      	movs	r3, r7
    4f66:	0032      	movs	r2, r6
    4f68:	f001 fe4e 	bl	6c08 <__aeabi_dcmpge>
    4f6c:	2300      	movs	r3, #0
    4f6e:	4699      	mov	r9, r3
    4f70:	4698      	mov	r8, r3
    4f72:	2800      	cmp	r0, #0
    4f74:	d055      	beq.n	5022 <_dtoa_r+0xb32>
    4f76:	9b23      	ldr	r3, [sp, #140]	; 0x8c
    4f78:	9c0a      	ldr	r4, [sp, #40]	; 0x28
    4f7a:	43db      	mvns	r3, r3
    4f7c:	9303      	str	r3, [sp, #12]
    4f7e:	4649      	mov	r1, r9
    4f80:	4650      	mov	r0, sl
    4f82:	f000 fe13 	bl	5bac <_Bfree>
    4f86:	4643      	mov	r3, r8
    4f88:	2b00      	cmp	r3, #0
    4f8a:	d100      	bne.n	4f8e <_dtoa_r+0xa9e>
    4f8c:	e4df      	b.n	494e <_dtoa_r+0x45e>
    4f8e:	e7b6      	b.n	4efe <_dtoa_r+0xa0e>
    4f90:	464a      	mov	r2, r9
    4f92:	4659      	mov	r1, fp
    4f94:	4650      	mov	r0, sl
    4f96:	f000 ff55 	bl	5e44 <__pow5mult>
    4f9a:	4683      	mov	fp, r0
    4f9c:	e653      	b.n	4c46 <_dtoa_r+0x756>
    4f9e:	9a0f      	ldr	r2, [sp, #60]	; 0x3c
    4fa0:	2a00      	cmp	r2, #0
    4fa2:	d100      	bne.n	4fa6 <_dtoa_r+0xab6>
    4fa4:	e1b6      	b.n	5314 <_dtoa_r+0xe24>
    4fa6:	4a9a      	ldr	r2, [pc, #616]	; (5210 <_dtoa_r+0xd20>)
    4fa8:	464c      	mov	r4, r9
    4faa:	4694      	mov	ip, r2
    4fac:	9a06      	ldr	r2, [sp, #24]
    4fae:	4463      	add	r3, ip
    4fb0:	9208      	str	r2, [sp, #32]
    4fb2:	e5d5      	b.n	4b60 <_dtoa_r+0x670>
    4fb4:	2e00      	cmp	r6, #0
    4fb6:	d000      	beq.n	4fba <_dtoa_r+0xaca>
    4fb8:	e670      	b.n	4c9c <_dtoa_r+0x7ac>
    4fba:	e7aa      	b.n	4f12 <_dtoa_r+0xa22>
    4fbc:	f000 fe00 	bl	5bc0 <__multadd>
    4fc0:	46a2      	mov	sl, r4
    4fc2:	0005      	movs	r5, r0
    4fc4:	4680      	mov	r8, r0
    4fc6:	e6c7      	b.n	4d58 <_dtoa_r+0x868>
    4fc8:	2301      	movs	r3, #1
    4fca:	469b      	mov	fp, r3
    4fcc:	e6e2      	b.n	4d94 <_dtoa_r+0x8a4>
    4fce:	2300      	movs	r3, #0
    4fd0:	930b      	str	r3, [sp, #44]	; 0x2c
    4fd2:	9b22      	ldr	r3, [sp, #136]	; 0x88
    4fd4:	2b02      	cmp	r3, #2
    4fd6:	d0af      	beq.n	4f38 <_dtoa_r+0xa48>
    4fd8:	2400      	movs	r4, #0
    4fda:	4653      	mov	r3, sl
    4fdc:	0021      	movs	r1, r4
    4fde:	645c      	str	r4, [r3, #68]	; 0x44
    4fe0:	4650      	mov	r0, sl
    4fe2:	f000 fdbb 	bl	5b5c <_Balloc>
    4fe6:	4653      	mov	r3, sl
    4fe8:	6418      	str	r0, [r3, #64]	; 0x40
    4fea:	2301      	movs	r3, #1
    4fec:	425b      	negs	r3, r3
    4fee:	9307      	str	r3, [sp, #28]
    4ff0:	930e      	str	r3, [sp, #56]	; 0x38
    4ff2:	3302      	adds	r3, #2
    4ff4:	900a      	str	r0, [sp, #40]	; 0x28
    4ff6:	9423      	str	r4, [sp, #140]	; 0x8c
    4ff8:	930b      	str	r3, [sp, #44]	; 0x2c
    4ffa:	e4ec      	b.n	49d6 <_dtoa_r+0x4e6>
    4ffc:	9b22      	ldr	r3, [sp, #136]	; 0x88
    4ffe:	2b02      	cmp	r3, #2
    5000:	dc00      	bgt.n	5004 <_dtoa_r+0xb14>
    5002:	e685      	b.n	4d10 <_dtoa_r+0x820>
    5004:	9b07      	ldr	r3, [sp, #28]
    5006:	2b00      	cmp	r3, #0
    5008:	d1b5      	bne.n	4f76 <_dtoa_r+0xa86>
    500a:	4649      	mov	r1, r9
    500c:	2205      	movs	r2, #5
    500e:	4650      	mov	r0, sl
    5010:	f000 fdd6 	bl	5bc0 <__multadd>
    5014:	4681      	mov	r9, r0
    5016:	0001      	movs	r1, r0
    5018:	4658      	mov	r0, fp
    501a:	f000 ffd3 	bl	5fc4 <__mcmp>
    501e:	2800      	cmp	r0, #0
    5020:	dda9      	ble.n	4f76 <_dtoa_r+0xa86>
    5022:	2331      	movs	r3, #49	; 0x31
    5024:	9a0a      	ldr	r2, [sp, #40]	; 0x28
    5026:	7013      	strb	r3, [r2, #0]
    5028:	9b03      	ldr	r3, [sp, #12]
    502a:	1c54      	adds	r4, r2, #1
    502c:	3301      	adds	r3, #1
    502e:	9303      	str	r3, [sp, #12]
    5030:	e7a5      	b.n	4f7e <_dtoa_r+0xa8e>
    5032:	9b03      	ldr	r3, [sp, #12]
    5034:	9a0a      	ldr	r2, [sp, #40]	; 0x28
    5036:	3301      	adds	r3, #1
    5038:	9303      	str	r3, [sp, #12]
    503a:	2331      	movs	r3, #49	; 0x31
    503c:	7013      	strb	r3, [r2, #0]
    503e:	e74e      	b.n	4ede <_dtoa_r+0x9ee>
    5040:	2300      	movs	r3, #0
    5042:	930b      	str	r3, [sp, #44]	; 0x2c
    5044:	f7ff fb3d 	bl	46c2 <_dtoa_r+0x1d2>
    5048:	9b06      	ldr	r3, [sp, #24]
    504a:	465c      	mov	r4, fp
    504c:	469b      	mov	fp, r3
    504e:	9b07      	ldr	r3, [sp, #28]
    5050:	469a      	mov	sl, r3
    5052:	e47c      	b.n	494e <_dtoa_r+0x45e>
    5054:	4640      	mov	r0, r8
    5056:	f003 fbef 	bl	8838 <__aeabi_i2d>
    505a:	0032      	movs	r2, r6
    505c:	003b      	movs	r3, r7
    505e:	f002 fe01 	bl	7c64 <__aeabi_dmul>
    5062:	2200      	movs	r2, #0
    5064:	4b6b      	ldr	r3, [pc, #428]	; (5214 <_dtoa_r+0xd24>)
    5066:	f001 feb9 	bl	6ddc <__aeabi_dadd>
    506a:	4a6b      	ldr	r2, [pc, #428]	; (5218 <_dtoa_r+0xd28>)
    506c:	000b      	movs	r3, r1
    506e:	4694      	mov	ip, r2
    5070:	4463      	add	r3, ip
    5072:	9008      	str	r0, [sp, #32]
    5074:	9109      	str	r1, [sp, #36]	; 0x24
    5076:	9309      	str	r3, [sp, #36]	; 0x24
    5078:	2200      	movs	r2, #0
    507a:	4b64      	ldr	r3, [pc, #400]	; (520c <_dtoa_r+0xd1c>)
    507c:	0030      	movs	r0, r6
    507e:	0039      	movs	r1, r7
    5080:	f003 f870 	bl	8164 <__aeabi_dsub>
    5084:	9e08      	ldr	r6, [sp, #32]
    5086:	9f09      	ldr	r7, [sp, #36]	; 0x24
    5088:	0032      	movs	r2, r6
    508a:	003b      	movs	r3, r7
    508c:	0004      	movs	r4, r0
    508e:	000d      	movs	r5, r1
    5090:	f001 fdb0 	bl	6bf4 <__aeabi_dcmpgt>
    5094:	2800      	cmp	r0, #0
    5096:	d000      	beq.n	509a <_dtoa_r+0xbaa>
    5098:	e0b2      	b.n	5200 <_dtoa_r+0xd10>
    509a:	2080      	movs	r0, #128	; 0x80
    509c:	0600      	lsls	r0, r0, #24
    509e:	4684      	mov	ip, r0
    50a0:	0039      	movs	r1, r7
    50a2:	4461      	add	r1, ip
    50a4:	000b      	movs	r3, r1
    50a6:	0032      	movs	r2, r6
    50a8:	0020      	movs	r0, r4
    50aa:	0029      	movs	r1, r5
    50ac:	f001 fd8e 	bl	6bcc <__aeabi_dcmplt>
    50b0:	2800      	cmp	r0, #0
    50b2:	d057      	beq.n	5164 <_dtoa_r+0xc74>
    50b4:	2300      	movs	r3, #0
    50b6:	4699      	mov	r9, r3
    50b8:	4698      	mov	r8, r3
    50ba:	e75c      	b.n	4f76 <_dtoa_r+0xa86>
    50bc:	980a      	ldr	r0, [sp, #40]	; 0x28
    50be:	f7ff fa4c 	bl	455a <_dtoa_r+0x6a>
    50c2:	1ae2      	subs	r2, r4, r3
    50c4:	9b0d      	ldr	r3, [sp, #52]	; 0x34
    50c6:	46a1      	mov	r9, r4
    50c8:	469c      	mov	ip, r3
    50ca:	4494      	add	ip, r2
    50cc:	4663      	mov	r3, ip
    50ce:	2400      	movs	r4, #0
    50d0:	930d      	str	r3, [sp, #52]	; 0x34
    50d2:	e53e      	b.n	4b52 <_dtoa_r+0x662>
    50d4:	9a10      	ldr	r2, [sp, #64]	; 0x40
    50d6:	9b11      	ldr	r3, [sp, #68]	; 0x44
    50d8:	9208      	str	r2, [sp, #32]
    50da:	9309      	str	r3, [sp, #36]	; 0x24
    50dc:	2302      	movs	r3, #2
    50de:	4698      	mov	r8, r3
    50e0:	f7ff fb3a 	bl	4758 <_dtoa_r+0x268>
    50e4:	2300      	movs	r3, #0
    50e6:	4652      	mov	r2, sl
    50e8:	2100      	movs	r1, #0
    50ea:	6453      	str	r3, [r2, #68]	; 0x44
    50ec:	4650      	mov	r0, sl
    50ee:	f000 fd35 	bl	5b5c <_Balloc>
    50f2:	4653      	mov	r3, sl
    50f4:	6418      	str	r0, [r3, #64]	; 0x40
    50f6:	2301      	movs	r3, #1
    50f8:	900a      	str	r0, [sp, #40]	; 0x28
    50fa:	9307      	str	r3, [sp, #28]
    50fc:	9323      	str	r3, [sp, #140]	; 0x8c
    50fe:	930e      	str	r3, [sp, #56]	; 0x38
    5100:	f7ff fb07 	bl	4712 <_dtoa_r+0x222>
    5104:	4643      	mov	r3, r8
    5106:	930c      	str	r3, [sp, #48]	; 0x30
    5108:	465b      	mov	r3, fp
    510a:	9a06      	ldr	r2, [sp, #24]
    510c:	46a8      	mov	r8, r5
    510e:	46b3      	mov	fp, r6
    5110:	4655      	mov	r5, sl
    5112:	9e04      	ldr	r6, [sp, #16]
    5114:	4691      	mov	r9, r2
    5116:	46ba      	mov	sl, r7
    5118:	2b00      	cmp	r3, #0
    511a:	dd10      	ble.n	513e <_dtoa_r+0xc4e>
    511c:	4659      	mov	r1, fp
    511e:	2201      	movs	r2, #1
    5120:	0038      	movs	r0, r7
    5122:	f000 feef 	bl	5f04 <__lshift>
    5126:	4649      	mov	r1, r9
    5128:	4683      	mov	fp, r0
    512a:	f000 ff4b 	bl	5fc4 <__mcmp>
    512e:	2800      	cmp	r0, #0
    5130:	dc00      	bgt.n	5134 <_dtoa_r+0xc44>
    5132:	e157      	b.n	53e4 <_dtoa_r+0xef4>
    5134:	2e39      	cmp	r6, #57	; 0x39
    5136:	d100      	bne.n	513a <_dtoa_r+0xc4a>
    5138:	e122      	b.n	5380 <_dtoa_r+0xe90>
    513a:	9e0b      	ldr	r6, [sp, #44]	; 0x2c
    513c:	3631      	adds	r6, #49	; 0x31
    513e:	9b0c      	ldr	r3, [sp, #48]	; 0x30
    5140:	4647      	mov	r7, r8
    5142:	1c6c      	adds	r4, r5, #1
    5144:	702e      	strb	r6, [r5, #0]
    5146:	4698      	mov	r8, r3
    5148:	e6c9      	b.n	4ede <_dtoa_r+0x9ee>
    514a:	2800      	cmp	r0, #0
    514c:	d103      	bne.n	5156 <_dtoa_r+0xc66>
    514e:	07f3      	lsls	r3, r6, #31
    5150:	d501      	bpl.n	5156 <_dtoa_r+0xc66>
    5152:	e6b5      	b.n	4ec0 <_dtoa_r+0x9d0>
    5154:	001c      	movs	r4, r3
    5156:	1e63      	subs	r3, r4, #1
    5158:	781a      	ldrb	r2, [r3, #0]
    515a:	2a30      	cmp	r2, #48	; 0x30
    515c:	d0fa      	beq.n	5154 <_dtoa_r+0xc64>
    515e:	e6be      	b.n	4ede <_dtoa_r+0x9ee>
    5160:	9b12      	ldr	r3, [sp, #72]	; 0x48
    5162:	4699      	mov	r9, r3
    5164:	9e10      	ldr	r6, [sp, #64]	; 0x40
    5166:	9f11      	ldr	r7, [sp, #68]	; 0x44
    5168:	e435      	b.n	49d6 <_dtoa_r+0x4e6>
    516a:	2501      	movs	r5, #1
    516c:	f7ff fab4 	bl	46d8 <_dtoa_r+0x1e8>
    5170:	9b03      	ldr	r3, [sp, #12]
    5172:	2b00      	cmp	r3, #0
    5174:	d100      	bne.n	5178 <_dtoa_r+0xc88>
    5176:	e0d4      	b.n	5322 <_dtoa_r+0xe32>
    5178:	9810      	ldr	r0, [sp, #64]	; 0x40
    517a:	9911      	ldr	r1, [sp, #68]	; 0x44
    517c:	425c      	negs	r4, r3
    517e:	230f      	movs	r3, #15
    5180:	4a26      	ldr	r2, [pc, #152]	; (521c <_dtoa_r+0xd2c>)
    5182:	4023      	ands	r3, r4
    5184:	00db      	lsls	r3, r3, #3
    5186:	18d3      	adds	r3, r2, r3
    5188:	681a      	ldr	r2, [r3, #0]
    518a:	685b      	ldr	r3, [r3, #4]
    518c:	f002 fd6a 	bl	7c64 <__aeabi_dmul>
    5190:	1124      	asrs	r4, r4, #4
    5192:	0006      	movs	r6, r0
    5194:	000f      	movs	r7, r1
    5196:	2c00      	cmp	r4, #0
    5198:	d100      	bne.n	519c <_dtoa_r+0xcac>
    519a:	e149      	b.n	5430 <_dtoa_r+0xf40>
    519c:	2302      	movs	r3, #2
    519e:	4698      	mov	r8, r3
    51a0:	4d1f      	ldr	r5, [pc, #124]	; (5220 <_dtoa_r+0xd30>)
    51a2:	2301      	movs	r3, #1
    51a4:	4223      	tst	r3, r4
    51a6:	d009      	beq.n	51bc <_dtoa_r+0xccc>
    51a8:	469c      	mov	ip, r3
    51aa:	682a      	ldr	r2, [r5, #0]
    51ac:	686b      	ldr	r3, [r5, #4]
    51ae:	0030      	movs	r0, r6
    51b0:	0039      	movs	r1, r7
    51b2:	44e0      	add	r8, ip
    51b4:	f002 fd56 	bl	7c64 <__aeabi_dmul>
    51b8:	0006      	movs	r6, r0
    51ba:	000f      	movs	r7, r1
    51bc:	1064      	asrs	r4, r4, #1
    51be:	3508      	adds	r5, #8
    51c0:	2c00      	cmp	r4, #0
    51c2:	d1ee      	bne.n	51a2 <_dtoa_r+0xcb2>
    51c4:	f7ff fae4 	bl	4790 <_dtoa_r+0x2a0>
    51c8:	9b03      	ldr	r3, [sp, #12]
    51ca:	2730      	movs	r7, #48	; 0x30
    51cc:	3301      	adds	r3, #1
    51ce:	9303      	str	r3, [sp, #12]
    51d0:	2330      	movs	r3, #48	; 0x30
    51d2:	702b      	strb	r3, [r5, #0]
    51d4:	e4ac      	b.n	4b30 <_dtoa_r+0x640>
    51d6:	6859      	ldr	r1, [r3, #4]
    51d8:	4650      	mov	r0, sl
    51da:	f000 fcbf 	bl	5b5c <_Balloc>
    51de:	4643      	mov	r3, r8
    51e0:	4641      	mov	r1, r8
    51e2:	0004      	movs	r4, r0
    51e4:	691b      	ldr	r3, [r3, #16]
    51e6:	310c      	adds	r1, #12
    51e8:	1c9a      	adds	r2, r3, #2
    51ea:	0092      	lsls	r2, r2, #2
    51ec:	300c      	adds	r0, #12
    51ee:	f000 fc63 	bl	5ab8 <memcpy>
    51f2:	2201      	movs	r2, #1
    51f4:	0021      	movs	r1, r4
    51f6:	4650      	mov	r0, sl
    51f8:	f000 fe84 	bl	5f04 <__lshift>
    51fc:	900c      	str	r0, [sp, #48]	; 0x30
    51fe:	e599      	b.n	4d34 <_dtoa_r+0x844>
    5200:	2300      	movs	r3, #0
    5202:	4699      	mov	r9, r3
    5204:	4698      	mov	r8, r3
    5206:	e70c      	b.n	5022 <_dtoa_r+0xb32>
    5208:	7ff00000 	.word	0x7ff00000
    520c:	40140000 	.word	0x40140000
    5210:	00000433 	.word	0x00000433
    5214:	401c0000 	.word	0x401c0000
    5218:	fcc00000 	.word	0xfcc00000
    521c:	00009120 	.word	0x00009120
    5220:	000090f8 	.word	0x000090f8
    5224:	9b12      	ldr	r3, [sp, #72]	; 0x48
    5226:	498f      	ldr	r1, [pc, #572]	; (5464 <_dtoa_r+0xf74>)
    5228:	3b01      	subs	r3, #1
    522a:	00db      	lsls	r3, r3, #3
    522c:	18c9      	adds	r1, r1, r3
    522e:	6808      	ldr	r0, [r1, #0]
    5230:	6849      	ldr	r1, [r1, #4]
    5232:	9a08      	ldr	r2, [sp, #32]
    5234:	9b09      	ldr	r3, [sp, #36]	; 0x24
    5236:	f002 fd15 	bl	7c64 <__aeabi_dmul>
    523a:	9014      	str	r0, [sp, #80]	; 0x50
    523c:	9115      	str	r1, [sp, #84]	; 0x54
    523e:	0039      	movs	r1, r7
    5240:	0030      	movs	r0, r6
    5242:	f003 fac5 	bl	87d0 <__aeabi_d2iz>
    5246:	0005      	movs	r5, r0
    5248:	f003 faf6 	bl	8838 <__aeabi_i2d>
    524c:	0002      	movs	r2, r0
    524e:	000b      	movs	r3, r1
    5250:	0030      	movs	r0, r6
    5252:	0039      	movs	r1, r7
    5254:	f002 ff86 	bl	8164 <__aeabi_dsub>
    5258:	9b12      	ldr	r3, [sp, #72]	; 0x48
    525a:	9008      	str	r0, [sp, #32]
    525c:	9109      	str	r1, [sp, #36]	; 0x24
    525e:	990a      	ldr	r1, [sp, #40]	; 0x28
    5260:	001a      	movs	r2, r3
    5262:	468c      	mov	ip, r1
    5264:	3530      	adds	r5, #48	; 0x30
    5266:	4462      	add	r2, ip
    5268:	1c4c      	adds	r4, r1, #1
    526a:	700d      	strb	r5, [r1, #0]
    526c:	4690      	mov	r8, r2
    526e:	2b01      	cmp	r3, #1
    5270:	d01b      	beq.n	52aa <_dtoa_r+0xdba>
    5272:	9808      	ldr	r0, [sp, #32]
    5274:	9909      	ldr	r1, [sp, #36]	; 0x24
    5276:	0025      	movs	r5, r4
    5278:	2200      	movs	r2, #0
    527a:	4b7b      	ldr	r3, [pc, #492]	; (5468 <_dtoa_r+0xf78>)
    527c:	f002 fcf2 	bl	7c64 <__aeabi_dmul>
    5280:	000f      	movs	r7, r1
    5282:	0006      	movs	r6, r0
    5284:	f003 faa4 	bl	87d0 <__aeabi_d2iz>
    5288:	0004      	movs	r4, r0
    528a:	f003 fad5 	bl	8838 <__aeabi_i2d>
    528e:	3430      	adds	r4, #48	; 0x30
    5290:	0002      	movs	r2, r0
    5292:	000b      	movs	r3, r1
    5294:	0030      	movs	r0, r6
    5296:	0039      	movs	r1, r7
    5298:	f002 ff64 	bl	8164 <__aeabi_dsub>
    529c:	702c      	strb	r4, [r5, #0]
    529e:	3501      	adds	r5, #1
    52a0:	45a8      	cmp	r8, r5
    52a2:	d1e9      	bne.n	5278 <_dtoa_r+0xd88>
    52a4:	4644      	mov	r4, r8
    52a6:	9008      	str	r0, [sp, #32]
    52a8:	9109      	str	r1, [sp, #36]	; 0x24
    52aa:	9814      	ldr	r0, [sp, #80]	; 0x50
    52ac:	9915      	ldr	r1, [sp, #84]	; 0x54
    52ae:	2200      	movs	r2, #0
    52b0:	4b6e      	ldr	r3, [pc, #440]	; (546c <_dtoa_r+0xf7c>)
    52b2:	f001 fd93 	bl	6ddc <__aeabi_dadd>
    52b6:	9a08      	ldr	r2, [sp, #32]
    52b8:	9b09      	ldr	r3, [sp, #36]	; 0x24
    52ba:	f001 fc87 	bl	6bcc <__aeabi_dcmplt>
    52be:	2800      	cmp	r0, #0
    52c0:	d067      	beq.n	5392 <_dtoa_r+0xea2>
    52c2:	9b13      	ldr	r3, [sp, #76]	; 0x4c
    52c4:	1e65      	subs	r5, r4, #1
    52c6:	9303      	str	r3, [sp, #12]
    52c8:	782f      	ldrb	r7, [r5, #0]
    52ca:	9b0a      	ldr	r3, [sp, #40]	; 0x28
    52cc:	e42e      	b.n	4b2c <_dtoa_r+0x63c>
    52ce:	4643      	mov	r3, r8
    52d0:	46b3      	mov	fp, r6
    52d2:	930c      	str	r3, [sp, #48]	; 0x30
    52d4:	9e04      	ldr	r6, [sp, #16]
    52d6:	9b06      	ldr	r3, [sp, #24]
    52d8:	46a8      	mov	r8, r5
    52da:	4699      	mov	r9, r3
    52dc:	4655      	mov	r5, sl
    52de:	46ba      	mov	sl, r7
    52e0:	2e39      	cmp	r6, #57	; 0x39
    52e2:	d04d      	beq.n	5380 <_dtoa_r+0xe90>
    52e4:	9b0c      	ldr	r3, [sp, #48]	; 0x30
    52e6:	3601      	adds	r6, #1
    52e8:	4647      	mov	r7, r8
    52ea:	1c6c      	adds	r4, r5, #1
    52ec:	702e      	strb	r6, [r5, #0]
    52ee:	4698      	mov	r8, r3
    52f0:	e5f5      	b.n	4ede <_dtoa_r+0x9ee>
    52f2:	4642      	mov	r2, r8
    52f4:	9b06      	ldr	r3, [sp, #24]
    52f6:	46b3      	mov	fp, r6
    52f8:	46ba      	mov	sl, r7
    52fa:	9e04      	ldr	r6, [sp, #16]
    52fc:	4699      	mov	r9, r3
    52fe:	002f      	movs	r7, r5
    5300:	4690      	mov	r8, r2
    5302:	e5d1      	b.n	4ea8 <_dtoa_r+0x9b8>
    5304:	9b06      	ldr	r3, [sp, #24]
    5306:	9a07      	ldr	r2, [sp, #28]
    5308:	1a9b      	subs	r3, r3, r2
    530a:	9308      	str	r3, [sp, #32]
    530c:	2300      	movs	r3, #0
    530e:	e427      	b.n	4b60 <_dtoa_r+0x670>
    5310:	2401      	movs	r4, #1
    5312:	e5c5      	b.n	4ea0 <_dtoa_r+0x9b0>
    5314:	2336      	movs	r3, #54	; 0x36
    5316:	9a16      	ldr	r2, [sp, #88]	; 0x58
    5318:	464c      	mov	r4, r9
    531a:	1a9b      	subs	r3, r3, r2
    531c:	9a06      	ldr	r2, [sp, #24]
    531e:	9208      	str	r2, [sp, #32]
    5320:	e41e      	b.n	4b60 <_dtoa_r+0x670>
    5322:	2302      	movs	r3, #2
    5324:	9e10      	ldr	r6, [sp, #64]	; 0x40
    5326:	9f11      	ldr	r7, [sp, #68]	; 0x44
    5328:	4698      	mov	r8, r3
    532a:	f7ff fa31 	bl	4790 <_dtoa_r+0x2a0>
    532e:	9b07      	ldr	r3, [sp, #28]
    5330:	2b00      	cmp	r3, #0
    5332:	d100      	bne.n	5336 <_dtoa_r+0xe46>
    5334:	e68e      	b.n	5054 <_dtoa_r+0xb64>
    5336:	9c0e      	ldr	r4, [sp, #56]	; 0x38
    5338:	2c00      	cmp	r4, #0
    533a:	dc00      	bgt.n	533e <_dtoa_r+0xe4e>
    533c:	e712      	b.n	5164 <_dtoa_r+0xc74>
    533e:	9b03      	ldr	r3, [sp, #12]
    5340:	2200      	movs	r2, #0
    5342:	3b01      	subs	r3, #1
    5344:	9313      	str	r3, [sp, #76]	; 0x4c
    5346:	0030      	movs	r0, r6
    5348:	4b47      	ldr	r3, [pc, #284]	; (5468 <_dtoa_r+0xf78>)
    534a:	0039      	movs	r1, r7
    534c:	f002 fc8a 	bl	7c64 <__aeabi_dmul>
    5350:	0006      	movs	r6, r0
    5352:	4640      	mov	r0, r8
    5354:	000f      	movs	r7, r1
    5356:	3001      	adds	r0, #1
    5358:	f003 fa6e 	bl	8838 <__aeabi_i2d>
    535c:	0032      	movs	r2, r6
    535e:	003b      	movs	r3, r7
    5360:	f002 fc80 	bl	7c64 <__aeabi_dmul>
    5364:	2200      	movs	r2, #0
    5366:	4b42      	ldr	r3, [pc, #264]	; (5470 <_dtoa_r+0xf80>)
    5368:	f001 fd38 	bl	6ddc <__aeabi_dadd>
    536c:	4a41      	ldr	r2, [pc, #260]	; (5474 <_dtoa_r+0xf84>)
    536e:	000b      	movs	r3, r1
    5370:	4694      	mov	ip, r2
    5372:	4463      	add	r3, ip
    5374:	9008      	str	r0, [sp, #32]
    5376:	9109      	str	r1, [sp, #36]	; 0x24
    5378:	9412      	str	r4, [sp, #72]	; 0x48
    537a:	9309      	str	r3, [sp, #36]	; 0x24
    537c:	f7ff fa30 	bl	47e0 <_dtoa_r+0x2f0>
    5380:	2339      	movs	r3, #57	; 0x39
    5382:	702b      	strb	r3, [r5, #0]
    5384:	9b0c      	ldr	r3, [sp, #48]	; 0x30
    5386:	4647      	mov	r7, r8
    5388:	1c6c      	adds	r4, r5, #1
    538a:	4698      	mov	r8, r3
    538c:	9a0a      	ldr	r2, [sp, #40]	; 0x28
    538e:	2339      	movs	r3, #57	; 0x39
    5390:	e5a1      	b.n	4ed6 <_dtoa_r+0x9e6>
    5392:	9a14      	ldr	r2, [sp, #80]	; 0x50
    5394:	9b15      	ldr	r3, [sp, #84]	; 0x54
    5396:	2000      	movs	r0, #0
    5398:	4934      	ldr	r1, [pc, #208]	; (546c <_dtoa_r+0xf7c>)
    539a:	f002 fee3 	bl	8164 <__aeabi_dsub>
    539e:	9a08      	ldr	r2, [sp, #32]
    53a0:	9b09      	ldr	r3, [sp, #36]	; 0x24
    53a2:	f001 fc27 	bl	6bf4 <__aeabi_dcmpgt>
    53a6:	2800      	cmp	r0, #0
    53a8:	d101      	bne.n	53ae <_dtoa_r+0xebe>
    53aa:	e6db      	b.n	5164 <_dtoa_r+0xc74>
    53ac:	001c      	movs	r4, r3
    53ae:	1e63      	subs	r3, r4, #1
    53b0:	781a      	ldrb	r2, [r3, #0]
    53b2:	2a30      	cmp	r2, #48	; 0x30
    53b4:	d0fa      	beq.n	53ac <_dtoa_r+0xebc>
    53b6:	f7ff fac8 	bl	494a <_dtoa_r+0x45a>
    53ba:	4643      	mov	r3, r8
    53bc:	46b3      	mov	fp, r6
    53be:	930c      	str	r3, [sp, #48]	; 0x30
    53c0:	9e04      	ldr	r6, [sp, #16]
    53c2:	9b06      	ldr	r3, [sp, #24]
    53c4:	46a8      	mov	r8, r5
    53c6:	4699      	mov	r9, r3
    53c8:	4655      	mov	r5, sl
    53ca:	46ba      	mov	sl, r7
    53cc:	2e39      	cmp	r6, #57	; 0x39
    53ce:	d0d7      	beq.n	5380 <_dtoa_r+0xe90>
    53d0:	2c00      	cmp	r4, #0
    53d2:	dd00      	ble.n	53d6 <_dtoa_r+0xee6>
    53d4:	e6b1      	b.n	513a <_dtoa_r+0xc4a>
    53d6:	e6b2      	b.n	513e <_dtoa_r+0xc4e>
    53d8:	9a13      	ldr	r2, [sp, #76]	; 0x4c
    53da:	464d      	mov	r5, r9
    53dc:	9203      	str	r2, [sp, #12]
    53de:	9b0a      	ldr	r3, [sp, #40]	; 0x28
    53e0:	f7ff fba4 	bl	4b2c <_dtoa_r+0x63c>
    53e4:	2800      	cmp	r0, #0
    53e6:	d000      	beq.n	53ea <_dtoa_r+0xefa>
    53e8:	e6a9      	b.n	513e <_dtoa_r+0xc4e>
    53ea:	07f3      	lsls	r3, r6, #31
    53ec:	d400      	bmi.n	53f0 <_dtoa_r+0xf00>
    53ee:	e6a6      	b.n	513e <_dtoa_r+0xc4e>
    53f0:	e6a0      	b.n	5134 <_dtoa_r+0xc44>
    53f2:	2300      	movs	r3, #0
    53f4:	4641      	mov	r1, r8
    53f6:	220a      	movs	r2, #10
    53f8:	4650      	mov	r0, sl
    53fa:	f000 fbe1 	bl	5bc0 <__multadd>
    53fe:	9b0e      	ldr	r3, [sp, #56]	; 0x38
    5400:	4680      	mov	r8, r0
    5402:	2b00      	cmp	r3, #0
    5404:	dd01      	ble.n	540a <_dtoa_r+0xf1a>
    5406:	9307      	str	r3, [sp, #28]
    5408:	e486      	b.n	4d18 <_dtoa_r+0x828>
    540a:	9b22      	ldr	r3, [sp, #136]	; 0x88
    540c:	2b02      	cmp	r3, #2
    540e:	dc1f      	bgt.n	5450 <_dtoa_r+0xf60>
    5410:	9b0e      	ldr	r3, [sp, #56]	; 0x38
    5412:	9307      	str	r3, [sp, #28]
    5414:	e480      	b.n	4d18 <_dtoa_r+0x828>
    5416:	9b22      	ldr	r3, [sp, #136]	; 0x88
    5418:	2b02      	cmp	r3, #2
    541a:	dc19      	bgt.n	5450 <_dtoa_r+0xf60>
    541c:	4649      	mov	r1, r9
    541e:	f7fe ffbd 	bl	439c <quorem>
    5422:	9b0a      	ldr	r3, [sp, #40]	; 0x28
    5424:	3030      	adds	r0, #48	; 0x30
    5426:	7018      	strb	r0, [r3, #0]
    5428:	9b0e      	ldr	r3, [sp, #56]	; 0x38
    542a:	0006      	movs	r6, r0
    542c:	9307      	str	r3, [sp, #28]
    542e:	e533      	b.n	4e98 <_dtoa_r+0x9a8>
    5430:	2302      	movs	r3, #2
    5432:	4698      	mov	r8, r3
    5434:	f7ff f9ac 	bl	4790 <_dtoa_r+0x2a0>
    5438:	9b13      	ldr	r3, [sp, #76]	; 0x4c
    543a:	9c14      	ldr	r4, [sp, #80]	; 0x50
    543c:	9303      	str	r3, [sp, #12]
    543e:	9b0a      	ldr	r3, [sp, #40]	; 0x28
    5440:	001d      	movs	r5, r3
    5442:	f7ff fb73 	bl	4b2c <_dtoa_r+0x63c>
    5446:	9b13      	ldr	r3, [sp, #76]	; 0x4c
    5448:	9c14      	ldr	r4, [sp, #80]	; 0x50
    544a:	9303      	str	r3, [sp, #12]
    544c:	f7ff fa7f 	bl	494e <_dtoa_r+0x45e>
    5450:	9b0e      	ldr	r3, [sp, #56]	; 0x38
    5452:	9307      	str	r3, [sp, #28]
    5454:	e5d6      	b.n	5004 <_dtoa_r+0xb14>
    5456:	2b04      	cmp	r3, #4
    5458:	d100      	bne.n	545c <_dtoa_r+0xf6c>
    545a:	e43f      	b.n	4cdc <_dtoa_r+0x7ec>
    545c:	233c      	movs	r3, #60	; 0x3c
    545e:	1a18      	subs	r0, r3, r0
    5460:	e4d7      	b.n	4e12 <_dtoa_r+0x922>
    5462:	46c0      	nop			; (mov r8, r8)
    5464:	00009120 	.word	0x00009120
    5468:	40240000 	.word	0x40240000
    546c:	3fe00000 	.word	0x3fe00000
    5470:	401c0000 	.word	0x401c0000
    5474:	fcc00000 	.word	0xfcc00000

00005478 <__libc_fini_array>:
    5478:	b570      	push	{r4, r5, r6, lr}
    547a:	4b09      	ldr	r3, [pc, #36]	; (54a0 <__libc_fini_array+0x28>)
    547c:	4c09      	ldr	r4, [pc, #36]	; (54a4 <__libc_fini_array+0x2c>)
    547e:	1ae4      	subs	r4, r4, r3
    5480:	10a4      	asrs	r4, r4, #2
    5482:	d009      	beq.n	5498 <__libc_fini_array+0x20>
    5484:	4a08      	ldr	r2, [pc, #32]	; (54a8 <__libc_fini_array+0x30>)
    5486:	18a5      	adds	r5, r4, r2
    5488:	00ad      	lsls	r5, r5, #2
    548a:	18ed      	adds	r5, r5, r3
    548c:	682b      	ldr	r3, [r5, #0]
    548e:	3c01      	subs	r4, #1
    5490:	4798      	blx	r3
    5492:	3d04      	subs	r5, #4
    5494:	2c00      	cmp	r4, #0
    5496:	d1f9      	bne.n	548c <__libc_fini_array+0x14>
    5498:	f003 ff80 	bl	939c <_fini>
    549c:	bd70      	pop	{r4, r5, r6, pc}
    549e:	46c0      	nop			; (mov r8, r8)
    54a0:	000093a8 	.word	0x000093a8
    54a4:	000093ac 	.word	0x000093ac
    54a8:	3fffffff 	.word	0x3fffffff

000054ac <_localeconv_r>:
    54ac:	4b04      	ldr	r3, [pc, #16]	; (54c0 <_localeconv_r+0x14>)
    54ae:	681b      	ldr	r3, [r3, #0]
    54b0:	6b58      	ldr	r0, [r3, #52]	; 0x34
    54b2:	2800      	cmp	r0, #0
    54b4:	d001      	beq.n	54ba <_localeconv_r+0xe>
    54b6:	30f0      	adds	r0, #240	; 0xf0
    54b8:	4770      	bx	lr
    54ba:	4802      	ldr	r0, [pc, #8]	; (54c4 <_localeconv_r+0x18>)
    54bc:	e7fb      	b.n	54b6 <_localeconv_r+0xa>
    54be:	46c0      	nop			; (mov r8, r8)
    54c0:	20000314 	.word	0x20000314
    54c4:	20000b54 	.word	0x20000b54

000054c8 <__retarget_lock_acquire_recursive>:
    54c8:	4770      	bx	lr
    54ca:	46c0      	nop			; (mov r8, r8)

000054cc <__retarget_lock_release_recursive>:
    54cc:	4770      	bx	lr
    54ce:	46c0      	nop			; (mov r8, r8)

000054d0 <_malloc_r>:
    54d0:	b5f0      	push	{r4, r5, r6, r7, lr}
    54d2:	4657      	mov	r7, sl
    54d4:	4645      	mov	r5, r8
    54d6:	46de      	mov	lr, fp
    54d8:	464e      	mov	r6, r9
    54da:	b5e0      	push	{r5, r6, r7, lr}
    54dc:	000d      	movs	r5, r1
    54de:	350b      	adds	r5, #11
    54e0:	b083      	sub	sp, #12
    54e2:	0007      	movs	r7, r0
    54e4:	2d16      	cmp	r5, #22
    54e6:	d800      	bhi.n	54ea <_malloc_r+0x1a>
    54e8:	e09f      	b.n	562a <_malloc_r+0x15a>
    54ea:	2307      	movs	r3, #7
    54ec:	439d      	bics	r5, r3
    54ee:	d500      	bpl.n	54f2 <_malloc_r+0x22>
    54f0:	e0c4      	b.n	567c <_malloc_r+0x1ac>
    54f2:	42a9      	cmp	r1, r5
    54f4:	d900      	bls.n	54f8 <_malloc_r+0x28>
    54f6:	e0c1      	b.n	567c <_malloc_r+0x1ac>
    54f8:	f000 fb20 	bl	5b3c <__malloc_lock>
    54fc:	23f8      	movs	r3, #248	; 0xf8
    54fe:	33ff      	adds	r3, #255	; 0xff
    5500:	429d      	cmp	r5, r3
    5502:	d800      	bhi.n	5506 <_malloc_r+0x36>
    5504:	e28f      	b.n	5a26 <_malloc_r+0x556>
    5506:	0a68      	lsrs	r0, r5, #9
    5508:	d100      	bne.n	550c <_malloc_r+0x3c>
    550a:	e0bb      	b.n	5684 <_malloc_r+0x1b4>
    550c:	2804      	cmp	r0, #4
    550e:	d900      	bls.n	5512 <_malloc_r+0x42>
    5510:	e162      	b.n	57d8 <_malloc_r+0x308>
    5512:	2338      	movs	r3, #56	; 0x38
    5514:	4698      	mov	r8, r3
    5516:	09a8      	lsrs	r0, r5, #6
    5518:	4480      	add	r8, r0
    551a:	3039      	adds	r0, #57	; 0x39
    551c:	00c1      	lsls	r1, r0, #3
    551e:	4ed2      	ldr	r6, [pc, #840]	; (5868 <_malloc_r+0x398>)
    5520:	1871      	adds	r1, r6, r1
    5522:	3908      	subs	r1, #8
    5524:	68cc      	ldr	r4, [r1, #12]
    5526:	42a1      	cmp	r1, r4
    5528:	d019      	beq.n	555e <_malloc_r+0x8e>
    552a:	2303      	movs	r3, #3
    552c:	6862      	ldr	r2, [r4, #4]
    552e:	439a      	bics	r2, r3
    5530:	0013      	movs	r3, r2
    5532:	1b52      	subs	r2, r2, r5
    5534:	2a0f      	cmp	r2, #15
    5536:	dd00      	ble.n	553a <_malloc_r+0x6a>
    5538:	e0aa      	b.n	5690 <_malloc_r+0x1c0>
    553a:	2a00      	cmp	r2, #0
    553c:	db00      	blt.n	5540 <_malloc_r+0x70>
    553e:	e088      	b.n	5652 <_malloc_r+0x182>
    5540:	2303      	movs	r3, #3
    5542:	469c      	mov	ip, r3
    5544:	e008      	b.n	5558 <_malloc_r+0x88>
    5546:	4662      	mov	r2, ip
    5548:	6863      	ldr	r3, [r4, #4]
    554a:	4393      	bics	r3, r2
    554c:	1b5a      	subs	r2, r3, r5
    554e:	2a0f      	cmp	r2, #15
    5550:	dd00      	ble.n	5554 <_malloc_r+0x84>
    5552:	e09d      	b.n	5690 <_malloc_r+0x1c0>
    5554:	2a00      	cmp	r2, #0
    5556:	da7c      	bge.n	5652 <_malloc_r+0x182>
    5558:	68e4      	ldr	r4, [r4, #12]
    555a:	42a1      	cmp	r1, r4
    555c:	d1f3      	bne.n	5546 <_malloc_r+0x76>
    555e:	0032      	movs	r2, r6
    5560:	6934      	ldr	r4, [r6, #16]
    5562:	3208      	adds	r2, #8
    5564:	4294      	cmp	r4, r2
    5566:	d100      	bne.n	556a <_malloc_r+0x9a>
    5568:	e190      	b.n	588c <_malloc_r+0x3bc>
    556a:	2303      	movs	r3, #3
    556c:	6861      	ldr	r1, [r4, #4]
    556e:	4399      	bics	r1, r3
    5570:	4689      	mov	r9, r1
    5572:	1b49      	subs	r1, r1, r5
    5574:	290f      	cmp	r1, #15
    5576:	dd00      	ble.n	557a <_malloc_r+0xaa>
    5578:	e162      	b.n	5840 <_malloc_r+0x370>
    557a:	6172      	str	r2, [r6, #20]
    557c:	6132      	str	r2, [r6, #16]
    557e:	2900      	cmp	r1, #0
    5580:	db00      	blt.n	5584 <_malloc_r+0xb4>
    5582:	e087      	b.n	5694 <_malloc_r+0x1c4>
    5584:	4ab9      	ldr	r2, [pc, #740]	; (586c <_malloc_r+0x39c>)
    5586:	464b      	mov	r3, r9
    5588:	4591      	cmp	r9, r2
    558a:	d900      	bls.n	558e <_malloc_r+0xbe>
    558c:	e130      	b.n	57f0 <_malloc_r+0x320>
    558e:	08db      	lsrs	r3, r3, #3
    5590:	3aff      	subs	r2, #255	; 0xff
    5592:	1099      	asrs	r1, r3, #2
    5594:	3aff      	subs	r2, #255	; 0xff
    5596:	408a      	lsls	r2, r1
    5598:	00db      	lsls	r3, r3, #3
    559a:	6871      	ldr	r1, [r6, #4]
    559c:	199b      	adds	r3, r3, r6
    559e:	430a      	orrs	r2, r1
    55a0:	6899      	ldr	r1, [r3, #8]
    55a2:	6072      	str	r2, [r6, #4]
    55a4:	60e3      	str	r3, [r4, #12]
    55a6:	60a1      	str	r1, [r4, #8]
    55a8:	609c      	str	r4, [r3, #8]
    55aa:	0013      	movs	r3, r2
    55ac:	60cc      	str	r4, [r1, #12]
    55ae:	2101      	movs	r1, #1
    55b0:	1082      	asrs	r2, r0, #2
    55b2:	4091      	lsls	r1, r2
    55b4:	4299      	cmp	r1, r3
    55b6:	d86f      	bhi.n	5698 <_malloc_r+0x1c8>
    55b8:	420b      	tst	r3, r1
    55ba:	d105      	bne.n	55c8 <_malloc_r+0xf8>
    55bc:	2203      	movs	r2, #3
    55be:	4390      	bics	r0, r2
    55c0:	0049      	lsls	r1, r1, #1
    55c2:	3004      	adds	r0, #4
    55c4:	420b      	tst	r3, r1
    55c6:	d0fb      	beq.n	55c0 <_malloc_r+0xf0>
    55c8:	2303      	movs	r3, #3
    55ca:	4698      	mov	r8, r3
    55cc:	00c3      	lsls	r3, r0, #3
    55ce:	4699      	mov	r9, r3
    55d0:	44b1      	add	r9, r6
    55d2:	46cc      	mov	ip, r9
    55d4:	4682      	mov	sl, r0
    55d6:	4663      	mov	r3, ip
    55d8:	68dc      	ldr	r4, [r3, #12]
    55da:	45a4      	cmp	ip, r4
    55dc:	d107      	bne.n	55ee <_malloc_r+0x11e>
    55de:	e157      	b.n	5890 <_malloc_r+0x3c0>
    55e0:	2a00      	cmp	r2, #0
    55e2:	db00      	blt.n	55e6 <_malloc_r+0x116>
    55e4:	e166      	b.n	58b4 <_malloc_r+0x3e4>
    55e6:	68e4      	ldr	r4, [r4, #12]
    55e8:	45a4      	cmp	ip, r4
    55ea:	d100      	bne.n	55ee <_malloc_r+0x11e>
    55ec:	e150      	b.n	5890 <_malloc_r+0x3c0>
    55ee:	4642      	mov	r2, r8
    55f0:	6863      	ldr	r3, [r4, #4]
    55f2:	4393      	bics	r3, r2
    55f4:	1b5a      	subs	r2, r3, r5
    55f6:	2a0f      	cmp	r2, #15
    55f8:	ddf2      	ble.n	55e0 <_malloc_r+0x110>
    55fa:	2001      	movs	r0, #1
    55fc:	4680      	mov	r8, r0
    55fe:	1961      	adds	r1, r4, r5
    5600:	4305      	orrs	r5, r0
    5602:	6065      	str	r5, [r4, #4]
    5604:	68a0      	ldr	r0, [r4, #8]
    5606:	68e5      	ldr	r5, [r4, #12]
    5608:	3608      	adds	r6, #8
    560a:	60c5      	str	r5, [r0, #12]
    560c:	60a8      	str	r0, [r5, #8]
    560e:	4640      	mov	r0, r8
    5610:	60f1      	str	r1, [r6, #12]
    5612:	60b1      	str	r1, [r6, #8]
    5614:	4310      	orrs	r0, r2
    5616:	6048      	str	r0, [r1, #4]
    5618:	60ce      	str	r6, [r1, #12]
    561a:	608e      	str	r6, [r1, #8]
    561c:	0038      	movs	r0, r7
    561e:	50e2      	str	r2, [r4, r3]
    5620:	f000 fa94 	bl	5b4c <__malloc_unlock>
    5624:	0020      	movs	r0, r4
    5626:	3008      	adds	r0, #8
    5628:	e021      	b.n	566e <_malloc_r+0x19e>
    562a:	2910      	cmp	r1, #16
    562c:	d826      	bhi.n	567c <_malloc_r+0x1ac>
    562e:	0038      	movs	r0, r7
    5630:	f000 fa84 	bl	5b3c <__malloc_lock>
    5634:	2510      	movs	r5, #16
    5636:	2318      	movs	r3, #24
    5638:	2002      	movs	r0, #2
    563a:	4e8b      	ldr	r6, [pc, #556]	; (5868 <_malloc_r+0x398>)
    563c:	18f3      	adds	r3, r6, r3
    563e:	001a      	movs	r2, r3
    5640:	685c      	ldr	r4, [r3, #4]
    5642:	3a08      	subs	r2, #8
    5644:	4294      	cmp	r4, r2
    5646:	d100      	bne.n	564a <_malloc_r+0x17a>
    5648:	e12e      	b.n	58a8 <_malloc_r+0x3d8>
    564a:	2303      	movs	r3, #3
    564c:	6862      	ldr	r2, [r4, #4]
    564e:	439a      	bics	r2, r3
    5650:	0013      	movs	r3, r2
    5652:	68e2      	ldr	r2, [r4, #12]
    5654:	68a1      	ldr	r1, [r4, #8]
    5656:	60ca      	str	r2, [r1, #12]
    5658:	6091      	str	r1, [r2, #8]
    565a:	2201      	movs	r2, #1
    565c:	18e3      	adds	r3, r4, r3
    565e:	6859      	ldr	r1, [r3, #4]
    5660:	0038      	movs	r0, r7
    5662:	430a      	orrs	r2, r1
    5664:	605a      	str	r2, [r3, #4]
    5666:	f000 fa71 	bl	5b4c <__malloc_unlock>
    566a:	0020      	movs	r0, r4
    566c:	3008      	adds	r0, #8
    566e:	b003      	add	sp, #12
    5670:	bc3c      	pop	{r2, r3, r4, r5}
    5672:	4690      	mov	r8, r2
    5674:	4699      	mov	r9, r3
    5676:	46a2      	mov	sl, r4
    5678:	46ab      	mov	fp, r5
    567a:	bdf0      	pop	{r4, r5, r6, r7, pc}
    567c:	230c      	movs	r3, #12
    567e:	2000      	movs	r0, #0
    5680:	603b      	str	r3, [r7, #0]
    5682:	e7f4      	b.n	566e <_malloc_r+0x19e>
    5684:	2180      	movs	r1, #128	; 0x80
    5686:	233f      	movs	r3, #63	; 0x3f
    5688:	2040      	movs	r0, #64	; 0x40
    568a:	0089      	lsls	r1, r1, #2
    568c:	4698      	mov	r8, r3
    568e:	e746      	b.n	551e <_malloc_r+0x4e>
    5690:	4640      	mov	r0, r8
    5692:	e764      	b.n	555e <_malloc_r+0x8e>
    5694:	464b      	mov	r3, r9
    5696:	e7e0      	b.n	565a <_malloc_r+0x18a>
    5698:	2303      	movs	r3, #3
    569a:	68b4      	ldr	r4, [r6, #8]
    569c:	6862      	ldr	r2, [r4, #4]
    569e:	439a      	bics	r2, r3
    56a0:	4690      	mov	r8, r2
    56a2:	42aa      	cmp	r2, r5
    56a4:	d303      	bcc.n	56ae <_malloc_r+0x1de>
    56a6:	1b53      	subs	r3, r2, r5
    56a8:	2b0f      	cmp	r3, #15
    56aa:	dd00      	ble.n	56ae <_malloc_r+0x1de>
    56ac:	e086      	b.n	57bc <_malloc_r+0x2ec>
    56ae:	0023      	movs	r3, r4
    56b0:	4443      	add	r3, r8
    56b2:	4a6f      	ldr	r2, [pc, #444]	; (5870 <_malloc_r+0x3a0>)
    56b4:	9301      	str	r3, [sp, #4]
    56b6:	4b6f      	ldr	r3, [pc, #444]	; (5874 <_malloc_r+0x3a4>)
    56b8:	4693      	mov	fp, r2
    56ba:	681b      	ldr	r3, [r3, #0]
    56bc:	6812      	ldr	r2, [r2, #0]
    56be:	18eb      	adds	r3, r5, r3
    56c0:	3201      	adds	r2, #1
    56c2:	d100      	bne.n	56c6 <_malloc_r+0x1f6>
    56c4:	e168      	b.n	5998 <_malloc_r+0x4c8>
    56c6:	4a6c      	ldr	r2, [pc, #432]	; (5878 <_malloc_r+0x3a8>)
    56c8:	4694      	mov	ip, r2
    56ca:	4463      	add	r3, ip
    56cc:	0b1b      	lsrs	r3, r3, #12
    56ce:	031b      	lsls	r3, r3, #12
    56d0:	9300      	str	r3, [sp, #0]
    56d2:	9900      	ldr	r1, [sp, #0]
    56d4:	0038      	movs	r0, r7
    56d6:	f000 fd89 	bl	61ec <_sbrk_r>
    56da:	0003      	movs	r3, r0
    56dc:	4681      	mov	r9, r0
    56de:	3301      	adds	r3, #1
    56e0:	d061      	beq.n	57a6 <_malloc_r+0x2d6>
    56e2:	9b01      	ldr	r3, [sp, #4]
    56e4:	4283      	cmp	r3, r0
    56e6:	d900      	bls.n	56ea <_malloc_r+0x21a>
    56e8:	e0ff      	b.n	58ea <_malloc_r+0x41a>
    56ea:	4b64      	ldr	r3, [pc, #400]	; (587c <_malloc_r+0x3ac>)
    56ec:	9a00      	ldr	r2, [sp, #0]
    56ee:	469a      	mov	sl, r3
    56f0:	681b      	ldr	r3, [r3, #0]
    56f2:	469c      	mov	ip, r3
    56f4:	4653      	mov	r3, sl
    56f6:	4462      	add	r2, ip
    56f8:	601a      	str	r2, [r3, #0]
    56fa:	9b01      	ldr	r3, [sp, #4]
    56fc:	0011      	movs	r1, r2
    56fe:	4283      	cmp	r3, r0
    5700:	d100      	bne.n	5704 <_malloc_r+0x234>
    5702:	e155      	b.n	59b0 <_malloc_r+0x4e0>
    5704:	465b      	mov	r3, fp
    5706:	681b      	ldr	r3, [r3, #0]
    5708:	3301      	adds	r3, #1
    570a:	d100      	bne.n	570e <_malloc_r+0x23e>
    570c:	e16c      	b.n	59e8 <_malloc_r+0x518>
    570e:	464b      	mov	r3, r9
    5710:	9a01      	ldr	r2, [sp, #4]
    5712:	1a9b      	subs	r3, r3, r2
    5714:	1859      	adds	r1, r3, r1
    5716:	4653      	mov	r3, sl
    5718:	6019      	str	r1, [r3, #0]
    571a:	2307      	movs	r3, #7
    571c:	464a      	mov	r2, r9
    571e:	4013      	ands	r3, r2
    5720:	d100      	bne.n	5724 <_malloc_r+0x254>
    5722:	e124      	b.n	596e <_malloc_r+0x49e>
    5724:	2108      	movs	r1, #8
    5726:	4689      	mov	r9, r1
    5728:	4955      	ldr	r1, [pc, #340]	; (5880 <_malloc_r+0x3b0>)
    572a:	1ad2      	subs	r2, r2, r3
    572c:	4491      	add	r9, r2
    572e:	1acb      	subs	r3, r1, r3
    5730:	9a00      	ldr	r2, [sp, #0]
    5732:	0038      	movs	r0, r7
    5734:	444a      	add	r2, r9
    5736:	0511      	lsls	r1, r2, #20
    5738:	0d09      	lsrs	r1, r1, #20
    573a:	1a5b      	subs	r3, r3, r1
    573c:	0019      	movs	r1, r3
    573e:	469b      	mov	fp, r3
    5740:	f000 fd54 	bl	61ec <_sbrk_r>
    5744:	1c43      	adds	r3, r0, #1
    5746:	d100      	bne.n	574a <_malloc_r+0x27a>
    5748:	e142      	b.n	59d0 <_malloc_r+0x500>
    574a:	464b      	mov	r3, r9
    574c:	1ac0      	subs	r0, r0, r3
    574e:	2301      	movs	r3, #1
    5750:	4458      	add	r0, fp
    5752:	4318      	orrs	r0, r3
    5754:	4653      	mov	r3, sl
    5756:	681b      	ldr	r3, [r3, #0]
    5758:	445b      	add	r3, fp
    575a:	0019      	movs	r1, r3
    575c:	4653      	mov	r3, sl
    575e:	6019      	str	r1, [r3, #0]
    5760:	464b      	mov	r3, r9
    5762:	60b3      	str	r3, [r6, #8]
    5764:	6058      	str	r0, [r3, #4]
    5766:	42b4      	cmp	r4, r6
    5768:	d013      	beq.n	5792 <_malloc_r+0x2c2>
    576a:	4643      	mov	r3, r8
    576c:	2b0f      	cmp	r3, #15
    576e:	d800      	bhi.n	5772 <_malloc_r+0x2a2>
    5770:	e0e8      	b.n	5944 <_malloc_r+0x474>
    5772:	4643      	mov	r3, r8
    5774:	2207      	movs	r2, #7
    5776:	6860      	ldr	r0, [r4, #4]
    5778:	3b0c      	subs	r3, #12
    577a:	4393      	bics	r3, r2
    577c:	3a06      	subs	r2, #6
    577e:	4002      	ands	r2, r0
    5780:	2005      	movs	r0, #5
    5782:	431a      	orrs	r2, r3
    5784:	6062      	str	r2, [r4, #4]
    5786:	18e2      	adds	r2, r4, r3
    5788:	6050      	str	r0, [r2, #4]
    578a:	6090      	str	r0, [r2, #8]
    578c:	2b0f      	cmp	r3, #15
    578e:	d900      	bls.n	5792 <_malloc_r+0x2c2>
    5790:	e122      	b.n	59d8 <_malloc_r+0x508>
    5792:	4b3c      	ldr	r3, [pc, #240]	; (5884 <_malloc_r+0x3b4>)
    5794:	681a      	ldr	r2, [r3, #0]
    5796:	4291      	cmp	r1, r2
    5798:	d900      	bls.n	579c <_malloc_r+0x2cc>
    579a:	6019      	str	r1, [r3, #0]
    579c:	4b3a      	ldr	r3, [pc, #232]	; (5888 <_malloc_r+0x3b8>)
    579e:	681a      	ldr	r2, [r3, #0]
    57a0:	4291      	cmp	r1, r2
    57a2:	d900      	bls.n	57a6 <_malloc_r+0x2d6>
    57a4:	6019      	str	r1, [r3, #0]
    57a6:	2303      	movs	r3, #3
    57a8:	68b4      	ldr	r4, [r6, #8]
    57aa:	6862      	ldr	r2, [r4, #4]
    57ac:	439a      	bics	r2, r3
    57ae:	1b53      	subs	r3, r2, r5
    57b0:	4295      	cmp	r5, r2
    57b2:	d900      	bls.n	57b6 <_malloc_r+0x2e6>
    57b4:	e0c9      	b.n	594a <_malloc_r+0x47a>
    57b6:	2b0f      	cmp	r3, #15
    57b8:	dc00      	bgt.n	57bc <_malloc_r+0x2ec>
    57ba:	e0c6      	b.n	594a <_malloc_r+0x47a>
    57bc:	2201      	movs	r2, #1
    57be:	0029      	movs	r1, r5
    57c0:	4313      	orrs	r3, r2
    57c2:	4311      	orrs	r1, r2
    57c4:	1965      	adds	r5, r4, r5
    57c6:	6061      	str	r1, [r4, #4]
    57c8:	0038      	movs	r0, r7
    57ca:	60b5      	str	r5, [r6, #8]
    57cc:	606b      	str	r3, [r5, #4]
    57ce:	f000 f9bd 	bl	5b4c <__malloc_unlock>
    57d2:	0020      	movs	r0, r4
    57d4:	3008      	adds	r0, #8
    57d6:	e74a      	b.n	566e <_malloc_r+0x19e>
    57d8:	2814      	cmp	r0, #20
    57da:	d97a      	bls.n	58d2 <_malloc_r+0x402>
    57dc:	2854      	cmp	r0, #84	; 0x54
    57de:	d900      	bls.n	57e2 <_malloc_r+0x312>
    57e0:	e0ba      	b.n	5958 <_malloc_r+0x488>
    57e2:	236e      	movs	r3, #110	; 0x6e
    57e4:	4698      	mov	r8, r3
    57e6:	0b28      	lsrs	r0, r5, #12
    57e8:	4480      	add	r8, r0
    57ea:	306f      	adds	r0, #111	; 0x6f
    57ec:	00c1      	lsls	r1, r0, #3
    57ee:	e696      	b.n	551e <_malloc_r+0x4e>
    57f0:	0a5a      	lsrs	r2, r3, #9
    57f2:	2a04      	cmp	r2, #4
    57f4:	d973      	bls.n	58de <_malloc_r+0x40e>
    57f6:	2a14      	cmp	r2, #20
    57f8:	d900      	bls.n	57fc <_malloc_r+0x32c>
    57fa:	e0d0      	b.n	599e <_malloc_r+0x4ce>
    57fc:	0011      	movs	r1, r2
    57fe:	325c      	adds	r2, #92	; 0x5c
    5800:	315b      	adds	r1, #91	; 0x5b
    5802:	00d2      	lsls	r2, r2, #3
    5804:	2308      	movs	r3, #8
    5806:	425b      	negs	r3, r3
    5808:	469c      	mov	ip, r3
    580a:	18b2      	adds	r2, r6, r2
    580c:	4494      	add	ip, r2
    580e:	4663      	mov	r3, ip
    5810:	689a      	ldr	r2, [r3, #8]
    5812:	2303      	movs	r3, #3
    5814:	4698      	mov	r8, r3
    5816:	4594      	cmp	ip, r2
    5818:	d100      	bne.n	581c <_malloc_r+0x34c>
    581a:	e0ab      	b.n	5974 <_malloc_r+0x4a4>
    581c:	4643      	mov	r3, r8
    581e:	6851      	ldr	r1, [r2, #4]
    5820:	4399      	bics	r1, r3
    5822:	4589      	cmp	r9, r1
    5824:	d300      	bcc.n	5828 <_malloc_r+0x358>
    5826:	e095      	b.n	5954 <_malloc_r+0x484>
    5828:	6892      	ldr	r2, [r2, #8]
    582a:	4594      	cmp	ip, r2
    582c:	d1f6      	bne.n	581c <_malloc_r+0x34c>
    582e:	4663      	mov	r3, ip
    5830:	68da      	ldr	r2, [r3, #12]
    5832:	6873      	ldr	r3, [r6, #4]
    5834:	4661      	mov	r1, ip
    5836:	60e2      	str	r2, [r4, #12]
    5838:	60a1      	str	r1, [r4, #8]
    583a:	6094      	str	r4, [r2, #8]
    583c:	60cc      	str	r4, [r1, #12]
    583e:	e6b6      	b.n	55ae <_malloc_r+0xde>
    5840:	2301      	movs	r3, #1
    5842:	1960      	adds	r0, r4, r5
    5844:	431d      	orrs	r5, r3
    5846:	6065      	str	r5, [r4, #4]
    5848:	6170      	str	r0, [r6, #20]
    584a:	6130      	str	r0, [r6, #16]
    584c:	60c2      	str	r2, [r0, #12]
    584e:	6082      	str	r2, [r0, #8]
    5850:	001a      	movs	r2, r3
    5852:	464b      	mov	r3, r9
    5854:	430a      	orrs	r2, r1
    5856:	6042      	str	r2, [r0, #4]
    5858:	0038      	movs	r0, r7
    585a:	50e1      	str	r1, [r4, r3]
    585c:	f000 f976 	bl	5b4c <__malloc_unlock>
    5860:	0020      	movs	r0, r4
    5862:	3008      	adds	r0, #8
    5864:	e703      	b.n	566e <_malloc_r+0x19e>
    5866:	46c0      	nop			; (mov r8, r8)
    5868:	20000744 	.word	0x20000744
    586c:	000001ff 	.word	0x000001ff
    5870:	20000b4c 	.word	0x20000b4c
    5874:	20000f78 	.word	0x20000f78
    5878:	0000100f 	.word	0x0000100f
    587c:	20000f48 	.word	0x20000f48
    5880:	00001008 	.word	0x00001008
    5884:	20000f70 	.word	0x20000f70
    5888:	20000f74 	.word	0x20000f74
    588c:	6873      	ldr	r3, [r6, #4]
    588e:	e68e      	b.n	55ae <_malloc_r+0xde>
    5890:	2308      	movs	r3, #8
    5892:	469b      	mov	fp, r3
    5894:	3b07      	subs	r3, #7
    5896:	44dc      	add	ip, fp
    5898:	469b      	mov	fp, r3
    589a:	44da      	add	sl, fp
    589c:	4643      	mov	r3, r8
    589e:	4652      	mov	r2, sl
    58a0:	4213      	tst	r3, r2
    58a2:	d000      	beq.n	58a6 <_malloc_r+0x3d6>
    58a4:	e697      	b.n	55d6 <_malloc_r+0x106>
    58a6:	e037      	b.n	5918 <_malloc_r+0x448>
    58a8:	68dc      	ldr	r4, [r3, #12]
    58aa:	3002      	adds	r0, #2
    58ac:	42a3      	cmp	r3, r4
    58ae:	d100      	bne.n	58b2 <_malloc_r+0x3e2>
    58b0:	e655      	b.n	555e <_malloc_r+0x8e>
    58b2:	e6ca      	b.n	564a <_malloc_r+0x17a>
    58b4:	2201      	movs	r2, #1
    58b6:	18e3      	adds	r3, r4, r3
    58b8:	6859      	ldr	r1, [r3, #4]
    58ba:	0038      	movs	r0, r7
    58bc:	430a      	orrs	r2, r1
    58be:	605a      	str	r2, [r3, #4]
    58c0:	68e3      	ldr	r3, [r4, #12]
    58c2:	68a2      	ldr	r2, [r4, #8]
    58c4:	60d3      	str	r3, [r2, #12]
    58c6:	609a      	str	r2, [r3, #8]
    58c8:	f000 f940 	bl	5b4c <__malloc_unlock>
    58cc:	0020      	movs	r0, r4
    58ce:	3008      	adds	r0, #8
    58d0:	e6cd      	b.n	566e <_malloc_r+0x19e>
    58d2:	235b      	movs	r3, #91	; 0x5b
    58d4:	4698      	mov	r8, r3
    58d6:	4480      	add	r8, r0
    58d8:	305c      	adds	r0, #92	; 0x5c
    58da:	00c1      	lsls	r1, r0, #3
    58dc:	e61f      	b.n	551e <_malloc_r+0x4e>
    58de:	099a      	lsrs	r2, r3, #6
    58e0:	0011      	movs	r1, r2
    58e2:	3239      	adds	r2, #57	; 0x39
    58e4:	3138      	adds	r1, #56	; 0x38
    58e6:	00d2      	lsls	r2, r2, #3
    58e8:	e78c      	b.n	5804 <_malloc_r+0x334>
    58ea:	42b4      	cmp	r4, r6
    58ec:	d000      	beq.n	58f0 <_malloc_r+0x420>
    58ee:	e75a      	b.n	57a6 <_malloc_r+0x2d6>
    58f0:	4b4f      	ldr	r3, [pc, #316]	; (5a30 <_malloc_r+0x560>)
    58f2:	9a00      	ldr	r2, [sp, #0]
    58f4:	469a      	mov	sl, r3
    58f6:	681b      	ldr	r3, [r3, #0]
    58f8:	469c      	mov	ip, r3
    58fa:	4653      	mov	r3, sl
    58fc:	4462      	add	r2, ip
    58fe:	0011      	movs	r1, r2
    5900:	601a      	str	r2, [r3, #0]
    5902:	e6ff      	b.n	5704 <_malloc_r+0x234>
    5904:	2308      	movs	r3, #8
    5906:	425b      	negs	r3, r3
    5908:	469c      	mov	ip, r3
    590a:	44e1      	add	r9, ip
    590c:	464b      	mov	r3, r9
    590e:	689b      	ldr	r3, [r3, #8]
    5910:	3801      	subs	r0, #1
    5912:	4599      	cmp	r9, r3
    5914:	d000      	beq.n	5918 <_malloc_r+0x448>
    5916:	e084      	b.n	5a22 <_malloc_r+0x552>
    5918:	4643      	mov	r3, r8
    591a:	4203      	tst	r3, r0
    591c:	d1f2      	bne.n	5904 <_malloc_r+0x434>
    591e:	6873      	ldr	r3, [r6, #4]
    5920:	438b      	bics	r3, r1
    5922:	6073      	str	r3, [r6, #4]
    5924:	0049      	lsls	r1, r1, #1
    5926:	4299      	cmp	r1, r3
    5928:	d900      	bls.n	592c <_malloc_r+0x45c>
    592a:	e6b5      	b.n	5698 <_malloc_r+0x1c8>
    592c:	2900      	cmp	r1, #0
    592e:	d100      	bne.n	5932 <_malloc_r+0x462>
    5930:	e6b2      	b.n	5698 <_malloc_r+0x1c8>
    5932:	4650      	mov	r0, sl
    5934:	420b      	tst	r3, r1
    5936:	d000      	beq.n	593a <_malloc_r+0x46a>
    5938:	e648      	b.n	55cc <_malloc_r+0xfc>
    593a:	0049      	lsls	r1, r1, #1
    593c:	3004      	adds	r0, #4
    593e:	420b      	tst	r3, r1
    5940:	d0fb      	beq.n	593a <_malloc_r+0x46a>
    5942:	e643      	b.n	55cc <_malloc_r+0xfc>
    5944:	2301      	movs	r3, #1
    5946:	464a      	mov	r2, r9
    5948:	6053      	str	r3, [r2, #4]
    594a:	0038      	movs	r0, r7
    594c:	f000 f8fe 	bl	5b4c <__malloc_unlock>
    5950:	2000      	movs	r0, #0
    5952:	e68c      	b.n	566e <_malloc_r+0x19e>
    5954:	4694      	mov	ip, r2
    5956:	e76a      	b.n	582e <_malloc_r+0x35e>
    5958:	23aa      	movs	r3, #170	; 0xaa
    595a:	005b      	lsls	r3, r3, #1
    595c:	4298      	cmp	r0, r3
    595e:	d811      	bhi.n	5984 <_malloc_r+0x4b4>
    5960:	3bdd      	subs	r3, #221	; 0xdd
    5962:	4698      	mov	r8, r3
    5964:	0be8      	lsrs	r0, r5, #15
    5966:	4480      	add	r8, r0
    5968:	3078      	adds	r0, #120	; 0x78
    596a:	00c1      	lsls	r1, r0, #3
    596c:	e5d7      	b.n	551e <_malloc_r+0x4e>
    596e:	2380      	movs	r3, #128	; 0x80
    5970:	015b      	lsls	r3, r3, #5
    5972:	e6dd      	b.n	5730 <_malloc_r+0x260>
    5974:	1089      	asrs	r1, r1, #2
    5976:	3b02      	subs	r3, #2
    5978:	408b      	lsls	r3, r1
    597a:	6872      	ldr	r2, [r6, #4]
    597c:	4313      	orrs	r3, r2
    597e:	6073      	str	r3, [r6, #4]
    5980:	4662      	mov	r2, ip
    5982:	e757      	b.n	5834 <_malloc_r+0x364>
    5984:	4b2b      	ldr	r3, [pc, #172]	; (5a34 <_malloc_r+0x564>)
    5986:	4298      	cmp	r0, r3
    5988:	d81c      	bhi.n	59c4 <_malloc_r+0x4f4>
    598a:	237c      	movs	r3, #124	; 0x7c
    598c:	4698      	mov	r8, r3
    598e:	0ca8      	lsrs	r0, r5, #18
    5990:	4480      	add	r8, r0
    5992:	307d      	adds	r0, #125	; 0x7d
    5994:	00c1      	lsls	r1, r0, #3
    5996:	e5c2      	b.n	551e <_malloc_r+0x4e>
    5998:	3310      	adds	r3, #16
    599a:	9300      	str	r3, [sp, #0]
    599c:	e699      	b.n	56d2 <_malloc_r+0x202>
    599e:	2a54      	cmp	r2, #84	; 0x54
    59a0:	d826      	bhi.n	59f0 <_malloc_r+0x520>
    59a2:	464b      	mov	r3, r9
    59a4:	0b1a      	lsrs	r2, r3, #12
    59a6:	0011      	movs	r1, r2
    59a8:	326f      	adds	r2, #111	; 0x6f
    59aa:	316e      	adds	r1, #110	; 0x6e
    59ac:	00d2      	lsls	r2, r2, #3
    59ae:	e729      	b.n	5804 <_malloc_r+0x334>
    59b0:	051b      	lsls	r3, r3, #20
    59b2:	d000      	beq.n	59b6 <_malloc_r+0x4e6>
    59b4:	e6a6      	b.n	5704 <_malloc_r+0x234>
    59b6:	2001      	movs	r0, #1
    59b8:	9b00      	ldr	r3, [sp, #0]
    59ba:	68b2      	ldr	r2, [r6, #8]
    59bc:	4443      	add	r3, r8
    59be:	4303      	orrs	r3, r0
    59c0:	6053      	str	r3, [r2, #4]
    59c2:	e6e6      	b.n	5792 <_malloc_r+0x2c2>
    59c4:	21fe      	movs	r1, #254	; 0xfe
    59c6:	237e      	movs	r3, #126	; 0x7e
    59c8:	207f      	movs	r0, #127	; 0x7f
    59ca:	0089      	lsls	r1, r1, #2
    59cc:	4698      	mov	r8, r3
    59ce:	e5a6      	b.n	551e <_malloc_r+0x4e>
    59d0:	2300      	movs	r3, #0
    59d2:	2001      	movs	r0, #1
    59d4:	469b      	mov	fp, r3
    59d6:	e6bd      	b.n	5754 <_malloc_r+0x284>
    59d8:	0021      	movs	r1, r4
    59da:	0038      	movs	r0, r7
    59dc:	3108      	adds	r1, #8
    59de:	f000 fdcf 	bl	6580 <_free_r>
    59e2:	4653      	mov	r3, sl
    59e4:	6819      	ldr	r1, [r3, #0]
    59e6:	e6d4      	b.n	5792 <_malloc_r+0x2c2>
    59e8:	465b      	mov	r3, fp
    59ea:	464a      	mov	r2, r9
    59ec:	601a      	str	r2, [r3, #0]
    59ee:	e694      	b.n	571a <_malloc_r+0x24a>
    59f0:	21aa      	movs	r1, #170	; 0xaa
    59f2:	0049      	lsls	r1, r1, #1
    59f4:	428a      	cmp	r2, r1
    59f6:	d806      	bhi.n	5a06 <_malloc_r+0x536>
    59f8:	464b      	mov	r3, r9
    59fa:	0bda      	lsrs	r2, r3, #15
    59fc:	0011      	movs	r1, r2
    59fe:	3278      	adds	r2, #120	; 0x78
    5a00:	3177      	adds	r1, #119	; 0x77
    5a02:	00d2      	lsls	r2, r2, #3
    5a04:	e6fe      	b.n	5804 <_malloc_r+0x334>
    5a06:	490b      	ldr	r1, [pc, #44]	; (5a34 <_malloc_r+0x564>)
    5a08:	428a      	cmp	r2, r1
    5a0a:	d806      	bhi.n	5a1a <_malloc_r+0x54a>
    5a0c:	464b      	mov	r3, r9
    5a0e:	0c9a      	lsrs	r2, r3, #18
    5a10:	0011      	movs	r1, r2
    5a12:	327d      	adds	r2, #125	; 0x7d
    5a14:	317c      	adds	r1, #124	; 0x7c
    5a16:	00d2      	lsls	r2, r2, #3
    5a18:	e6f4      	b.n	5804 <_malloc_r+0x334>
    5a1a:	22fe      	movs	r2, #254	; 0xfe
    5a1c:	217e      	movs	r1, #126	; 0x7e
    5a1e:	0092      	lsls	r2, r2, #2
    5a20:	e6f0      	b.n	5804 <_malloc_r+0x334>
    5a22:	6873      	ldr	r3, [r6, #4]
    5a24:	e77e      	b.n	5924 <_malloc_r+0x454>
    5a26:	002b      	movs	r3, r5
    5a28:	08e8      	lsrs	r0, r5, #3
    5a2a:	3308      	adds	r3, #8
    5a2c:	e605      	b.n	563a <_malloc_r+0x16a>
    5a2e:	46c0      	nop			; (mov r8, r8)
    5a30:	20000f48 	.word	0x20000f48
    5a34:	00000554 	.word	0x00000554

00005a38 <memchr>:
    5a38:	b570      	push	{r4, r5, r6, lr}
    5a3a:	b2cd      	uxtb	r5, r1
    5a3c:	0783      	lsls	r3, r0, #30
    5a3e:	d034      	beq.n	5aaa <memchr+0x72>
    5a40:	1e54      	subs	r4, r2, #1
    5a42:	2a00      	cmp	r2, #0
    5a44:	d01b      	beq.n	5a7e <memchr+0x46>
    5a46:	7803      	ldrb	r3, [r0, #0]
    5a48:	42ab      	cmp	r3, r5
    5a4a:	d019      	beq.n	5a80 <memchr+0x48>
    5a4c:	2203      	movs	r2, #3
    5a4e:	e004      	b.n	5a5a <memchr+0x22>
    5a50:	3c01      	subs	r4, #1
    5a52:	d314      	bcc.n	5a7e <memchr+0x46>
    5a54:	7803      	ldrb	r3, [r0, #0]
    5a56:	42ab      	cmp	r3, r5
    5a58:	d012      	beq.n	5a80 <memchr+0x48>
    5a5a:	3001      	adds	r0, #1
    5a5c:	4210      	tst	r0, r2
    5a5e:	d1f7      	bne.n	5a50 <memchr+0x18>
    5a60:	2c03      	cmp	r4, #3
    5a62:	d80e      	bhi.n	5a82 <memchr+0x4a>
    5a64:	2c00      	cmp	r4, #0
    5a66:	d00a      	beq.n	5a7e <memchr+0x46>
    5a68:	7803      	ldrb	r3, [r0, #0]
    5a6a:	42ab      	cmp	r3, r5
    5a6c:	d008      	beq.n	5a80 <memchr+0x48>
    5a6e:	1904      	adds	r4, r0, r4
    5a70:	e002      	b.n	5a78 <memchr+0x40>
    5a72:	7803      	ldrb	r3, [r0, #0]
    5a74:	42ab      	cmp	r3, r5
    5a76:	d003      	beq.n	5a80 <memchr+0x48>
    5a78:	3001      	adds	r0, #1
    5a7a:	4284      	cmp	r4, r0
    5a7c:	d1f9      	bne.n	5a72 <memchr+0x3a>
    5a7e:	2000      	movs	r0, #0
    5a80:	bd70      	pop	{r4, r5, r6, pc}
    5a82:	22ff      	movs	r2, #255	; 0xff
    5a84:	060b      	lsls	r3, r1, #24
    5a86:	0c1b      	lsrs	r3, r3, #16
    5a88:	4011      	ands	r1, r2
    5a8a:	4319      	orrs	r1, r3
    5a8c:	040b      	lsls	r3, r1, #16
    5a8e:	4e08      	ldr	r6, [pc, #32]	; (5ab0 <memchr+0x78>)
    5a90:	4319      	orrs	r1, r3
    5a92:	6803      	ldr	r3, [r0, #0]
    5a94:	4a07      	ldr	r2, [pc, #28]	; (5ab4 <memchr+0x7c>)
    5a96:	404b      	eors	r3, r1
    5a98:	189a      	adds	r2, r3, r2
    5a9a:	439a      	bics	r2, r3
    5a9c:	4232      	tst	r2, r6
    5a9e:	d1e3      	bne.n	5a68 <memchr+0x30>
    5aa0:	3c04      	subs	r4, #4
    5aa2:	3004      	adds	r0, #4
    5aa4:	2c03      	cmp	r4, #3
    5aa6:	d8f4      	bhi.n	5a92 <memchr+0x5a>
    5aa8:	e7dc      	b.n	5a64 <memchr+0x2c>
    5aaa:	0014      	movs	r4, r2
    5aac:	e7d8      	b.n	5a60 <memchr+0x28>
    5aae:	46c0      	nop			; (mov r8, r8)
    5ab0:	80808080 	.word	0x80808080
    5ab4:	fefefeff 	.word	0xfefefeff

00005ab8 <memcpy>:
    5ab8:	b5f0      	push	{r4, r5, r6, r7, lr}
    5aba:	0005      	movs	r5, r0
    5abc:	2a0f      	cmp	r2, #15
    5abe:	d92f      	bls.n	5b20 <memcpy+0x68>
    5ac0:	000b      	movs	r3, r1
    5ac2:	4303      	orrs	r3, r0
    5ac4:	079b      	lsls	r3, r3, #30
    5ac6:	d134      	bne.n	5b32 <memcpy+0x7a>
    5ac8:	0016      	movs	r6, r2
    5aca:	000c      	movs	r4, r1
    5acc:	0003      	movs	r3, r0
    5ace:	3e10      	subs	r6, #16
    5ad0:	0935      	lsrs	r5, r6, #4
    5ad2:	3501      	adds	r5, #1
    5ad4:	012d      	lsls	r5, r5, #4
    5ad6:	1945      	adds	r5, r0, r5
    5ad8:	6827      	ldr	r7, [r4, #0]
    5ada:	601f      	str	r7, [r3, #0]
    5adc:	6867      	ldr	r7, [r4, #4]
    5ade:	605f      	str	r7, [r3, #4]
    5ae0:	68a7      	ldr	r7, [r4, #8]
    5ae2:	609f      	str	r7, [r3, #8]
    5ae4:	68e7      	ldr	r7, [r4, #12]
    5ae6:	3410      	adds	r4, #16
    5ae8:	60df      	str	r7, [r3, #12]
    5aea:	3310      	adds	r3, #16
    5aec:	429d      	cmp	r5, r3
    5aee:	d1f3      	bne.n	5ad8 <memcpy+0x20>
    5af0:	230f      	movs	r3, #15
    5af2:	439e      	bics	r6, r3
    5af4:	3610      	adds	r6, #16
    5af6:	1985      	adds	r5, r0, r6
    5af8:	1989      	adds	r1, r1, r6
    5afa:	4013      	ands	r3, r2
    5afc:	2b03      	cmp	r3, #3
    5afe:	d91a      	bls.n	5b36 <memcpy+0x7e>
    5b00:	1f1e      	subs	r6, r3, #4
    5b02:	2300      	movs	r3, #0
    5b04:	08b4      	lsrs	r4, r6, #2
    5b06:	3401      	adds	r4, #1
    5b08:	00a4      	lsls	r4, r4, #2
    5b0a:	58cf      	ldr	r7, [r1, r3]
    5b0c:	50ef      	str	r7, [r5, r3]
    5b0e:	3304      	adds	r3, #4
    5b10:	42a3      	cmp	r3, r4
    5b12:	d1fa      	bne.n	5b0a <memcpy+0x52>
    5b14:	2403      	movs	r4, #3
    5b16:	43a6      	bics	r6, r4
    5b18:	1d33      	adds	r3, r6, #4
    5b1a:	4022      	ands	r2, r4
    5b1c:	18c9      	adds	r1, r1, r3
    5b1e:	18ed      	adds	r5, r5, r3
    5b20:	2a00      	cmp	r2, #0
    5b22:	d005      	beq.n	5b30 <memcpy+0x78>
    5b24:	2300      	movs	r3, #0
    5b26:	5ccc      	ldrb	r4, [r1, r3]
    5b28:	54ec      	strb	r4, [r5, r3]
    5b2a:	3301      	adds	r3, #1
    5b2c:	4293      	cmp	r3, r2
    5b2e:	d1fa      	bne.n	5b26 <memcpy+0x6e>
    5b30:	bdf0      	pop	{r4, r5, r6, r7, pc}
    5b32:	0005      	movs	r5, r0
    5b34:	e7f6      	b.n	5b24 <memcpy+0x6c>
    5b36:	001a      	movs	r2, r3
    5b38:	e7f2      	b.n	5b20 <memcpy+0x68>
    5b3a:	46c0      	nop			; (mov r8, r8)

00005b3c <__malloc_lock>:
    5b3c:	b510      	push	{r4, lr}
    5b3e:	4802      	ldr	r0, [pc, #8]	; (5b48 <__malloc_lock+0xc>)
    5b40:	f7ff fcc2 	bl	54c8 <__retarget_lock_acquire_recursive>
    5b44:	bd10      	pop	{r4, pc}
    5b46:	46c0      	nop			; (mov r8, r8)
    5b48:	20000f8c 	.word	0x20000f8c

00005b4c <__malloc_unlock>:
    5b4c:	b510      	push	{r4, lr}
    5b4e:	4802      	ldr	r0, [pc, #8]	; (5b58 <__malloc_unlock+0xc>)
    5b50:	f7ff fcbc 	bl	54cc <__retarget_lock_release_recursive>
    5b54:	bd10      	pop	{r4, pc}
    5b56:	46c0      	nop			; (mov r8, r8)
    5b58:	20000f8c 	.word	0x20000f8c

00005b5c <_Balloc>:
    5b5c:	b570      	push	{r4, r5, r6, lr}
    5b5e:	0004      	movs	r4, r0
    5b60:	6cc0      	ldr	r0, [r0, #76]	; 0x4c
    5b62:	000d      	movs	r5, r1
    5b64:	2800      	cmp	r0, #0
    5b66:	d00a      	beq.n	5b7e <_Balloc+0x22>
    5b68:	00ab      	lsls	r3, r5, #2
    5b6a:	18c3      	adds	r3, r0, r3
    5b6c:	6818      	ldr	r0, [r3, #0]
    5b6e:	2800      	cmp	r0, #0
    5b70:	d00f      	beq.n	5b92 <_Balloc+0x36>
    5b72:	6802      	ldr	r2, [r0, #0]
    5b74:	601a      	str	r2, [r3, #0]
    5b76:	2300      	movs	r3, #0
    5b78:	6103      	str	r3, [r0, #16]
    5b7a:	60c3      	str	r3, [r0, #12]
    5b7c:	bd70      	pop	{r4, r5, r6, pc}
    5b7e:	2221      	movs	r2, #33	; 0x21
    5b80:	2104      	movs	r1, #4
    5b82:	0020      	movs	r0, r4
    5b84:	f000 fc80 	bl	6488 <_calloc_r>
    5b88:	64e0      	str	r0, [r4, #76]	; 0x4c
    5b8a:	2800      	cmp	r0, #0
    5b8c:	d1ec      	bne.n	5b68 <_Balloc+0xc>
    5b8e:	2000      	movs	r0, #0
    5b90:	e7f4      	b.n	5b7c <_Balloc+0x20>
    5b92:	2601      	movs	r6, #1
    5b94:	40ae      	lsls	r6, r5
    5b96:	1d72      	adds	r2, r6, #5
    5b98:	0092      	lsls	r2, r2, #2
    5b9a:	2101      	movs	r1, #1
    5b9c:	0020      	movs	r0, r4
    5b9e:	f000 fc73 	bl	6488 <_calloc_r>
    5ba2:	2800      	cmp	r0, #0
    5ba4:	d0f3      	beq.n	5b8e <_Balloc+0x32>
    5ba6:	6045      	str	r5, [r0, #4]
    5ba8:	6086      	str	r6, [r0, #8]
    5baa:	e7e4      	b.n	5b76 <_Balloc+0x1a>

00005bac <_Bfree>:
    5bac:	2900      	cmp	r1, #0
    5bae:	d006      	beq.n	5bbe <_Bfree+0x12>
    5bb0:	684b      	ldr	r3, [r1, #4]
    5bb2:	009a      	lsls	r2, r3, #2
    5bb4:	6cc3      	ldr	r3, [r0, #76]	; 0x4c
    5bb6:	189b      	adds	r3, r3, r2
    5bb8:	681a      	ldr	r2, [r3, #0]
    5bba:	600a      	str	r2, [r1, #0]
    5bbc:	6019      	str	r1, [r3, #0]
    5bbe:	4770      	bx	lr

00005bc0 <__multadd>:
    5bc0:	b5f8      	push	{r3, r4, r5, r6, r7, lr}
    5bc2:	46ce      	mov	lr, r9
    5bc4:	4647      	mov	r7, r8
    5bc6:	4681      	mov	r9, r0
    5bc8:	0008      	movs	r0, r1
    5bca:	b580      	push	{r7, lr}
    5bcc:	000d      	movs	r5, r1
    5bce:	690c      	ldr	r4, [r1, #16]
    5bd0:	001f      	movs	r7, r3
    5bd2:	2100      	movs	r1, #0
    5bd4:	3014      	adds	r0, #20
    5bd6:	6803      	ldr	r3, [r0, #0]
    5bd8:	3101      	adds	r1, #1
    5bda:	041e      	lsls	r6, r3, #16
    5bdc:	0c36      	lsrs	r6, r6, #16
    5bde:	4356      	muls	r6, r2
    5be0:	0c1b      	lsrs	r3, r3, #16
    5be2:	4353      	muls	r3, r2
    5be4:	19f6      	adds	r6, r6, r7
    5be6:	0c37      	lsrs	r7, r6, #16
    5be8:	19db      	adds	r3, r3, r7
    5bea:	0436      	lsls	r6, r6, #16
    5bec:	0c1f      	lsrs	r7, r3, #16
    5bee:	0c36      	lsrs	r6, r6, #16
    5bf0:	041b      	lsls	r3, r3, #16
    5bf2:	199b      	adds	r3, r3, r6
    5bf4:	c008      	stmia	r0!, {r3}
    5bf6:	428c      	cmp	r4, r1
    5bf8:	dced      	bgt.n	5bd6 <__multadd+0x16>
    5bfa:	2f00      	cmp	r7, #0
    5bfc:	d008      	beq.n	5c10 <__multadd+0x50>
    5bfe:	68ab      	ldr	r3, [r5, #8]
    5c00:	429c      	cmp	r4, r3
    5c02:	da0a      	bge.n	5c1a <__multadd+0x5a>
    5c04:	1d23      	adds	r3, r4, #4
    5c06:	009b      	lsls	r3, r3, #2
    5c08:	18eb      	adds	r3, r5, r3
    5c0a:	3401      	adds	r4, #1
    5c0c:	605f      	str	r7, [r3, #4]
    5c0e:	612c      	str	r4, [r5, #16]
    5c10:	0028      	movs	r0, r5
    5c12:	bc0c      	pop	{r2, r3}
    5c14:	4690      	mov	r8, r2
    5c16:	4699      	mov	r9, r3
    5c18:	bdf8      	pop	{r3, r4, r5, r6, r7, pc}
    5c1a:	686b      	ldr	r3, [r5, #4]
    5c1c:	4648      	mov	r0, r9
    5c1e:	1c59      	adds	r1, r3, #1
    5c20:	f7ff ff9c 	bl	5b5c <_Balloc>
    5c24:	0029      	movs	r1, r5
    5c26:	692b      	ldr	r3, [r5, #16]
    5c28:	4680      	mov	r8, r0
    5c2a:	1c9a      	adds	r2, r3, #2
    5c2c:	0092      	lsls	r2, r2, #2
    5c2e:	310c      	adds	r1, #12
    5c30:	300c      	adds	r0, #12
    5c32:	f7ff ff41 	bl	5ab8 <memcpy>
    5c36:	686b      	ldr	r3, [r5, #4]
    5c38:	009a      	lsls	r2, r3, #2
    5c3a:	464b      	mov	r3, r9
    5c3c:	6cdb      	ldr	r3, [r3, #76]	; 0x4c
    5c3e:	189b      	adds	r3, r3, r2
    5c40:	681a      	ldr	r2, [r3, #0]
    5c42:	602a      	str	r2, [r5, #0]
    5c44:	601d      	str	r5, [r3, #0]
    5c46:	4645      	mov	r5, r8
    5c48:	e7dc      	b.n	5c04 <__multadd+0x44>
    5c4a:	46c0      	nop			; (mov r8, r8)

00005c4c <__hi0bits>:
    5c4c:	0003      	movs	r3, r0
    5c4e:	0c02      	lsrs	r2, r0, #16
    5c50:	2000      	movs	r0, #0
    5c52:	2a00      	cmp	r2, #0
    5c54:	d101      	bne.n	5c5a <__hi0bits+0xe>
    5c56:	041b      	lsls	r3, r3, #16
    5c58:	3010      	adds	r0, #16
    5c5a:	0e1a      	lsrs	r2, r3, #24
    5c5c:	d101      	bne.n	5c62 <__hi0bits+0x16>
    5c5e:	3008      	adds	r0, #8
    5c60:	021b      	lsls	r3, r3, #8
    5c62:	0f1a      	lsrs	r2, r3, #28
    5c64:	d101      	bne.n	5c6a <__hi0bits+0x1e>
    5c66:	3004      	adds	r0, #4
    5c68:	011b      	lsls	r3, r3, #4
    5c6a:	0f9a      	lsrs	r2, r3, #30
    5c6c:	d101      	bne.n	5c72 <__hi0bits+0x26>
    5c6e:	3002      	adds	r0, #2
    5c70:	009b      	lsls	r3, r3, #2
    5c72:	2b00      	cmp	r3, #0
    5c74:	db03      	blt.n	5c7e <__hi0bits+0x32>
    5c76:	3001      	adds	r0, #1
    5c78:	005b      	lsls	r3, r3, #1
    5c7a:	d400      	bmi.n	5c7e <__hi0bits+0x32>
    5c7c:	2020      	movs	r0, #32
    5c7e:	4770      	bx	lr

00005c80 <__lo0bits>:
    5c80:	6803      	ldr	r3, [r0, #0]
    5c82:	075a      	lsls	r2, r3, #29
    5c84:	d009      	beq.n	5c9a <__lo0bits+0x1a>
    5c86:	2200      	movs	r2, #0
    5c88:	07d9      	lsls	r1, r3, #31
    5c8a:	d404      	bmi.n	5c96 <__lo0bits+0x16>
    5c8c:	079a      	lsls	r2, r3, #30
    5c8e:	d420      	bmi.n	5cd2 <__lo0bits+0x52>
    5c90:	2202      	movs	r2, #2
    5c92:	089b      	lsrs	r3, r3, #2
    5c94:	6003      	str	r3, [r0, #0]
    5c96:	0010      	movs	r0, r2
    5c98:	4770      	bx	lr
    5c9a:	0419      	lsls	r1, r3, #16
    5c9c:	2200      	movs	r2, #0
    5c9e:	2900      	cmp	r1, #0
    5ca0:	d101      	bne.n	5ca6 <__lo0bits+0x26>
    5ca2:	0c1b      	lsrs	r3, r3, #16
    5ca4:	3210      	adds	r2, #16
    5ca6:	21ff      	movs	r1, #255	; 0xff
    5ca8:	4219      	tst	r1, r3
    5caa:	d101      	bne.n	5cb0 <__lo0bits+0x30>
    5cac:	3208      	adds	r2, #8
    5cae:	0a1b      	lsrs	r3, r3, #8
    5cb0:	0719      	lsls	r1, r3, #28
    5cb2:	d101      	bne.n	5cb8 <__lo0bits+0x38>
    5cb4:	3204      	adds	r2, #4
    5cb6:	091b      	lsrs	r3, r3, #4
    5cb8:	0799      	lsls	r1, r3, #30
    5cba:	d101      	bne.n	5cc0 <__lo0bits+0x40>
    5cbc:	3202      	adds	r2, #2
    5cbe:	089b      	lsrs	r3, r3, #2
    5cc0:	07d9      	lsls	r1, r3, #31
    5cc2:	d404      	bmi.n	5cce <__lo0bits+0x4e>
    5cc4:	085b      	lsrs	r3, r3, #1
    5cc6:	d101      	bne.n	5ccc <__lo0bits+0x4c>
    5cc8:	2220      	movs	r2, #32
    5cca:	e7e4      	b.n	5c96 <__lo0bits+0x16>
    5ccc:	3201      	adds	r2, #1
    5cce:	6003      	str	r3, [r0, #0]
    5cd0:	e7e1      	b.n	5c96 <__lo0bits+0x16>
    5cd2:	085b      	lsrs	r3, r3, #1
    5cd4:	6003      	str	r3, [r0, #0]
    5cd6:	2201      	movs	r2, #1
    5cd8:	e7dd      	b.n	5c96 <__lo0bits+0x16>
    5cda:	46c0      	nop			; (mov r8, r8)

00005cdc <__i2b>:
    5cdc:	b510      	push	{r4, lr}
    5cde:	000c      	movs	r4, r1
    5ce0:	2101      	movs	r1, #1
    5ce2:	f7ff ff3b 	bl	5b5c <_Balloc>
    5ce6:	2301      	movs	r3, #1
    5ce8:	6144      	str	r4, [r0, #20]
    5cea:	6103      	str	r3, [r0, #16]
    5cec:	bd10      	pop	{r4, pc}
    5cee:	46c0      	nop			; (mov r8, r8)

00005cf0 <__multiply>:
    5cf0:	b5f0      	push	{r4, r5, r6, r7, lr}
    5cf2:	4657      	mov	r7, sl
    5cf4:	464e      	mov	r6, r9
    5cf6:	4645      	mov	r5, r8
    5cf8:	46de      	mov	lr, fp
    5cfa:	b5e0      	push	{r5, r6, r7, lr}
    5cfc:	6914      	ldr	r4, [r2, #16]
    5cfe:	690e      	ldr	r6, [r1, #16]
    5d00:	b085      	sub	sp, #20
    5d02:	000f      	movs	r7, r1
    5d04:	0015      	movs	r5, r2
    5d06:	42a6      	cmp	r6, r4
    5d08:	da04      	bge.n	5d14 <__multiply+0x24>
    5d0a:	0033      	movs	r3, r6
    5d0c:	0017      	movs	r7, r2
    5d0e:	0026      	movs	r6, r4
    5d10:	000d      	movs	r5, r1
    5d12:	001c      	movs	r4, r3
    5d14:	1933      	adds	r3, r6, r4
    5d16:	4698      	mov	r8, r3
    5d18:	68bb      	ldr	r3, [r7, #8]
    5d1a:	6879      	ldr	r1, [r7, #4]
    5d1c:	4598      	cmp	r8, r3
    5d1e:	dd00      	ble.n	5d22 <__multiply+0x32>
    5d20:	3101      	adds	r1, #1
    5d22:	f7ff ff1b 	bl	5b5c <_Balloc>
    5d26:	2214      	movs	r2, #20
    5d28:	0003      	movs	r3, r0
    5d2a:	4694      	mov	ip, r2
    5d2c:	4463      	add	r3, ip
    5d2e:	469b      	mov	fp, r3
    5d30:	4643      	mov	r3, r8
    5d32:	009b      	lsls	r3, r3, #2
    5d34:	445b      	add	r3, fp
    5d36:	0019      	movs	r1, r3
    5d38:	9302      	str	r3, [sp, #8]
    5d3a:	9003      	str	r0, [sp, #12]
    5d3c:	465b      	mov	r3, fp
    5d3e:	2200      	movs	r2, #0
    5d40:	458b      	cmp	fp, r1
    5d42:	d203      	bcs.n	5d4c <__multiply+0x5c>
    5d44:	9902      	ldr	r1, [sp, #8]
    5d46:	c304      	stmia	r3!, {r2}
    5d48:	4299      	cmp	r1, r3
    5d4a:	d8fc      	bhi.n	5d46 <__multiply+0x56>
    5d4c:	2314      	movs	r3, #20
    5d4e:	00a4      	lsls	r4, r4, #2
    5d50:	469a      	mov	sl, r3
    5d52:	3714      	adds	r7, #20
    5d54:	0023      	movs	r3, r4
    5d56:	46bc      	mov	ip, r7
    5d58:	44aa      	add	sl, r5
    5d5a:	00b6      	lsls	r6, r6, #2
    5d5c:	4453      	add	r3, sl
    5d5e:	9700      	str	r7, [sp, #0]
    5d60:	44b4      	add	ip, r6
    5d62:	9301      	str	r3, [sp, #4]
    5d64:	459a      	cmp	sl, r3
    5d66:	d24f      	bcs.n	5e08 <__multiply+0x118>
    5d68:	4653      	mov	r3, sl
    5d6a:	681b      	ldr	r3, [r3, #0]
    5d6c:	041e      	lsls	r6, r3, #16
    5d6e:	0c36      	lsrs	r6, r6, #16
    5d70:	d020      	beq.n	5db4 <__multiply+0xc4>
    5d72:	465c      	mov	r4, fp
    5d74:	2700      	movs	r7, #0
    5d76:	9d00      	ldr	r5, [sp, #0]
    5d78:	0021      	movs	r1, r4
    5d7a:	cc08      	ldmia	r4!, {r3}
    5d7c:	cd04      	ldmia	r5!, {r2}
    5d7e:	4699      	mov	r9, r3
    5d80:	4648      	mov	r0, r9
    5d82:	0413      	lsls	r3, r2, #16
    5d84:	0c1b      	lsrs	r3, r3, #16
    5d86:	4373      	muls	r3, r6
    5d88:	0400      	lsls	r0, r0, #16
    5d8a:	0c00      	lsrs	r0, r0, #16
    5d8c:	181b      	adds	r3, r3, r0
    5d8e:	19d8      	adds	r0, r3, r7
    5d90:	0c13      	lsrs	r3, r2, #16
    5d92:	464a      	mov	r2, r9
    5d94:	4373      	muls	r3, r6
    5d96:	0c12      	lsrs	r2, r2, #16
    5d98:	189b      	adds	r3, r3, r2
    5d9a:	0c02      	lsrs	r2, r0, #16
    5d9c:	189b      	adds	r3, r3, r2
    5d9e:	0402      	lsls	r2, r0, #16
    5da0:	0c1f      	lsrs	r7, r3, #16
    5da2:	0c12      	lsrs	r2, r2, #16
    5da4:	041b      	lsls	r3, r3, #16
    5da6:	4313      	orrs	r3, r2
    5da8:	600b      	str	r3, [r1, #0]
    5daa:	45ac      	cmp	ip, r5
    5dac:	d8e4      	bhi.n	5d78 <__multiply+0x88>
    5dae:	4653      	mov	r3, sl
    5db0:	6027      	str	r7, [r4, #0]
    5db2:	681b      	ldr	r3, [r3, #0]
    5db4:	0c1e      	lsrs	r6, r3, #16
    5db6:	d020      	beq.n	5dfa <__multiply+0x10a>
    5db8:	465b      	mov	r3, fp
    5dba:	2100      	movs	r1, #0
    5dbc:	681b      	ldr	r3, [r3, #0]
    5dbe:	465c      	mov	r4, fp
    5dc0:	0018      	movs	r0, r3
    5dc2:	000f      	movs	r7, r1
    5dc4:	4662      	mov	r2, ip
    5dc6:	9d00      	ldr	r5, [sp, #0]
    5dc8:	8829      	ldrh	r1, [r5, #0]
    5dca:	0c00      	lsrs	r0, r0, #16
    5dcc:	4371      	muls	r1, r6
    5dce:	1809      	adds	r1, r1, r0
    5dd0:	19c9      	adds	r1, r1, r7
    5dd2:	041b      	lsls	r3, r3, #16
    5dd4:	0408      	lsls	r0, r1, #16
    5dd6:	0c1b      	lsrs	r3, r3, #16
    5dd8:	4303      	orrs	r3, r0
    5dda:	6023      	str	r3, [r4, #0]
    5ddc:	cd08      	ldmia	r5!, {r3}
    5dde:	6860      	ldr	r0, [r4, #4]
    5de0:	0c1b      	lsrs	r3, r3, #16
    5de2:	4373      	muls	r3, r6
    5de4:	0407      	lsls	r7, r0, #16
    5de6:	0c3f      	lsrs	r7, r7, #16
    5de8:	19db      	adds	r3, r3, r7
    5dea:	0c09      	lsrs	r1, r1, #16
    5dec:	185b      	adds	r3, r3, r1
    5dee:	0c1f      	lsrs	r7, r3, #16
    5df0:	3404      	adds	r4, #4
    5df2:	42aa      	cmp	r2, r5
    5df4:	d8e8      	bhi.n	5dc8 <__multiply+0xd8>
    5df6:	4694      	mov	ip, r2
    5df8:	6023      	str	r3, [r4, #0]
    5dfa:	2304      	movs	r3, #4
    5dfc:	4699      	mov	r9, r3
    5dfe:	9b01      	ldr	r3, [sp, #4]
    5e00:	44ca      	add	sl, r9
    5e02:	44cb      	add	fp, r9
    5e04:	4553      	cmp	r3, sl
    5e06:	d8af      	bhi.n	5d68 <__multiply+0x78>
    5e08:	4643      	mov	r3, r8
    5e0a:	2b00      	cmp	r3, #0
    5e0c:	dd0e      	ble.n	5e2c <__multiply+0x13c>
    5e0e:	9b02      	ldr	r3, [sp, #8]
    5e10:	3b04      	subs	r3, #4
    5e12:	681a      	ldr	r2, [r3, #0]
    5e14:	2a00      	cmp	r2, #0
    5e16:	d109      	bne.n	5e2c <__multiply+0x13c>
    5e18:	4642      	mov	r2, r8
    5e1a:	e003      	b.n	5e24 <__multiply+0x134>
    5e1c:	3b04      	subs	r3, #4
    5e1e:	6819      	ldr	r1, [r3, #0]
    5e20:	2900      	cmp	r1, #0
    5e22:	d102      	bne.n	5e2a <__multiply+0x13a>
    5e24:	3a01      	subs	r2, #1
    5e26:	2a00      	cmp	r2, #0
    5e28:	d1f8      	bne.n	5e1c <__multiply+0x12c>
    5e2a:	4690      	mov	r8, r2
    5e2c:	9b03      	ldr	r3, [sp, #12]
    5e2e:	4642      	mov	r2, r8
    5e30:	0018      	movs	r0, r3
    5e32:	611a      	str	r2, [r3, #16]
    5e34:	b005      	add	sp, #20
    5e36:	bc3c      	pop	{r2, r3, r4, r5}
    5e38:	4690      	mov	r8, r2
    5e3a:	4699      	mov	r9, r3
    5e3c:	46a2      	mov	sl, r4
    5e3e:	46ab      	mov	fp, r5
    5e40:	bdf0      	pop	{r4, r5, r6, r7, pc}
    5e42:	46c0      	nop			; (mov r8, r8)

00005e44 <__pow5mult>:
    5e44:	b5f8      	push	{r3, r4, r5, r6, r7, lr}
    5e46:	4647      	mov	r7, r8
    5e48:	46ce      	mov	lr, r9
    5e4a:	2303      	movs	r3, #3
    5e4c:	b580      	push	{r7, lr}
    5e4e:	4680      	mov	r8, r0
    5e50:	000f      	movs	r7, r1
    5e52:	0014      	movs	r4, r2
    5e54:	4013      	ands	r3, r2
    5e56:	d13a      	bne.n	5ece <__pow5mult+0x8a>
    5e58:	10a4      	asrs	r4, r4, #2
    5e5a:	003e      	movs	r6, r7
    5e5c:	2c00      	cmp	r4, #0
    5e5e:	d025      	beq.n	5eac <__pow5mult+0x68>
    5e60:	4643      	mov	r3, r8
    5e62:	6c9d      	ldr	r5, [r3, #72]	; 0x48
    5e64:	2d00      	cmp	r5, #0
    5e66:	d03b      	beq.n	5ee0 <__pow5mult+0x9c>
    5e68:	003e      	movs	r6, r7
    5e6a:	2300      	movs	r3, #0
    5e6c:	2701      	movs	r7, #1
    5e6e:	4699      	mov	r9, r3
    5e70:	4227      	tst	r7, r4
    5e72:	d107      	bne.n	5e84 <__pow5mult+0x40>
    5e74:	1064      	asrs	r4, r4, #1
    5e76:	d019      	beq.n	5eac <__pow5mult+0x68>
    5e78:	6828      	ldr	r0, [r5, #0]
    5e7a:	2800      	cmp	r0, #0
    5e7c:	d01b      	beq.n	5eb6 <__pow5mult+0x72>
    5e7e:	0005      	movs	r5, r0
    5e80:	4227      	tst	r7, r4
    5e82:	d0f7      	beq.n	5e74 <__pow5mult+0x30>
    5e84:	002a      	movs	r2, r5
    5e86:	0031      	movs	r1, r6
    5e88:	4640      	mov	r0, r8
    5e8a:	f7ff ff31 	bl	5cf0 <__multiply>
    5e8e:	2e00      	cmp	r6, #0
    5e90:	d01b      	beq.n	5eca <__pow5mult+0x86>
    5e92:	4642      	mov	r2, r8
    5e94:	6cd2      	ldr	r2, [r2, #76]	; 0x4c
    5e96:	6873      	ldr	r3, [r6, #4]
    5e98:	4694      	mov	ip, r2
    5e9a:	009b      	lsls	r3, r3, #2
    5e9c:	4463      	add	r3, ip
    5e9e:	681a      	ldr	r2, [r3, #0]
    5ea0:	1064      	asrs	r4, r4, #1
    5ea2:	6032      	str	r2, [r6, #0]
    5ea4:	601e      	str	r6, [r3, #0]
    5ea6:	0006      	movs	r6, r0
    5ea8:	2c00      	cmp	r4, #0
    5eaa:	d1e5      	bne.n	5e78 <__pow5mult+0x34>
    5eac:	0030      	movs	r0, r6
    5eae:	bc0c      	pop	{r2, r3}
    5eb0:	4690      	mov	r8, r2
    5eb2:	4699      	mov	r9, r3
    5eb4:	bdf8      	pop	{r3, r4, r5, r6, r7, pc}
    5eb6:	002a      	movs	r2, r5
    5eb8:	0029      	movs	r1, r5
    5eba:	4640      	mov	r0, r8
    5ebc:	f7ff ff18 	bl	5cf0 <__multiply>
    5ec0:	464b      	mov	r3, r9
    5ec2:	6028      	str	r0, [r5, #0]
    5ec4:	6003      	str	r3, [r0, #0]
    5ec6:	0005      	movs	r5, r0
    5ec8:	e7da      	b.n	5e80 <__pow5mult+0x3c>
    5eca:	0006      	movs	r6, r0
    5ecc:	e7d2      	b.n	5e74 <__pow5mult+0x30>
    5ece:	4a0b      	ldr	r2, [pc, #44]	; (5efc <__pow5mult+0xb8>)
    5ed0:	3b01      	subs	r3, #1
    5ed2:	009b      	lsls	r3, r3, #2
    5ed4:	589a      	ldr	r2, [r3, r2]
    5ed6:	2300      	movs	r3, #0
    5ed8:	f7ff fe72 	bl	5bc0 <__multadd>
    5edc:	0007      	movs	r7, r0
    5ede:	e7bb      	b.n	5e58 <__pow5mult+0x14>
    5ee0:	2101      	movs	r1, #1
    5ee2:	4640      	mov	r0, r8
    5ee4:	f7ff fe3a 	bl	5b5c <_Balloc>
    5ee8:	4b05      	ldr	r3, [pc, #20]	; (5f00 <__pow5mult+0xbc>)
    5eea:	0005      	movs	r5, r0
    5eec:	6143      	str	r3, [r0, #20]
    5eee:	2301      	movs	r3, #1
    5ef0:	6103      	str	r3, [r0, #16]
    5ef2:	4643      	mov	r3, r8
    5ef4:	6498      	str	r0, [r3, #72]	; 0x48
    5ef6:	2300      	movs	r3, #0
    5ef8:	6003      	str	r3, [r0, #0]
    5efa:	e7b5      	b.n	5e68 <__pow5mult+0x24>
    5efc:	000091e8 	.word	0x000091e8
    5f00:	00000271 	.word	0x00000271

00005f04 <__lshift>:
    5f04:	b5f8      	push	{r3, r4, r5, r6, r7, lr}
    5f06:	464e      	mov	r6, r9
    5f08:	4645      	mov	r5, r8
    5f0a:	46de      	mov	lr, fp
    5f0c:	4657      	mov	r7, sl
    5f0e:	b5e0      	push	{r5, r6, r7, lr}
    5f10:	000e      	movs	r6, r1
    5f12:	6933      	ldr	r3, [r6, #16]
    5f14:	1154      	asrs	r4, r2, #5
    5f16:	4698      	mov	r8, r3
    5f18:	44a0      	add	r8, r4
    5f1a:	4643      	mov	r3, r8
    5f1c:	1c5d      	adds	r5, r3, #1
    5f1e:	68b3      	ldr	r3, [r6, #8]
    5f20:	4683      	mov	fp, r0
    5f22:	4691      	mov	r9, r2
    5f24:	6849      	ldr	r1, [r1, #4]
    5f26:	429d      	cmp	r5, r3
    5f28:	dd03      	ble.n	5f32 <__lshift+0x2e>
    5f2a:	3101      	adds	r1, #1
    5f2c:	005b      	lsls	r3, r3, #1
    5f2e:	429d      	cmp	r5, r3
    5f30:	dcfb      	bgt.n	5f2a <__lshift+0x26>
    5f32:	4658      	mov	r0, fp
    5f34:	f7ff fe12 	bl	5b5c <_Balloc>
    5f38:	0003      	movs	r3, r0
    5f3a:	4684      	mov	ip, r0
    5f3c:	3314      	adds	r3, #20
    5f3e:	2c00      	cmp	r4, #0
    5f40:	dd06      	ble.n	5f50 <__lshift+0x4c>
    5f42:	2100      	movs	r1, #0
    5f44:	00a4      	lsls	r4, r4, #2
    5f46:	001a      	movs	r2, r3
    5f48:	191b      	adds	r3, r3, r4
    5f4a:	c202      	stmia	r2!, {r1}
    5f4c:	4293      	cmp	r3, r2
    5f4e:	d1fc      	bne.n	5f4a <__lshift+0x46>
    5f50:	6932      	ldr	r2, [r6, #16]
    5f52:	4648      	mov	r0, r9
    5f54:	0097      	lsls	r7, r2, #2
    5f56:	0031      	movs	r1, r6
    5f58:	221f      	movs	r2, #31
    5f5a:	3114      	adds	r1, #20
    5f5c:	4010      	ands	r0, r2
    5f5e:	19cf      	adds	r7, r1, r7
    5f60:	4681      	mov	r9, r0
    5f62:	2800      	cmp	r0, #0
    5f64:	d025      	beq.n	5fb2 <__lshift+0xae>
    5f66:	2220      	movs	r2, #32
    5f68:	1a12      	subs	r2, r2, r0
    5f6a:	4692      	mov	sl, r2
    5f6c:	2200      	movs	r2, #0
    5f6e:	4648      	mov	r0, r9
    5f70:	680c      	ldr	r4, [r1, #0]
    5f72:	4084      	lsls	r4, r0
    5f74:	4650      	mov	r0, sl
    5f76:	4314      	orrs	r4, r2
    5f78:	601c      	str	r4, [r3, #0]
    5f7a:	c904      	ldmia	r1!, {r2}
    5f7c:	3304      	adds	r3, #4
    5f7e:	40c2      	lsrs	r2, r0
    5f80:	428f      	cmp	r7, r1
    5f82:	d8f4      	bhi.n	5f6e <__lshift+0x6a>
    5f84:	601a      	str	r2, [r3, #0]
    5f86:	2a00      	cmp	r2, #0
    5f88:	d001      	beq.n	5f8e <__lshift+0x8a>
    5f8a:	4645      	mov	r5, r8
    5f8c:	3502      	adds	r5, #2
    5f8e:	4663      	mov	r3, ip
    5f90:	3d01      	subs	r5, #1
    5f92:	611d      	str	r5, [r3, #16]
    5f94:	6873      	ldr	r3, [r6, #4]
    5f96:	4660      	mov	r0, ip
    5f98:	009a      	lsls	r2, r3, #2
    5f9a:	465b      	mov	r3, fp
    5f9c:	6cdb      	ldr	r3, [r3, #76]	; 0x4c
    5f9e:	189b      	adds	r3, r3, r2
    5fa0:	681a      	ldr	r2, [r3, #0]
    5fa2:	6032      	str	r2, [r6, #0]
    5fa4:	601e      	str	r6, [r3, #0]
    5fa6:	bc3c      	pop	{r2, r3, r4, r5}
    5fa8:	4690      	mov	r8, r2
    5faa:	4699      	mov	r9, r3
    5fac:	46a2      	mov	sl, r4
    5fae:	46ab      	mov	fp, r5
    5fb0:	bdf8      	pop	{r3, r4, r5, r6, r7, pc}
    5fb2:	c904      	ldmia	r1!, {r2}
    5fb4:	c304      	stmia	r3!, {r2}
    5fb6:	428f      	cmp	r7, r1
    5fb8:	d9e9      	bls.n	5f8e <__lshift+0x8a>
    5fba:	c904      	ldmia	r1!, {r2}
    5fbc:	c304      	stmia	r3!, {r2}
    5fbe:	428f      	cmp	r7, r1
    5fc0:	d8f7      	bhi.n	5fb2 <__lshift+0xae>
    5fc2:	e7e4      	b.n	5f8e <__lshift+0x8a>

00005fc4 <__mcmp>:
    5fc4:	690a      	ldr	r2, [r1, #16]
    5fc6:	6903      	ldr	r3, [r0, #16]
    5fc8:	b530      	push	{r4, r5, lr}
    5fca:	0005      	movs	r5, r0
    5fcc:	1a98      	subs	r0, r3, r2
    5fce:	d111      	bne.n	5ff4 <__mcmp+0x30>
    5fd0:	0092      	lsls	r2, r2, #2
    5fd2:	3514      	adds	r5, #20
    5fd4:	3114      	adds	r1, #20
    5fd6:	18ab      	adds	r3, r5, r2
    5fd8:	1889      	adds	r1, r1, r2
    5fda:	e001      	b.n	5fe0 <__mcmp+0x1c>
    5fdc:	429d      	cmp	r5, r3
    5fde:	d209      	bcs.n	5ff4 <__mcmp+0x30>
    5fe0:	3b04      	subs	r3, #4
    5fe2:	3904      	subs	r1, #4
    5fe4:	681c      	ldr	r4, [r3, #0]
    5fe6:	680a      	ldr	r2, [r1, #0]
    5fe8:	4294      	cmp	r4, r2
    5fea:	d0f7      	beq.n	5fdc <__mcmp+0x18>
    5fec:	4294      	cmp	r4, r2
    5fee:	4180      	sbcs	r0, r0
    5ff0:	2201      	movs	r2, #1
    5ff2:	4310      	orrs	r0, r2
    5ff4:	bd30      	pop	{r4, r5, pc}
    5ff6:	46c0      	nop			; (mov r8, r8)

00005ff8 <__mdiff>:
    5ff8:	b5f8      	push	{r3, r4, r5, r6, r7, lr}
    5ffa:	4645      	mov	r5, r8
    5ffc:	46de      	mov	lr, fp
    5ffe:	4657      	mov	r7, sl
    6000:	464e      	mov	r6, r9
    6002:	0014      	movs	r4, r2
    6004:	690b      	ldr	r3, [r1, #16]
    6006:	6912      	ldr	r2, [r2, #16]
    6008:	b5e0      	push	{r5, r6, r7, lr}
    600a:	4688      	mov	r8, r1
    600c:	1a9d      	subs	r5, r3, r2
    600e:	d11a      	bne.n	6046 <__mdiff+0x4e>
    6010:	000f      	movs	r7, r1
    6012:	2114      	movs	r1, #20
    6014:	468c      	mov	ip, r1
    6016:	0092      	lsls	r2, r2, #2
    6018:	3714      	adds	r7, #20
    601a:	44a4      	add	ip, r4
    601c:	18bb      	adds	r3, r7, r2
    601e:	4462      	add	r2, ip
    6020:	e002      	b.n	6028 <__mdiff+0x30>
    6022:	429f      	cmp	r7, r3
    6024:	d300      	bcc.n	6028 <__mdiff+0x30>
    6026:	e070      	b.n	610a <__mdiff+0x112>
    6028:	3b04      	subs	r3, #4
    602a:	3a04      	subs	r2, #4
    602c:	681e      	ldr	r6, [r3, #0]
    602e:	6811      	ldr	r1, [r2, #0]
    6030:	428e      	cmp	r6, r1
    6032:	d0f6      	beq.n	6022 <__mdiff+0x2a>
    6034:	d300      	bcc.n	6038 <__mdiff+0x40>
    6036:	e071      	b.n	611c <__mdiff+0x124>
    6038:	4643      	mov	r3, r8
    603a:	003e      	movs	r6, r7
    603c:	46a0      	mov	r8, r4
    603e:	4667      	mov	r7, ip
    6040:	001c      	movs	r4, r3
    6042:	2501      	movs	r5, #1
    6044:	e006      	b.n	6054 <__mdiff+0x5c>
    6046:	2d00      	cmp	r5, #0
    6048:	db6a      	blt.n	6120 <__mdiff+0x128>
    604a:	4647      	mov	r7, r8
    604c:	0026      	movs	r6, r4
    604e:	2500      	movs	r5, #0
    6050:	3714      	adds	r7, #20
    6052:	3614      	adds	r6, #20
    6054:	4643      	mov	r3, r8
    6056:	6859      	ldr	r1, [r3, #4]
    6058:	f7ff fd80 	bl	5b5c <_Balloc>
    605c:	4643      	mov	r3, r8
    605e:	4681      	mov	r9, r0
    6060:	60c5      	str	r5, [r0, #12]
    6062:	6918      	ldr	r0, [r3, #16]
    6064:	464d      	mov	r5, r9
    6066:	0083      	lsls	r3, r0, #2
    6068:	469c      	mov	ip, r3
    606a:	6923      	ldr	r3, [r4, #16]
    606c:	44bc      	add	ip, r7
    606e:	009b      	lsls	r3, r3, #2
    6070:	4698      	mov	r8, r3
    6072:	2300      	movs	r3, #0
    6074:	44b0      	add	r8, r6
    6076:	3514      	adds	r5, #20
    6078:	469a      	mov	sl, r3
    607a:	e000      	b.n	607e <__mdiff+0x86>
    607c:	0027      	movs	r7, r4
    607e:	ce04      	ldmia	r6!, {r2}
    6080:	003c      	movs	r4, r7
    6082:	4693      	mov	fp, r2
    6084:	4659      	mov	r1, fp
    6086:	cc08      	ldmia	r4!, {r3}
    6088:	0409      	lsls	r1, r1, #16
    608a:	041a      	lsls	r2, r3, #16
    608c:	0c12      	lsrs	r2, r2, #16
    608e:	4452      	add	r2, sl
    6090:	0c09      	lsrs	r1, r1, #16
    6092:	1a52      	subs	r2, r2, r1
    6094:	0c19      	lsrs	r1, r3, #16
    6096:	465b      	mov	r3, fp
    6098:	0c1b      	lsrs	r3, r3, #16
    609a:	1acb      	subs	r3, r1, r3
    609c:	1411      	asrs	r1, r2, #16
    609e:	185b      	adds	r3, r3, r1
    60a0:	0412      	lsls	r2, r2, #16
    60a2:	1419      	asrs	r1, r3, #16
    60a4:	0c12      	lsrs	r2, r2, #16
    60a6:	041b      	lsls	r3, r3, #16
    60a8:	468a      	mov	sl, r1
    60aa:	4313      	orrs	r3, r2
    60ac:	1d29      	adds	r1, r5, #4
    60ae:	602b      	str	r3, [r5, #0]
    60b0:	000d      	movs	r5, r1
    60b2:	45b0      	cmp	r8, r6
    60b4:	d8e2      	bhi.n	607c <__mdiff+0x84>
    60b6:	45a4      	cmp	ip, r4
    60b8:	d916      	bls.n	60e8 <__mdiff+0xf0>
    60ba:	cc08      	ldmia	r4!, {r3}
    60bc:	041a      	lsls	r2, r3, #16
    60be:	0c12      	lsrs	r2, r2, #16
    60c0:	4452      	add	r2, sl
    60c2:	1416      	asrs	r6, r2, #16
    60c4:	0c1b      	lsrs	r3, r3, #16
    60c6:	199b      	adds	r3, r3, r6
    60c8:	0412      	lsls	r2, r2, #16
    60ca:	141e      	asrs	r6, r3, #16
    60cc:	0c12      	lsrs	r2, r2, #16
    60ce:	041b      	lsls	r3, r3, #16
    60d0:	4313      	orrs	r3, r2
    60d2:	46b2      	mov	sl, r6
    60d4:	c508      	stmia	r5!, {r3}
    60d6:	45a4      	cmp	ip, r4
    60d8:	d8ef      	bhi.n	60ba <__mdiff+0xc2>
    60da:	4662      	mov	r2, ip
    60dc:	2403      	movs	r4, #3
    60de:	1bd2      	subs	r2, r2, r7
    60e0:	3a05      	subs	r2, #5
    60e2:	43a2      	bics	r2, r4
    60e4:	3204      	adds	r2, #4
    60e6:	1889      	adds	r1, r1, r2
    60e8:	3904      	subs	r1, #4
    60ea:	2b00      	cmp	r3, #0
    60ec:	d104      	bne.n	60f8 <__mdiff+0x100>
    60ee:	3904      	subs	r1, #4
    60f0:	680b      	ldr	r3, [r1, #0]
    60f2:	3801      	subs	r0, #1
    60f4:	2b00      	cmp	r3, #0
    60f6:	d0fa      	beq.n	60ee <__mdiff+0xf6>
    60f8:	464b      	mov	r3, r9
    60fa:	6118      	str	r0, [r3, #16]
    60fc:	4648      	mov	r0, r9
    60fe:	bc3c      	pop	{r2, r3, r4, r5}
    6100:	4690      	mov	r8, r2
    6102:	4699      	mov	r9, r3
    6104:	46a2      	mov	sl, r4
    6106:	46ab      	mov	fp, r5
    6108:	bdf8      	pop	{r3, r4, r5, r6, r7, pc}
    610a:	2100      	movs	r1, #0
    610c:	f7ff fd26 	bl	5b5c <_Balloc>
    6110:	2301      	movs	r3, #1
    6112:	6103      	str	r3, [r0, #16]
    6114:	2300      	movs	r3, #0
    6116:	4681      	mov	r9, r0
    6118:	6143      	str	r3, [r0, #20]
    611a:	e7ef      	b.n	60fc <__mdiff+0x104>
    611c:	4666      	mov	r6, ip
    611e:	e799      	b.n	6054 <__mdiff+0x5c>
    6120:	0027      	movs	r7, r4
    6122:	000e      	movs	r6, r1
    6124:	46a0      	mov	r8, r4
    6126:	3714      	adds	r7, #20
    6128:	3614      	adds	r6, #20
    612a:	000c      	movs	r4, r1
    612c:	2501      	movs	r5, #1
    612e:	e791      	b.n	6054 <__mdiff+0x5c>

00006130 <__d2b>:
    6130:	b5f0      	push	{r4, r5, r6, r7, lr}
    6132:	2101      	movs	r1, #1
    6134:	001c      	movs	r4, r3
    6136:	b083      	sub	sp, #12
    6138:	9e08      	ldr	r6, [sp, #32]
    613a:	0015      	movs	r5, r2
    613c:	f7ff fd0e 	bl	5b5c <_Balloc>
    6140:	0323      	lsls	r3, r4, #12
    6142:	0064      	lsls	r4, r4, #1
    6144:	0007      	movs	r7, r0
    6146:	0b1b      	lsrs	r3, r3, #12
    6148:	0d64      	lsrs	r4, r4, #21
    614a:	d002      	beq.n	6152 <__d2b+0x22>
    614c:	2280      	movs	r2, #128	; 0x80
    614e:	0352      	lsls	r2, r2, #13
    6150:	4313      	orrs	r3, r2
    6152:	9301      	str	r3, [sp, #4]
    6154:	2d00      	cmp	r5, #0
    6156:	d019      	beq.n	618c <__d2b+0x5c>
    6158:	4668      	mov	r0, sp
    615a:	9500      	str	r5, [sp, #0]
    615c:	f7ff fd90 	bl	5c80 <__lo0bits>
    6160:	2800      	cmp	r0, #0
    6162:	d130      	bne.n	61c6 <__d2b+0x96>
    6164:	9b00      	ldr	r3, [sp, #0]
    6166:	617b      	str	r3, [r7, #20]
    6168:	9b01      	ldr	r3, [sp, #4]
    616a:	61bb      	str	r3, [r7, #24]
    616c:	1e5a      	subs	r2, r3, #1
    616e:	4193      	sbcs	r3, r2
    6170:	1c5d      	adds	r5, r3, #1
    6172:	613d      	str	r5, [r7, #16]
    6174:	2c00      	cmp	r4, #0
    6176:	d014      	beq.n	61a2 <__d2b+0x72>
    6178:	4b19      	ldr	r3, [pc, #100]	; (61e0 <__d2b+0xb0>)
    617a:	469c      	mov	ip, r3
    617c:	2335      	movs	r3, #53	; 0x35
    617e:	4464      	add	r4, ip
    6180:	1824      	adds	r4, r4, r0
    6182:	1a18      	subs	r0, r3, r0
    6184:	9b09      	ldr	r3, [sp, #36]	; 0x24
    6186:	6034      	str	r4, [r6, #0]
    6188:	6018      	str	r0, [r3, #0]
    618a:	e019      	b.n	61c0 <__d2b+0x90>
    618c:	a801      	add	r0, sp, #4
    618e:	f7ff fd77 	bl	5c80 <__lo0bits>
    6192:	9b01      	ldr	r3, [sp, #4]
    6194:	3020      	adds	r0, #32
    6196:	617b      	str	r3, [r7, #20]
    6198:	2301      	movs	r3, #1
    619a:	2501      	movs	r5, #1
    619c:	613b      	str	r3, [r7, #16]
    619e:	2c00      	cmp	r4, #0
    61a0:	d1ea      	bne.n	6178 <__d2b+0x48>
    61a2:	4b10      	ldr	r3, [pc, #64]	; (61e4 <__d2b+0xb4>)
    61a4:	469c      	mov	ip, r3
    61a6:	4b10      	ldr	r3, [pc, #64]	; (61e8 <__d2b+0xb8>)
    61a8:	4460      	add	r0, ip
    61aa:	18eb      	adds	r3, r5, r3
    61ac:	009b      	lsls	r3, r3, #2
    61ae:	18fb      	adds	r3, r7, r3
    61b0:	6030      	str	r0, [r6, #0]
    61b2:	6958      	ldr	r0, [r3, #20]
    61b4:	f7ff fd4a 	bl	5c4c <__hi0bits>
    61b8:	016b      	lsls	r3, r5, #5
    61ba:	1a18      	subs	r0, r3, r0
    61bc:	9b09      	ldr	r3, [sp, #36]	; 0x24
    61be:	6018      	str	r0, [r3, #0]
    61c0:	0038      	movs	r0, r7
    61c2:	b003      	add	sp, #12
    61c4:	bdf0      	pop	{r4, r5, r6, r7, pc}
    61c6:	9b01      	ldr	r3, [sp, #4]
    61c8:	2220      	movs	r2, #32
    61ca:	0019      	movs	r1, r3
    61cc:	1a12      	subs	r2, r2, r0
    61ce:	4091      	lsls	r1, r2
    61d0:	000a      	movs	r2, r1
    61d2:	40c3      	lsrs	r3, r0
    61d4:	9900      	ldr	r1, [sp, #0]
    61d6:	9301      	str	r3, [sp, #4]
    61d8:	430a      	orrs	r2, r1
    61da:	617a      	str	r2, [r7, #20]
    61dc:	e7c5      	b.n	616a <__d2b+0x3a>
    61de:	46c0      	nop			; (mov r8, r8)
    61e0:	fffffbcd 	.word	0xfffffbcd
    61e4:	fffffbce 	.word	0xfffffbce
    61e8:	3fffffff 	.word	0x3fffffff

000061ec <_sbrk_r>:
    61ec:	2300      	movs	r3, #0
    61ee:	b570      	push	{r4, r5, r6, lr}
    61f0:	4c06      	ldr	r4, [pc, #24]	; (620c <_sbrk_r+0x20>)
    61f2:	0005      	movs	r5, r0
    61f4:	0008      	movs	r0, r1
    61f6:	6023      	str	r3, [r4, #0]
    61f8:	f7fb fbfe 	bl	19f8 <_sbrk>
    61fc:	1c43      	adds	r3, r0, #1
    61fe:	d000      	beq.n	6202 <_sbrk_r+0x16>
    6200:	bd70      	pop	{r4, r5, r6, pc}
    6202:	6823      	ldr	r3, [r4, #0]
    6204:	2b00      	cmp	r3, #0
    6206:	d0fb      	beq.n	6200 <_sbrk_r+0x14>
    6208:	602b      	str	r3, [r5, #0]
    620a:	e7f9      	b.n	6200 <_sbrk_r+0x14>
    620c:	20000fa0 	.word	0x20000fa0

00006210 <strlen>:
    6210:	b510      	push	{r4, lr}
    6212:	0783      	lsls	r3, r0, #30
    6214:	d025      	beq.n	6262 <strlen+0x52>
    6216:	7803      	ldrb	r3, [r0, #0]
    6218:	2b00      	cmp	r3, #0
    621a:	d024      	beq.n	6266 <strlen+0x56>
    621c:	0003      	movs	r3, r0
    621e:	2103      	movs	r1, #3
    6220:	e002      	b.n	6228 <strlen+0x18>
    6222:	781a      	ldrb	r2, [r3, #0]
    6224:	2a00      	cmp	r2, #0
    6226:	d01a      	beq.n	625e <strlen+0x4e>
    6228:	3301      	adds	r3, #1
    622a:	420b      	tst	r3, r1
    622c:	d1f9      	bne.n	6222 <strlen+0x12>
    622e:	6819      	ldr	r1, [r3, #0]
    6230:	4a0e      	ldr	r2, [pc, #56]	; (626c <strlen+0x5c>)
    6232:	4c0f      	ldr	r4, [pc, #60]	; (6270 <strlen+0x60>)
    6234:	188a      	adds	r2, r1, r2
    6236:	438a      	bics	r2, r1
    6238:	4222      	tst	r2, r4
    623a:	d106      	bne.n	624a <strlen+0x3a>
    623c:	3304      	adds	r3, #4
    623e:	6819      	ldr	r1, [r3, #0]
    6240:	4a0a      	ldr	r2, [pc, #40]	; (626c <strlen+0x5c>)
    6242:	188a      	adds	r2, r1, r2
    6244:	438a      	bics	r2, r1
    6246:	4222      	tst	r2, r4
    6248:	d0f8      	beq.n	623c <strlen+0x2c>
    624a:	001a      	movs	r2, r3
    624c:	781b      	ldrb	r3, [r3, #0]
    624e:	2b00      	cmp	r3, #0
    6250:	d003      	beq.n	625a <strlen+0x4a>
    6252:	3201      	adds	r2, #1
    6254:	7811      	ldrb	r1, [r2, #0]
    6256:	2900      	cmp	r1, #0
    6258:	d1fb      	bne.n	6252 <strlen+0x42>
    625a:	1a10      	subs	r0, r2, r0
    625c:	bd10      	pop	{r4, pc}
    625e:	1a18      	subs	r0, r3, r0
    6260:	e7fc      	b.n	625c <strlen+0x4c>
    6262:	0003      	movs	r3, r0
    6264:	e7e3      	b.n	622e <strlen+0x1e>
    6266:	2000      	movs	r0, #0
    6268:	e7f8      	b.n	625c <strlen+0x4c>
    626a:	46c0      	nop			; (mov r8, r8)
    626c:	fefefeff 	.word	0xfefefeff
    6270:	80808080 	.word	0x80808080

00006274 <__ssprint_r>:
    6274:	b5f0      	push	{r4, r5, r6, r7, lr}
    6276:	4657      	mov	r7, sl
    6278:	464e      	mov	r6, r9
    627a:	46de      	mov	lr, fp
    627c:	4645      	mov	r5, r8
    627e:	b5e0      	push	{r5, r6, r7, lr}
    6280:	6893      	ldr	r3, [r2, #8]
    6282:	b083      	sub	sp, #12
    6284:	9001      	str	r0, [sp, #4]
    6286:	000e      	movs	r6, r1
    6288:	4692      	mov	sl, r2
    628a:	2b00      	cmp	r3, #0
    628c:	d070      	beq.n	6370 <__ssprint_r+0xfc>
    628e:	688d      	ldr	r5, [r1, #8]
    6290:	6813      	ldr	r3, [r2, #0]
    6292:	002c      	movs	r4, r5
    6294:	6808      	ldr	r0, [r1, #0]
    6296:	001d      	movs	r5, r3
    6298:	e046      	b.n	6328 <__ssprint_r+0xb4>
    629a:	2290      	movs	r2, #144	; 0x90
    629c:	89b3      	ldrh	r3, [r6, #12]
    629e:	00d2      	lsls	r2, r2, #3
    62a0:	4213      	tst	r3, r2
    62a2:	d030      	beq.n	6306 <__ssprint_r+0x92>
    62a4:	6931      	ldr	r1, [r6, #16]
    62a6:	1a42      	subs	r2, r0, r1
    62a8:	4693      	mov	fp, r2
    62aa:	6970      	ldr	r0, [r6, #20]
    62ac:	0042      	lsls	r2, r0, #1
    62ae:	1812      	adds	r2, r2, r0
    62b0:	0fd0      	lsrs	r0, r2, #31
    62b2:	1882      	adds	r2, r0, r2
    62b4:	1052      	asrs	r2, r2, #1
    62b6:	4690      	mov	r8, r2
    62b8:	465a      	mov	r2, fp
    62ba:	1c50      	adds	r0, r2, #1
    62bc:	19c0      	adds	r0, r0, r7
    62be:	4642      	mov	r2, r8
    62c0:	4540      	cmp	r0, r8
    62c2:	d901      	bls.n	62c8 <__ssprint_r+0x54>
    62c4:	4680      	mov	r8, r0
    62c6:	0002      	movs	r2, r0
    62c8:	2080      	movs	r0, #128	; 0x80
    62ca:	00c0      	lsls	r0, r0, #3
    62cc:	4203      	tst	r3, r0
    62ce:	d038      	beq.n	6342 <__ssprint_r+0xce>
    62d0:	0011      	movs	r1, r2
    62d2:	9801      	ldr	r0, [sp, #4]
    62d4:	f7ff f8fc 	bl	54d0 <_malloc_r>
    62d8:	1e04      	subs	r4, r0, #0
    62da:	d054      	beq.n	6386 <__ssprint_r+0x112>
    62dc:	465a      	mov	r2, fp
    62de:	6931      	ldr	r1, [r6, #16]
    62e0:	f7ff fbea 	bl	5ab8 <memcpy>
    62e4:	89b3      	ldrh	r3, [r6, #12]
    62e6:	4a2a      	ldr	r2, [pc, #168]	; (6390 <__ssprint_r+0x11c>)
    62e8:	4013      	ands	r3, r2
    62ea:	2280      	movs	r2, #128	; 0x80
    62ec:	4313      	orrs	r3, r2
    62ee:	81b3      	strh	r3, [r6, #12]
    62f0:	4643      	mov	r3, r8
    62f2:	0020      	movs	r0, r4
    62f4:	465a      	mov	r2, fp
    62f6:	6134      	str	r4, [r6, #16]
    62f8:	46b8      	mov	r8, r7
    62fa:	003c      	movs	r4, r7
    62fc:	4458      	add	r0, fp
    62fe:	6173      	str	r3, [r6, #20]
    6300:	1a9b      	subs	r3, r3, r2
    6302:	6030      	str	r0, [r6, #0]
    6304:	60b3      	str	r3, [r6, #8]
    6306:	4642      	mov	r2, r8
    6308:	4649      	mov	r1, r9
    630a:	f000 fa2d 	bl	6768 <memmove>
    630e:	68b3      	ldr	r3, [r6, #8]
    6310:	1b1c      	subs	r4, r3, r4
    6312:	6833      	ldr	r3, [r6, #0]
    6314:	60b4      	str	r4, [r6, #8]
    6316:	4443      	add	r3, r8
    6318:	6033      	str	r3, [r6, #0]
    631a:	0018      	movs	r0, r3
    631c:	4653      	mov	r3, sl
    631e:	689b      	ldr	r3, [r3, #8]
    6320:	1bdf      	subs	r7, r3, r7
    6322:	4653      	mov	r3, sl
    6324:	609f      	str	r7, [r3, #8]
    6326:	d023      	beq.n	6370 <__ssprint_r+0xfc>
    6328:	686f      	ldr	r7, [r5, #4]
    632a:	002b      	movs	r3, r5
    632c:	3508      	adds	r5, #8
    632e:	2f00      	cmp	r7, #0
    6330:	d0fa      	beq.n	6328 <__ssprint_r+0xb4>
    6332:	681b      	ldr	r3, [r3, #0]
    6334:	46a0      	mov	r8, r4
    6336:	4699      	mov	r9, r3
    6338:	42a7      	cmp	r7, r4
    633a:	d2ae      	bcs.n	629a <__ssprint_r+0x26>
    633c:	003c      	movs	r4, r7
    633e:	46b8      	mov	r8, r7
    6340:	e7e1      	b.n	6306 <__ssprint_r+0x92>
    6342:	9801      	ldr	r0, [sp, #4]
    6344:	f000 fa60 	bl	6808 <_realloc_r>
    6348:	1e04      	subs	r4, r0, #0
    634a:	d1d1      	bne.n	62f0 <__ssprint_r+0x7c>
    634c:	9c01      	ldr	r4, [sp, #4]
    634e:	6931      	ldr	r1, [r6, #16]
    6350:	0020      	movs	r0, r4
    6352:	f000 f915 	bl	6580 <_free_r>
    6356:	230c      	movs	r3, #12
    6358:	6023      	str	r3, [r4, #0]
    635a:	2240      	movs	r2, #64	; 0x40
    635c:	89b3      	ldrh	r3, [r6, #12]
    635e:	2001      	movs	r0, #1
    6360:	4313      	orrs	r3, r2
    6362:	81b3      	strh	r3, [r6, #12]
    6364:	4652      	mov	r2, sl
    6366:	2300      	movs	r3, #0
    6368:	4240      	negs	r0, r0
    636a:	6093      	str	r3, [r2, #8]
    636c:	6053      	str	r3, [r2, #4]
    636e:	e003      	b.n	6378 <__ssprint_r+0x104>
    6370:	2300      	movs	r3, #0
    6372:	4652      	mov	r2, sl
    6374:	2000      	movs	r0, #0
    6376:	6053      	str	r3, [r2, #4]
    6378:	b003      	add	sp, #12
    637a:	bc3c      	pop	{r2, r3, r4, r5}
    637c:	4690      	mov	r8, r2
    637e:	4699      	mov	r9, r3
    6380:	46a2      	mov	sl, r4
    6382:	46ab      	mov	fp, r5
    6384:	bdf0      	pop	{r4, r5, r6, r7, pc}
    6386:	230c      	movs	r3, #12
    6388:	9a01      	ldr	r2, [sp, #4]
    638a:	6013      	str	r3, [r2, #0]
    638c:	e7e5      	b.n	635a <__ssprint_r+0xe6>
    638e:	46c0      	nop			; (mov r8, r8)
    6390:	fffffb7f 	.word	0xfffffb7f

00006394 <__register_exitproc>:
    6394:	b5f0      	push	{r4, r5, r6, r7, lr}
    6396:	464e      	mov	r6, r9
    6398:	4645      	mov	r5, r8
    639a:	46de      	mov	lr, fp
    639c:	4657      	mov	r7, sl
    639e:	b5e0      	push	{r5, r6, r7, lr}
    63a0:	4d36      	ldr	r5, [pc, #216]	; (647c <__register_exitproc+0xe8>)
    63a2:	b083      	sub	sp, #12
    63a4:	0006      	movs	r6, r0
    63a6:	6828      	ldr	r0, [r5, #0]
    63a8:	4698      	mov	r8, r3
    63aa:	000f      	movs	r7, r1
    63ac:	4691      	mov	r9, r2
    63ae:	f7ff f88b 	bl	54c8 <__retarget_lock_acquire_recursive>
    63b2:	4b33      	ldr	r3, [pc, #204]	; (6480 <__register_exitproc+0xec>)
    63b4:	681c      	ldr	r4, [r3, #0]
    63b6:	23a4      	movs	r3, #164	; 0xa4
    63b8:	005b      	lsls	r3, r3, #1
    63ba:	58e0      	ldr	r0, [r4, r3]
    63bc:	2800      	cmp	r0, #0
    63be:	d052      	beq.n	6466 <__register_exitproc+0xd2>
    63c0:	6843      	ldr	r3, [r0, #4]
    63c2:	2b1f      	cmp	r3, #31
    63c4:	dc13      	bgt.n	63ee <__register_exitproc+0x5a>
    63c6:	1c5a      	adds	r2, r3, #1
    63c8:	9201      	str	r2, [sp, #4]
    63ca:	2e00      	cmp	r6, #0
    63cc:	d128      	bne.n	6420 <__register_exitproc+0x8c>
    63ce:	9a01      	ldr	r2, [sp, #4]
    63d0:	3302      	adds	r3, #2
    63d2:	009b      	lsls	r3, r3, #2
    63d4:	6042      	str	r2, [r0, #4]
    63d6:	501f      	str	r7, [r3, r0]
    63d8:	6828      	ldr	r0, [r5, #0]
    63da:	f7ff f877 	bl	54cc <__retarget_lock_release_recursive>
    63de:	2000      	movs	r0, #0
    63e0:	b003      	add	sp, #12
    63e2:	bc3c      	pop	{r2, r3, r4, r5}
    63e4:	4690      	mov	r8, r2
    63e6:	4699      	mov	r9, r3
    63e8:	46a2      	mov	sl, r4
    63ea:	46ab      	mov	fp, r5
    63ec:	bdf0      	pop	{r4, r5, r6, r7, pc}
    63ee:	4b25      	ldr	r3, [pc, #148]	; (6484 <__register_exitproc+0xf0>)
    63f0:	2b00      	cmp	r3, #0
    63f2:	d03d      	beq.n	6470 <__register_exitproc+0xdc>
    63f4:	20c8      	movs	r0, #200	; 0xc8
    63f6:	0040      	lsls	r0, r0, #1
    63f8:	e000      	b.n	63fc <__register_exitproc+0x68>
    63fa:	bf00      	nop
    63fc:	2800      	cmp	r0, #0
    63fe:	d037      	beq.n	6470 <__register_exitproc+0xdc>
    6400:	22a4      	movs	r2, #164	; 0xa4
    6402:	2300      	movs	r3, #0
    6404:	0052      	lsls	r2, r2, #1
    6406:	58a1      	ldr	r1, [r4, r2]
    6408:	6043      	str	r3, [r0, #4]
    640a:	6001      	str	r1, [r0, #0]
    640c:	50a0      	str	r0, [r4, r2]
    640e:	3240      	adds	r2, #64	; 0x40
    6410:	5083      	str	r3, [r0, r2]
    6412:	3204      	adds	r2, #4
    6414:	5083      	str	r3, [r0, r2]
    6416:	3301      	adds	r3, #1
    6418:	9301      	str	r3, [sp, #4]
    641a:	2300      	movs	r3, #0
    641c:	2e00      	cmp	r6, #0
    641e:	d0d6      	beq.n	63ce <__register_exitproc+0x3a>
    6420:	009a      	lsls	r2, r3, #2
    6422:	4692      	mov	sl, r2
    6424:	4482      	add	sl, r0
    6426:	464a      	mov	r2, r9
    6428:	2188      	movs	r1, #136	; 0x88
    642a:	4654      	mov	r4, sl
    642c:	5062      	str	r2, [r4, r1]
    642e:	22c4      	movs	r2, #196	; 0xc4
    6430:	0052      	lsls	r2, r2, #1
    6432:	4691      	mov	r9, r2
    6434:	4481      	add	r9, r0
    6436:	464a      	mov	r2, r9
    6438:	3987      	subs	r1, #135	; 0x87
    643a:	4099      	lsls	r1, r3
    643c:	6812      	ldr	r2, [r2, #0]
    643e:	468b      	mov	fp, r1
    6440:	430a      	orrs	r2, r1
    6442:	4694      	mov	ip, r2
    6444:	464a      	mov	r2, r9
    6446:	4661      	mov	r1, ip
    6448:	6011      	str	r1, [r2, #0]
    644a:	2284      	movs	r2, #132	; 0x84
    644c:	4641      	mov	r1, r8
    644e:	0052      	lsls	r2, r2, #1
    6450:	50a1      	str	r1, [r4, r2]
    6452:	2e02      	cmp	r6, #2
    6454:	d1bb      	bne.n	63ce <__register_exitproc+0x3a>
    6456:	0002      	movs	r2, r0
    6458:	465c      	mov	r4, fp
    645a:	328d      	adds	r2, #141	; 0x8d
    645c:	32ff      	adds	r2, #255	; 0xff
    645e:	6811      	ldr	r1, [r2, #0]
    6460:	430c      	orrs	r4, r1
    6462:	6014      	str	r4, [r2, #0]
    6464:	e7b3      	b.n	63ce <__register_exitproc+0x3a>
    6466:	0020      	movs	r0, r4
    6468:	304d      	adds	r0, #77	; 0x4d
    646a:	30ff      	adds	r0, #255	; 0xff
    646c:	50e0      	str	r0, [r4, r3]
    646e:	e7a7      	b.n	63c0 <__register_exitproc+0x2c>
    6470:	6828      	ldr	r0, [r5, #0]
    6472:	f7ff f82b 	bl	54cc <__retarget_lock_release_recursive>
    6476:	2001      	movs	r0, #1
    6478:	4240      	negs	r0, r0
    647a:	e7b1      	b.n	63e0 <__register_exitproc+0x4c>
    647c:	20000740 	.word	0x20000740
    6480:	00008ef4 	.word	0x00008ef4
    6484:	00000000 	.word	0x00000000

00006488 <_calloc_r>:
    6488:	b510      	push	{r4, lr}
    648a:	4351      	muls	r1, r2
    648c:	f7ff f820 	bl	54d0 <_malloc_r>
    6490:	1e04      	subs	r4, r0, #0
    6492:	d01c      	beq.n	64ce <_calloc_r+0x46>
    6494:	0003      	movs	r3, r0
    6496:	3b08      	subs	r3, #8
    6498:	685a      	ldr	r2, [r3, #4]
    649a:	2303      	movs	r3, #3
    649c:	439a      	bics	r2, r3
    649e:	3a04      	subs	r2, #4
    64a0:	2a24      	cmp	r2, #36	; 0x24
    64a2:	d816      	bhi.n	64d2 <_calloc_r+0x4a>
    64a4:	0003      	movs	r3, r0
    64a6:	2a13      	cmp	r2, #19
    64a8:	d90d      	bls.n	64c6 <_calloc_r+0x3e>
    64aa:	2100      	movs	r1, #0
    64ac:	3308      	adds	r3, #8
    64ae:	6001      	str	r1, [r0, #0]
    64b0:	6041      	str	r1, [r0, #4]
    64b2:	2a1b      	cmp	r2, #27
    64b4:	d907      	bls.n	64c6 <_calloc_r+0x3e>
    64b6:	6081      	str	r1, [r0, #8]
    64b8:	60c1      	str	r1, [r0, #12]
    64ba:	2a24      	cmp	r2, #36	; 0x24
    64bc:	d10d      	bne.n	64da <_calloc_r+0x52>
    64be:	0003      	movs	r3, r0
    64c0:	6101      	str	r1, [r0, #16]
    64c2:	3318      	adds	r3, #24
    64c4:	6141      	str	r1, [r0, #20]
    64c6:	2200      	movs	r2, #0
    64c8:	601a      	str	r2, [r3, #0]
    64ca:	605a      	str	r2, [r3, #4]
    64cc:	609a      	str	r2, [r3, #8]
    64ce:	0020      	movs	r0, r4
    64d0:	bd10      	pop	{r4, pc}
    64d2:	2100      	movs	r1, #0
    64d4:	f7fc fb94 	bl	2c00 <memset>
    64d8:	e7f9      	b.n	64ce <_calloc_r+0x46>
    64da:	0003      	movs	r3, r0
    64dc:	3310      	adds	r3, #16
    64de:	e7f2      	b.n	64c6 <_calloc_r+0x3e>

000064e0 <_malloc_trim_r>:
    64e0:	b5f8      	push	{r3, r4, r5, r6, r7, lr}
    64e2:	000c      	movs	r4, r1
    64e4:	0006      	movs	r6, r0
    64e6:	f7ff fb29 	bl	5b3c <__malloc_lock>
    64ea:	4f20      	ldr	r7, [pc, #128]	; (656c <_malloc_trim_r+0x8c>)
    64ec:	68bb      	ldr	r3, [r7, #8]
    64ee:	685d      	ldr	r5, [r3, #4]
    64f0:	2303      	movs	r3, #3
    64f2:	439d      	bics	r5, r3
    64f4:	4b1e      	ldr	r3, [pc, #120]	; (6570 <_malloc_trim_r+0x90>)
    64f6:	1b2c      	subs	r4, r5, r4
    64f8:	469c      	mov	ip, r3
    64fa:	4464      	add	r4, ip
    64fc:	0b24      	lsrs	r4, r4, #12
    64fe:	4b1d      	ldr	r3, [pc, #116]	; (6574 <_malloc_trim_r+0x94>)
    6500:	3c01      	subs	r4, #1
    6502:	0324      	lsls	r4, r4, #12
    6504:	429c      	cmp	r4, r3
    6506:	dd07      	ble.n	6518 <_malloc_trim_r+0x38>
    6508:	2100      	movs	r1, #0
    650a:	0030      	movs	r0, r6
    650c:	f7ff fe6e 	bl	61ec <_sbrk_r>
    6510:	68bb      	ldr	r3, [r7, #8]
    6512:	195b      	adds	r3, r3, r5
    6514:	4298      	cmp	r0, r3
    6516:	d004      	beq.n	6522 <_malloc_trim_r+0x42>
    6518:	0030      	movs	r0, r6
    651a:	f7ff fb17 	bl	5b4c <__malloc_unlock>
    651e:	2000      	movs	r0, #0
    6520:	bdf8      	pop	{r3, r4, r5, r6, r7, pc}
    6522:	4261      	negs	r1, r4
    6524:	0030      	movs	r0, r6
    6526:	f7ff fe61 	bl	61ec <_sbrk_r>
    652a:	1c43      	adds	r3, r0, #1
    652c:	d00d      	beq.n	654a <_malloc_trim_r+0x6a>
    652e:	2201      	movs	r2, #1
    6530:	68bb      	ldr	r3, [r7, #8]
    6532:	1b2d      	subs	r5, r5, r4
    6534:	4315      	orrs	r5, r2
    6536:	605d      	str	r5, [r3, #4]
    6538:	4b0f      	ldr	r3, [pc, #60]	; (6578 <_malloc_trim_r+0x98>)
    653a:	0030      	movs	r0, r6
    653c:	681a      	ldr	r2, [r3, #0]
    653e:	1b14      	subs	r4, r2, r4
    6540:	601c      	str	r4, [r3, #0]
    6542:	f7ff fb03 	bl	5b4c <__malloc_unlock>
    6546:	2001      	movs	r0, #1
    6548:	e7ea      	b.n	6520 <_malloc_trim_r+0x40>
    654a:	2100      	movs	r1, #0
    654c:	0030      	movs	r0, r6
    654e:	f7ff fe4d 	bl	61ec <_sbrk_r>
    6552:	68ba      	ldr	r2, [r7, #8]
    6554:	1a83      	subs	r3, r0, r2
    6556:	2b0f      	cmp	r3, #15
    6558:	ddde      	ble.n	6518 <_malloc_trim_r+0x38>
    655a:	4908      	ldr	r1, [pc, #32]	; (657c <_malloc_trim_r+0x9c>)
    655c:	6809      	ldr	r1, [r1, #0]
    655e:	1a40      	subs	r0, r0, r1
    6560:	4905      	ldr	r1, [pc, #20]	; (6578 <_malloc_trim_r+0x98>)
    6562:	6008      	str	r0, [r1, #0]
    6564:	2101      	movs	r1, #1
    6566:	430b      	orrs	r3, r1
    6568:	6053      	str	r3, [r2, #4]
    656a:	e7d5      	b.n	6518 <_malloc_trim_r+0x38>
    656c:	20000744 	.word	0x20000744
    6570:	00000fef 	.word	0x00000fef
    6574:	00000fff 	.word	0x00000fff
    6578:	20000f48 	.word	0x20000f48
    657c:	20000b4c 	.word	0x20000b4c

00006580 <_free_r>:
    6580:	b5f8      	push	{r3, r4, r5, r6, r7, lr}
    6582:	0004      	movs	r4, r0
    6584:	1e0d      	subs	r5, r1, #0
    6586:	d03c      	beq.n	6602 <_free_r+0x82>
    6588:	f7ff fad8 	bl	5b3c <__malloc_lock>
    658c:	0029      	movs	r1, r5
    658e:	3908      	subs	r1, #8
    6590:	6848      	ldr	r0, [r1, #4]
    6592:	2301      	movs	r3, #1
    6594:	0005      	movs	r5, r0
    6596:	2603      	movs	r6, #3
    6598:	439d      	bics	r5, r3
    659a:	194a      	adds	r2, r1, r5
    659c:	469c      	mov	ip, r3
    659e:	4f61      	ldr	r7, [pc, #388]	; (6724 <_free_r+0x1a4>)
    65a0:	6853      	ldr	r3, [r2, #4]
    65a2:	43b3      	bics	r3, r6
    65a4:	68be      	ldr	r6, [r7, #8]
    65a6:	42b2      	cmp	r2, r6
    65a8:	d056      	beq.n	6658 <_free_r+0xd8>
    65aa:	4666      	mov	r6, ip
    65ac:	6053      	str	r3, [r2, #4]
    65ae:	4206      	tst	r6, r0
    65b0:	d10a      	bne.n	65c8 <_free_r+0x48>
    65b2:	003e      	movs	r6, r7
    65b4:	6808      	ldr	r0, [r1, #0]
    65b6:	3608      	adds	r6, #8
    65b8:	1a09      	subs	r1, r1, r0
    65ba:	182d      	adds	r5, r5, r0
    65bc:	6888      	ldr	r0, [r1, #8]
    65be:	42b0      	cmp	r0, r6
    65c0:	d065      	beq.n	668e <_free_r+0x10e>
    65c2:	68ce      	ldr	r6, [r1, #12]
    65c4:	60c6      	str	r6, [r0, #12]
    65c6:	60b0      	str	r0, [r6, #8]
    65c8:	2001      	movs	r0, #1
    65ca:	18d6      	adds	r6, r2, r3
    65cc:	6876      	ldr	r6, [r6, #4]
    65ce:	4206      	tst	r6, r0
    65d0:	d033      	beq.n	663a <_free_r+0xba>
    65d2:	4b55      	ldr	r3, [pc, #340]	; (6728 <_free_r+0x1a8>)
    65d4:	4328      	orrs	r0, r5
    65d6:	6048      	str	r0, [r1, #4]
    65d8:	514d      	str	r5, [r1, r5]
    65da:	429d      	cmp	r5, r3
    65dc:	d812      	bhi.n	6604 <_free_r+0x84>
    65de:	08ed      	lsrs	r5, r5, #3
    65e0:	3bff      	subs	r3, #255	; 0xff
    65e2:	10aa      	asrs	r2, r5, #2
    65e4:	3bff      	subs	r3, #255	; 0xff
    65e6:	4093      	lsls	r3, r2
    65e8:	687a      	ldr	r2, [r7, #4]
    65ea:	00ed      	lsls	r5, r5, #3
    65ec:	4313      	orrs	r3, r2
    65ee:	607b      	str	r3, [r7, #4]
    65f0:	19ef      	adds	r7, r5, r7
    65f2:	68bb      	ldr	r3, [r7, #8]
    65f4:	60cf      	str	r7, [r1, #12]
    65f6:	608b      	str	r3, [r1, #8]
    65f8:	60b9      	str	r1, [r7, #8]
    65fa:	60d9      	str	r1, [r3, #12]
    65fc:	0020      	movs	r0, r4
    65fe:	f7ff faa5 	bl	5b4c <__malloc_unlock>
    6602:	bdf8      	pop	{r3, r4, r5, r6, r7, pc}
    6604:	0a68      	lsrs	r0, r5, #9
    6606:	2804      	cmp	r0, #4
    6608:	d850      	bhi.n	66ac <_free_r+0x12c>
    660a:	09a8      	lsrs	r0, r5, #6
    660c:	0002      	movs	r2, r0
    660e:	3039      	adds	r0, #57	; 0x39
    6610:	3238      	adds	r2, #56	; 0x38
    6612:	00c0      	lsls	r0, r0, #3
    6614:	1838      	adds	r0, r7, r0
    6616:	3808      	subs	r0, #8
    6618:	6883      	ldr	r3, [r0, #8]
    661a:	2603      	movs	r6, #3
    661c:	4298      	cmp	r0, r3
    661e:	d04c      	beq.n	66ba <_free_r+0x13a>
    6620:	685a      	ldr	r2, [r3, #4]
    6622:	43b2      	bics	r2, r6
    6624:	4295      	cmp	r5, r2
    6626:	d230      	bcs.n	668a <_free_r+0x10a>
    6628:	689b      	ldr	r3, [r3, #8]
    662a:	4298      	cmp	r0, r3
    662c:	d1f8      	bne.n	6620 <_free_r+0xa0>
    662e:	68c3      	ldr	r3, [r0, #12]
    6630:	60cb      	str	r3, [r1, #12]
    6632:	6088      	str	r0, [r1, #8]
    6634:	6099      	str	r1, [r3, #8]
    6636:	60c1      	str	r1, [r0, #12]
    6638:	e7e0      	b.n	65fc <_free_r+0x7c>
    663a:	18ed      	adds	r5, r5, r3
    663c:	4e3b      	ldr	r6, [pc, #236]	; (672c <_free_r+0x1ac>)
    663e:	6893      	ldr	r3, [r2, #8]
    6640:	42b3      	cmp	r3, r6
    6642:	d042      	beq.n	66ca <_free_r+0x14a>
    6644:	68d2      	ldr	r2, [r2, #12]
    6646:	4328      	orrs	r0, r5
    6648:	60da      	str	r2, [r3, #12]
    664a:	6093      	str	r3, [r2, #8]
    664c:	4b36      	ldr	r3, [pc, #216]	; (6728 <_free_r+0x1a8>)
    664e:	6048      	str	r0, [r1, #4]
    6650:	514d      	str	r5, [r1, r5]
    6652:	429d      	cmp	r5, r3
    6654:	d8d6      	bhi.n	6604 <_free_r+0x84>
    6656:	e7c2      	b.n	65de <_free_r+0x5e>
    6658:	4662      	mov	r2, ip
    665a:	18eb      	adds	r3, r5, r3
    665c:	4202      	tst	r2, r0
    665e:	d106      	bne.n	666e <_free_r+0xee>
    6660:	680a      	ldr	r2, [r1, #0]
    6662:	1a89      	subs	r1, r1, r2
    6664:	6888      	ldr	r0, [r1, #8]
    6666:	189b      	adds	r3, r3, r2
    6668:	68ca      	ldr	r2, [r1, #12]
    666a:	60c2      	str	r2, [r0, #12]
    666c:	6090      	str	r0, [r2, #8]
    666e:	2201      	movs	r2, #1
    6670:	431a      	orrs	r2, r3
    6672:	604a      	str	r2, [r1, #4]
    6674:	4a2e      	ldr	r2, [pc, #184]	; (6730 <_free_r+0x1b0>)
    6676:	60b9      	str	r1, [r7, #8]
    6678:	6812      	ldr	r2, [r2, #0]
    667a:	4293      	cmp	r3, r2
    667c:	d3be      	bcc.n	65fc <_free_r+0x7c>
    667e:	4b2d      	ldr	r3, [pc, #180]	; (6734 <_free_r+0x1b4>)
    6680:	0020      	movs	r0, r4
    6682:	6819      	ldr	r1, [r3, #0]
    6684:	f7ff ff2c 	bl	64e0 <_malloc_trim_r>
    6688:	e7b8      	b.n	65fc <_free_r+0x7c>
    668a:	0018      	movs	r0, r3
    668c:	e7cf      	b.n	662e <_free_r+0xae>
    668e:	4666      	mov	r6, ip
    6690:	18d0      	adds	r0, r2, r3
    6692:	6840      	ldr	r0, [r0, #4]
    6694:	4230      	tst	r0, r6
    6696:	d13f      	bne.n	6718 <_free_r+0x198>
    6698:	6890      	ldr	r0, [r2, #8]
    669a:	195d      	adds	r5, r3, r5
    669c:	68d3      	ldr	r3, [r2, #12]
    669e:	60c3      	str	r3, [r0, #12]
    66a0:	6098      	str	r0, [r3, #8]
    66a2:	4663      	mov	r3, ip
    66a4:	432b      	orrs	r3, r5
    66a6:	604b      	str	r3, [r1, #4]
    66a8:	514d      	str	r5, [r1, r5]
    66aa:	e7a7      	b.n	65fc <_free_r+0x7c>
    66ac:	2814      	cmp	r0, #20
    66ae:	d814      	bhi.n	66da <_free_r+0x15a>
    66b0:	0002      	movs	r2, r0
    66b2:	305c      	adds	r0, #92	; 0x5c
    66b4:	325b      	adds	r2, #91	; 0x5b
    66b6:	00c0      	lsls	r0, r0, #3
    66b8:	e7ac      	b.n	6614 <_free_r+0x94>
    66ba:	2301      	movs	r3, #1
    66bc:	1092      	asrs	r2, r2, #2
    66be:	4093      	lsls	r3, r2
    66c0:	687a      	ldr	r2, [r7, #4]
    66c2:	4313      	orrs	r3, r2
    66c4:	607b      	str	r3, [r7, #4]
    66c6:	0003      	movs	r3, r0
    66c8:	e7b2      	b.n	6630 <_free_r+0xb0>
    66ca:	4328      	orrs	r0, r5
    66cc:	60d9      	str	r1, [r3, #12]
    66ce:	6099      	str	r1, [r3, #8]
    66d0:	60cb      	str	r3, [r1, #12]
    66d2:	608b      	str	r3, [r1, #8]
    66d4:	6048      	str	r0, [r1, #4]
    66d6:	514d      	str	r5, [r1, r5]
    66d8:	e790      	b.n	65fc <_free_r+0x7c>
    66da:	2854      	cmp	r0, #84	; 0x54
    66dc:	d805      	bhi.n	66ea <_free_r+0x16a>
    66de:	0b28      	lsrs	r0, r5, #12
    66e0:	0002      	movs	r2, r0
    66e2:	306f      	adds	r0, #111	; 0x6f
    66e4:	326e      	adds	r2, #110	; 0x6e
    66e6:	00c0      	lsls	r0, r0, #3
    66e8:	e794      	b.n	6614 <_free_r+0x94>
    66ea:	22aa      	movs	r2, #170	; 0xaa
    66ec:	0052      	lsls	r2, r2, #1
    66ee:	4290      	cmp	r0, r2
    66f0:	d805      	bhi.n	66fe <_free_r+0x17e>
    66f2:	0be8      	lsrs	r0, r5, #15
    66f4:	0002      	movs	r2, r0
    66f6:	3078      	adds	r0, #120	; 0x78
    66f8:	3277      	adds	r2, #119	; 0x77
    66fa:	00c0      	lsls	r0, r0, #3
    66fc:	e78a      	b.n	6614 <_free_r+0x94>
    66fe:	4a0e      	ldr	r2, [pc, #56]	; (6738 <_free_r+0x1b8>)
    6700:	4290      	cmp	r0, r2
    6702:	d805      	bhi.n	6710 <_free_r+0x190>
    6704:	0ca8      	lsrs	r0, r5, #18
    6706:	0002      	movs	r2, r0
    6708:	307d      	adds	r0, #125	; 0x7d
    670a:	327c      	adds	r2, #124	; 0x7c
    670c:	00c0      	lsls	r0, r0, #3
    670e:	e781      	b.n	6614 <_free_r+0x94>
    6710:	20fe      	movs	r0, #254	; 0xfe
    6712:	227e      	movs	r2, #126	; 0x7e
    6714:	0080      	lsls	r0, r0, #2
    6716:	e77d      	b.n	6614 <_free_r+0x94>
    6718:	4663      	mov	r3, ip
    671a:	432b      	orrs	r3, r5
    671c:	604b      	str	r3, [r1, #4]
    671e:	6015      	str	r5, [r2, #0]
    6720:	e76c      	b.n	65fc <_free_r+0x7c>
    6722:	46c0      	nop			; (mov r8, r8)
    6724:	20000744 	.word	0x20000744
    6728:	000001ff 	.word	0x000001ff
    672c:	2000074c 	.word	0x2000074c
    6730:	20000b50 	.word	0x20000b50
    6734:	20000f78 	.word	0x20000f78
    6738:	00000554 	.word	0x00000554

0000673c <__ascii_mbtowc>:
    673c:	b082      	sub	sp, #8
    673e:	2900      	cmp	r1, #0
    6740:	d00a      	beq.n	6758 <__ascii_mbtowc+0x1c>
    6742:	2a00      	cmp	r2, #0
    6744:	d00b      	beq.n	675e <__ascii_mbtowc+0x22>
    6746:	2b00      	cmp	r3, #0
    6748:	d00b      	beq.n	6762 <__ascii_mbtowc+0x26>
    674a:	7813      	ldrb	r3, [r2, #0]
    674c:	600b      	str	r3, [r1, #0]
    674e:	7810      	ldrb	r0, [r2, #0]
    6750:	1e43      	subs	r3, r0, #1
    6752:	4198      	sbcs	r0, r3
    6754:	b002      	add	sp, #8
    6756:	4770      	bx	lr
    6758:	a901      	add	r1, sp, #4
    675a:	2a00      	cmp	r2, #0
    675c:	d1f3      	bne.n	6746 <__ascii_mbtowc+0xa>
    675e:	2000      	movs	r0, #0
    6760:	e7f8      	b.n	6754 <__ascii_mbtowc+0x18>
    6762:	2002      	movs	r0, #2
    6764:	4240      	negs	r0, r0
    6766:	e7f5      	b.n	6754 <__ascii_mbtowc+0x18>

00006768 <memmove>:
    6768:	b5f0      	push	{r4, r5, r6, r7, lr}
    676a:	4288      	cmp	r0, r1
    676c:	d90a      	bls.n	6784 <memmove+0x1c>
    676e:	188b      	adds	r3, r1, r2
    6770:	4298      	cmp	r0, r3
    6772:	d207      	bcs.n	6784 <memmove+0x1c>
    6774:	1e53      	subs	r3, r2, #1
    6776:	2a00      	cmp	r2, #0
    6778:	d003      	beq.n	6782 <memmove+0x1a>
    677a:	5cca      	ldrb	r2, [r1, r3]
    677c:	54c2      	strb	r2, [r0, r3]
    677e:	3b01      	subs	r3, #1
    6780:	d2fb      	bcs.n	677a <memmove+0x12>
    6782:	bdf0      	pop	{r4, r5, r6, r7, pc}
    6784:	0005      	movs	r5, r0
    6786:	2a0f      	cmp	r2, #15
    6788:	d808      	bhi.n	679c <memmove+0x34>
    678a:	2a00      	cmp	r2, #0
    678c:	d0f9      	beq.n	6782 <memmove+0x1a>
    678e:	2300      	movs	r3, #0
    6790:	5ccc      	ldrb	r4, [r1, r3]
    6792:	54ec      	strb	r4, [r5, r3]
    6794:	3301      	adds	r3, #1
    6796:	4293      	cmp	r3, r2
    6798:	d1fa      	bne.n	6790 <memmove+0x28>
    679a:	e7f2      	b.n	6782 <memmove+0x1a>
    679c:	000b      	movs	r3, r1
    679e:	4303      	orrs	r3, r0
    67a0:	079b      	lsls	r3, r3, #30
    67a2:	d12d      	bne.n	6800 <memmove+0x98>
    67a4:	0015      	movs	r5, r2
    67a6:	000c      	movs	r4, r1
    67a8:	0003      	movs	r3, r0
    67aa:	3d10      	subs	r5, #16
    67ac:	092f      	lsrs	r7, r5, #4
    67ae:	3701      	adds	r7, #1
    67b0:	013f      	lsls	r7, r7, #4
    67b2:	19c7      	adds	r7, r0, r7
    67b4:	6826      	ldr	r6, [r4, #0]
    67b6:	601e      	str	r6, [r3, #0]
    67b8:	6866      	ldr	r6, [r4, #4]
    67ba:	605e      	str	r6, [r3, #4]
    67bc:	68a6      	ldr	r6, [r4, #8]
    67be:	609e      	str	r6, [r3, #8]
    67c0:	68e6      	ldr	r6, [r4, #12]
    67c2:	3410      	adds	r4, #16
    67c4:	60de      	str	r6, [r3, #12]
    67c6:	3310      	adds	r3, #16
    67c8:	429f      	cmp	r7, r3
    67ca:	d1f3      	bne.n	67b4 <memmove+0x4c>
    67cc:	240f      	movs	r4, #15
    67ce:	43a5      	bics	r5, r4
    67d0:	3510      	adds	r5, #16
    67d2:	1949      	adds	r1, r1, r5
    67d4:	4014      	ands	r4, r2
    67d6:	1945      	adds	r5, r0, r5
    67d8:	2c03      	cmp	r4, #3
    67da:	d913      	bls.n	6804 <memmove+0x9c>
    67dc:	2300      	movs	r3, #0
    67de:	1f27      	subs	r7, r4, #4
    67e0:	08be      	lsrs	r6, r7, #2
    67e2:	3601      	adds	r6, #1
    67e4:	00b6      	lsls	r6, r6, #2
    67e6:	58cc      	ldr	r4, [r1, r3]
    67e8:	50ec      	str	r4, [r5, r3]
    67ea:	3304      	adds	r3, #4
    67ec:	42b3      	cmp	r3, r6
    67ee:	d1fa      	bne.n	67e6 <memmove+0x7e>
    67f0:	2603      	movs	r6, #3
    67f2:	43b7      	bics	r7, r6
    67f4:	1d3c      	adds	r4, r7, #4
    67f6:	1909      	adds	r1, r1, r4
    67f8:	192d      	adds	r5, r5, r4
    67fa:	4032      	ands	r2, r6
    67fc:	d1c7      	bne.n	678e <memmove+0x26>
    67fe:	e7c0      	b.n	6782 <memmove+0x1a>
    6800:	0005      	movs	r5, r0
    6802:	e7c4      	b.n	678e <memmove+0x26>
    6804:	0022      	movs	r2, r4
    6806:	e7c0      	b.n	678a <memmove+0x22>

00006808 <_realloc_r>:
    6808:	b5f0      	push	{r4, r5, r6, r7, lr}
    680a:	464e      	mov	r6, r9
    680c:	4645      	mov	r5, r8
    680e:	46de      	mov	lr, fp
    6810:	4657      	mov	r7, sl
    6812:	b5e0      	push	{r5, r6, r7, lr}
    6814:	b085      	sub	sp, #20
    6816:	9001      	str	r0, [sp, #4]
    6818:	000e      	movs	r6, r1
    681a:	0015      	movs	r5, r2
    681c:	2900      	cmp	r1, #0
    681e:	d100      	bne.n	6822 <_realloc_r+0x1a>
    6820:	e09e      	b.n	6960 <_realloc_r+0x158>
    6822:	0037      	movs	r7, r6
    6824:	9801      	ldr	r0, [sp, #4]
    6826:	3f08      	subs	r7, #8
    6828:	f7ff f988 	bl	5b3c <__malloc_lock>
    682c:	687a      	ldr	r2, [r7, #4]
    682e:	2303      	movs	r3, #3
    6830:	0014      	movs	r4, r2
    6832:	439c      	bics	r4, r3
    6834:	002b      	movs	r3, r5
    6836:	330b      	adds	r3, #11
    6838:	46b9      	mov	r9, r7
    683a:	2b16      	cmp	r3, #22
    683c:	d847      	bhi.n	68ce <_realloc_r+0xc6>
    683e:	2110      	movs	r1, #16
    6840:	2310      	movs	r3, #16
    6842:	4688      	mov	r8, r1
    6844:	4545      	cmp	r5, r8
    6846:	d846      	bhi.n	68d6 <_realloc_r+0xce>
    6848:	429c      	cmp	r4, r3
    684a:	da49      	bge.n	68e0 <_realloc_r+0xd8>
    684c:	49cc      	ldr	r1, [pc, #816]	; (6b80 <_realloc_r+0x378>)
    684e:	1938      	adds	r0, r7, r4
    6850:	468b      	mov	fp, r1
    6852:	6889      	ldr	r1, [r1, #8]
    6854:	9002      	str	r0, [sp, #8]
    6856:	4288      	cmp	r0, r1
    6858:	d100      	bne.n	685c <_realloc_r+0x54>
    685a:	e0c2      	b.n	69e2 <_realloc_r+0x1da>
    685c:	2101      	movs	r1, #1
    685e:	468a      	mov	sl, r1
    6860:	6840      	ldr	r0, [r0, #4]
    6862:	0001      	movs	r1, r0
    6864:	9003      	str	r0, [sp, #12]
    6866:	4650      	mov	r0, sl
    6868:	4381      	bics	r1, r0
    686a:	468c      	mov	ip, r1
    686c:	9902      	ldr	r1, [sp, #8]
    686e:	468b      	mov	fp, r1
    6870:	44dc      	add	ip, fp
    6872:	4661      	mov	r1, ip
    6874:	6849      	ldr	r1, [r1, #4]
    6876:	4201      	tst	r1, r0
    6878:	d04d      	beq.n	6916 <_realloc_r+0x10e>
    687a:	4210      	tst	r0, r2
    687c:	d100      	bne.n	6880 <_realloc_r+0x78>
    687e:	e0a2      	b.n	69c6 <_realloc_r+0x1be>
    6880:	0029      	movs	r1, r5
    6882:	9801      	ldr	r0, [sp, #4]
    6884:	f7fe fe24 	bl	54d0 <_malloc_r>
    6888:	1e05      	subs	r5, r0, #0
    688a:	d039      	beq.n	6900 <_realloc_r+0xf8>
    688c:	2301      	movs	r3, #1
    688e:	0002      	movs	r2, r0
    6890:	6879      	ldr	r1, [r7, #4]
    6892:	3a08      	subs	r2, #8
    6894:	4399      	bics	r1, r3
    6896:	187f      	adds	r7, r7, r1
    6898:	42ba      	cmp	r2, r7
    689a:	d100      	bne.n	689e <_realloc_r+0x96>
    689c:	e12e      	b.n	6afc <_realloc_r+0x2f4>
    689e:	1f22      	subs	r2, r4, #4
    68a0:	2a24      	cmp	r2, #36	; 0x24
    68a2:	d900      	bls.n	68a6 <_realloc_r+0x9e>
    68a4:	e114      	b.n	6ad0 <_realloc_r+0x2c8>
    68a6:	2a13      	cmp	r2, #19
    68a8:	d900      	bls.n	68ac <_realloc_r+0xa4>
    68aa:	e0e8      	b.n	6a7e <_realloc_r+0x276>
    68ac:	0003      	movs	r3, r0
    68ae:	0032      	movs	r2, r6
    68b0:	6811      	ldr	r1, [r2, #0]
    68b2:	6019      	str	r1, [r3, #0]
    68b4:	6851      	ldr	r1, [r2, #4]
    68b6:	6059      	str	r1, [r3, #4]
    68b8:	6892      	ldr	r2, [r2, #8]
    68ba:	609a      	str	r2, [r3, #8]
    68bc:	9c01      	ldr	r4, [sp, #4]
    68be:	0031      	movs	r1, r6
    68c0:	0020      	movs	r0, r4
    68c2:	f7ff fe5d 	bl	6580 <_free_r>
    68c6:	0020      	movs	r0, r4
    68c8:	f7ff f940 	bl	5b4c <__malloc_unlock>
    68cc:	e01b      	b.n	6906 <_realloc_r+0xfe>
    68ce:	2107      	movs	r1, #7
    68d0:	438b      	bics	r3, r1
    68d2:	4698      	mov	r8, r3
    68d4:	d5b6      	bpl.n	6844 <_realloc_r+0x3c>
    68d6:	230c      	movs	r3, #12
    68d8:	9a01      	ldr	r2, [sp, #4]
    68da:	2500      	movs	r5, #0
    68dc:	6013      	str	r3, [r2, #0]
    68de:	e012      	b.n	6906 <_realloc_r+0xfe>
    68e0:	0035      	movs	r5, r6
    68e2:	4643      	mov	r3, r8
    68e4:	1ae3      	subs	r3, r4, r3
    68e6:	2b0f      	cmp	r3, #15
    68e8:	d825      	bhi.n	6936 <_realloc_r+0x12e>
    68ea:	464b      	mov	r3, r9
    68ec:	2201      	movs	r2, #1
    68ee:	4649      	mov	r1, r9
    68f0:	685b      	ldr	r3, [r3, #4]
    68f2:	4013      	ands	r3, r2
    68f4:	4323      	orrs	r3, r4
    68f6:	604b      	str	r3, [r1, #4]
    68f8:	444c      	add	r4, r9
    68fa:	6863      	ldr	r3, [r4, #4]
    68fc:	431a      	orrs	r2, r3
    68fe:	6062      	str	r2, [r4, #4]
    6900:	9801      	ldr	r0, [sp, #4]
    6902:	f7ff f923 	bl	5b4c <__malloc_unlock>
    6906:	0028      	movs	r0, r5
    6908:	b005      	add	sp, #20
    690a:	bc3c      	pop	{r2, r3, r4, r5}
    690c:	4690      	mov	r8, r2
    690e:	4699      	mov	r9, r3
    6910:	46a2      	mov	sl, r4
    6912:	46ab      	mov	fp, r5
    6914:	bdf0      	pop	{r4, r5, r6, r7, pc}
    6916:	2103      	movs	r1, #3
    6918:	9803      	ldr	r0, [sp, #12]
    691a:	468c      	mov	ip, r1
    691c:	4388      	bics	r0, r1
    691e:	1821      	adds	r1, r4, r0
    6920:	468b      	mov	fp, r1
    6922:	4299      	cmp	r1, r3
    6924:	db21      	blt.n	696a <_realloc_r+0x162>
    6926:	9a02      	ldr	r2, [sp, #8]
    6928:	0035      	movs	r5, r6
    692a:	68d3      	ldr	r3, [r2, #12]
    692c:	6892      	ldr	r2, [r2, #8]
    692e:	465c      	mov	r4, fp
    6930:	60d3      	str	r3, [r2, #12]
    6932:	609a      	str	r2, [r3, #8]
    6934:	e7d5      	b.n	68e2 <_realloc_r+0xda>
    6936:	464a      	mov	r2, r9
    6938:	2001      	movs	r0, #1
    693a:	4646      	mov	r6, r8
    693c:	6852      	ldr	r2, [r2, #4]
    693e:	4649      	mov	r1, r9
    6940:	4002      	ands	r2, r0
    6942:	4332      	orrs	r2, r6
    6944:	464e      	mov	r6, r9
    6946:	4441      	add	r1, r8
    6948:	4303      	orrs	r3, r0
    694a:	6072      	str	r2, [r6, #4]
    694c:	444c      	add	r4, r9
    694e:	604b      	str	r3, [r1, #4]
    6950:	6863      	ldr	r3, [r4, #4]
    6952:	3108      	adds	r1, #8
    6954:	4318      	orrs	r0, r3
    6956:	6060      	str	r0, [r4, #4]
    6958:	9801      	ldr	r0, [sp, #4]
    695a:	f7ff fe11 	bl	6580 <_free_r>
    695e:	e7cf      	b.n	6900 <_realloc_r+0xf8>
    6960:	0011      	movs	r1, r2
    6962:	f7fe fdb5 	bl	54d0 <_malloc_r>
    6966:	0005      	movs	r5, r0
    6968:	e7cd      	b.n	6906 <_realloc_r+0xfe>
    696a:	4651      	mov	r1, sl
    696c:	4211      	tst	r1, r2
    696e:	d000      	beq.n	6972 <_realloc_r+0x16a>
    6970:	e786      	b.n	6880 <_realloc_r+0x78>
    6972:	4661      	mov	r1, ip
    6974:	683a      	ldr	r2, [r7, #0]
    6976:	1aba      	subs	r2, r7, r2
    6978:	4692      	mov	sl, r2
    697a:	6852      	ldr	r2, [r2, #4]
    697c:	438a      	bics	r2, r1
    697e:	1880      	adds	r0, r0, r2
    6980:	4683      	mov	fp, r0
    6982:	44a3      	add	fp, r4
    6984:	459b      	cmp	fp, r3
    6986:	db26      	blt.n	69d6 <_realloc_r+0x1ce>
    6988:	9a02      	ldr	r2, [sp, #8]
    698a:	68d3      	ldr	r3, [r2, #12]
    698c:	6892      	ldr	r2, [r2, #8]
    698e:	60d3      	str	r3, [r2, #12]
    6990:	609a      	str	r2, [r3, #8]
    6992:	4653      	mov	r3, sl
    6994:	4652      	mov	r2, sl
    6996:	4655      	mov	r5, sl
    6998:	6892      	ldr	r2, [r2, #8]
    699a:	68db      	ldr	r3, [r3, #12]
    699c:	3508      	adds	r5, #8
    699e:	60d3      	str	r3, [r2, #12]
    69a0:	609a      	str	r2, [r3, #8]
    69a2:	1f22      	subs	r2, r4, #4
    69a4:	2a24      	cmp	r2, #36	; 0x24
    69a6:	d900      	bls.n	69aa <_realloc_r+0x1a2>
    69a8:	e096      	b.n	6ad8 <_realloc_r+0x2d0>
    69aa:	2a13      	cmp	r2, #19
    69ac:	d972      	bls.n	6a94 <_realloc_r+0x28c>
    69ae:	4653      	mov	r3, sl
    69b0:	6831      	ldr	r1, [r6, #0]
    69b2:	6099      	str	r1, [r3, #8]
    69b4:	6871      	ldr	r1, [r6, #4]
    69b6:	60d9      	str	r1, [r3, #12]
    69b8:	2a1b      	cmp	r2, #27
    69ba:	d900      	bls.n	69be <_realloc_r+0x1b6>
    69bc:	e0a4      	b.n	6b08 <_realloc_r+0x300>
    69be:	0032      	movs	r2, r6
    69c0:	3310      	adds	r3, #16
    69c2:	3208      	adds	r2, #8
    69c4:	e068      	b.n	6a98 <_realloc_r+0x290>
    69c6:	683a      	ldr	r2, [r7, #0]
    69c8:	1aba      	subs	r2, r7, r2
    69ca:	4692      	mov	sl, r2
    69cc:	4651      	mov	r1, sl
    69ce:	2203      	movs	r2, #3
    69d0:	6849      	ldr	r1, [r1, #4]
    69d2:	4391      	bics	r1, r2
    69d4:	000a      	movs	r2, r1
    69d6:	4693      	mov	fp, r2
    69d8:	44a3      	add	fp, r4
    69da:	459b      	cmp	fp, r3
    69dc:	da00      	bge.n	69e0 <_realloc_r+0x1d8>
    69de:	e74f      	b.n	6880 <_realloc_r+0x78>
    69e0:	e7d7      	b.n	6992 <_realloc_r+0x18a>
    69e2:	2003      	movs	r0, #3
    69e4:	9902      	ldr	r1, [sp, #8]
    69e6:	4684      	mov	ip, r0
    69e8:	6849      	ldr	r1, [r1, #4]
    69ea:	4381      	bics	r1, r0
    69ec:	4640      	mov	r0, r8
    69ee:	1909      	adds	r1, r1, r4
    69f0:	3010      	adds	r0, #16
    69f2:	9002      	str	r0, [sp, #8]
    69f4:	4281      	cmp	r1, r0
    69f6:	da58      	bge.n	6aaa <_realloc_r+0x2a2>
    69f8:	07d2      	lsls	r2, r2, #31
    69fa:	d500      	bpl.n	69fe <_realloc_r+0x1f6>
    69fc:	e740      	b.n	6880 <_realloc_r+0x78>
    69fe:	4660      	mov	r0, ip
    6a00:	683a      	ldr	r2, [r7, #0]
    6a02:	1aba      	subs	r2, r7, r2
    6a04:	4692      	mov	sl, r2
    6a06:	6852      	ldr	r2, [r2, #4]
    6a08:	4382      	bics	r2, r0
    6a0a:	9802      	ldr	r0, [sp, #8]
    6a0c:	1851      	adds	r1, r2, r1
    6a0e:	9103      	str	r1, [sp, #12]
    6a10:	4288      	cmp	r0, r1
    6a12:	dce0      	bgt.n	69d6 <_realloc_r+0x1ce>
    6a14:	4653      	mov	r3, sl
    6a16:	4652      	mov	r2, sl
    6a18:	4655      	mov	r5, sl
    6a1a:	6892      	ldr	r2, [r2, #8]
    6a1c:	68db      	ldr	r3, [r3, #12]
    6a1e:	3508      	adds	r5, #8
    6a20:	60d3      	str	r3, [r2, #12]
    6a22:	609a      	str	r2, [r3, #8]
    6a24:	1f22      	subs	r2, r4, #4
    6a26:	2a24      	cmp	r2, #36	; 0x24
    6a28:	d900      	bls.n	6a2c <_realloc_r+0x224>
    6a2a:	e08e      	b.n	6b4a <_realloc_r+0x342>
    6a2c:	2a13      	cmp	r2, #19
    6a2e:	d800      	bhi.n	6a32 <_realloc_r+0x22a>
    6a30:	e088      	b.n	6b44 <_realloc_r+0x33c>
    6a32:	4653      	mov	r3, sl
    6a34:	6831      	ldr	r1, [r6, #0]
    6a36:	6099      	str	r1, [r3, #8]
    6a38:	6871      	ldr	r1, [r6, #4]
    6a3a:	60d9      	str	r1, [r3, #12]
    6a3c:	2a1b      	cmp	r2, #27
    6a3e:	d900      	bls.n	6a42 <_realloc_r+0x23a>
    6a40:	e088      	b.n	6b54 <_realloc_r+0x34c>
    6a42:	0032      	movs	r2, r6
    6a44:	3310      	adds	r3, #16
    6a46:	3208      	adds	r2, #8
    6a48:	6811      	ldr	r1, [r2, #0]
    6a4a:	6019      	str	r1, [r3, #0]
    6a4c:	6851      	ldr	r1, [r2, #4]
    6a4e:	6059      	str	r1, [r3, #4]
    6a50:	6892      	ldr	r2, [r2, #8]
    6a52:	609a      	str	r2, [r3, #8]
    6a54:	4651      	mov	r1, sl
    6a56:	465b      	mov	r3, fp
    6a58:	4642      	mov	r2, r8
    6a5a:	4441      	add	r1, r8
    6a5c:	6099      	str	r1, [r3, #8]
    6a5e:	9b03      	ldr	r3, [sp, #12]
    6a60:	9801      	ldr	r0, [sp, #4]
    6a62:	1a9a      	subs	r2, r3, r2
    6a64:	2301      	movs	r3, #1
    6a66:	431a      	orrs	r2, r3
    6a68:	604a      	str	r2, [r1, #4]
    6a6a:	4652      	mov	r2, sl
    6a6c:	6852      	ldr	r2, [r2, #4]
    6a6e:	4013      	ands	r3, r2
    6a70:	4642      	mov	r2, r8
    6a72:	4313      	orrs	r3, r2
    6a74:	4652      	mov	r2, sl
    6a76:	6053      	str	r3, [r2, #4]
    6a78:	f7ff f868 	bl	5b4c <__malloc_unlock>
    6a7c:	e743      	b.n	6906 <_realloc_r+0xfe>
    6a7e:	6833      	ldr	r3, [r6, #0]
    6a80:	6003      	str	r3, [r0, #0]
    6a82:	6873      	ldr	r3, [r6, #4]
    6a84:	6043      	str	r3, [r0, #4]
    6a86:	2a1b      	cmp	r2, #27
    6a88:	d82d      	bhi.n	6ae6 <_realloc_r+0x2de>
    6a8a:	0003      	movs	r3, r0
    6a8c:	0032      	movs	r2, r6
    6a8e:	3308      	adds	r3, #8
    6a90:	3208      	adds	r2, #8
    6a92:	e70d      	b.n	68b0 <_realloc_r+0xa8>
    6a94:	002b      	movs	r3, r5
    6a96:	0032      	movs	r2, r6
    6a98:	6811      	ldr	r1, [r2, #0]
    6a9a:	465c      	mov	r4, fp
    6a9c:	6019      	str	r1, [r3, #0]
    6a9e:	6851      	ldr	r1, [r2, #4]
    6aa0:	46d1      	mov	r9, sl
    6aa2:	6059      	str	r1, [r3, #4]
    6aa4:	6892      	ldr	r2, [r2, #8]
    6aa6:	609a      	str	r2, [r3, #8]
    6aa8:	e71b      	b.n	68e2 <_realloc_r+0xda>
    6aaa:	4643      	mov	r3, r8
    6aac:	18fa      	adds	r2, r7, r3
    6aae:	465b      	mov	r3, fp
    6ab0:	609a      	str	r2, [r3, #8]
    6ab2:	4643      	mov	r3, r8
    6ab4:	1ac9      	subs	r1, r1, r3
    6ab6:	2301      	movs	r3, #1
    6ab8:	4319      	orrs	r1, r3
    6aba:	6051      	str	r1, [r2, #4]
    6abc:	687a      	ldr	r2, [r7, #4]
    6abe:	9801      	ldr	r0, [sp, #4]
    6ac0:	4013      	ands	r3, r2
    6ac2:	4642      	mov	r2, r8
    6ac4:	4313      	orrs	r3, r2
    6ac6:	607b      	str	r3, [r7, #4]
    6ac8:	f7ff f840 	bl	5b4c <__malloc_unlock>
    6acc:	0035      	movs	r5, r6
    6ace:	e71a      	b.n	6906 <_realloc_r+0xfe>
    6ad0:	0031      	movs	r1, r6
    6ad2:	f7ff fe49 	bl	6768 <memmove>
    6ad6:	e6f1      	b.n	68bc <_realloc_r+0xb4>
    6ad8:	0031      	movs	r1, r6
    6ada:	0028      	movs	r0, r5
    6adc:	f7ff fe44 	bl	6768 <memmove>
    6ae0:	465c      	mov	r4, fp
    6ae2:	46d1      	mov	r9, sl
    6ae4:	e6fd      	b.n	68e2 <_realloc_r+0xda>
    6ae6:	68b3      	ldr	r3, [r6, #8]
    6ae8:	6083      	str	r3, [r0, #8]
    6aea:	68f3      	ldr	r3, [r6, #12]
    6aec:	60c3      	str	r3, [r0, #12]
    6aee:	2a24      	cmp	r2, #36	; 0x24
    6af0:	d015      	beq.n	6b1e <_realloc_r+0x316>
    6af2:	0003      	movs	r3, r0
    6af4:	0032      	movs	r2, r6
    6af6:	3310      	adds	r3, #16
    6af8:	3210      	adds	r2, #16
    6afa:	e6d9      	b.n	68b0 <_realloc_r+0xa8>
    6afc:	6853      	ldr	r3, [r2, #4]
    6afe:	2203      	movs	r2, #3
    6b00:	4393      	bics	r3, r2
    6b02:	18e4      	adds	r4, r4, r3
    6b04:	0035      	movs	r5, r6
    6b06:	e6ec      	b.n	68e2 <_realloc_r+0xda>
    6b08:	4653      	mov	r3, sl
    6b0a:	68b1      	ldr	r1, [r6, #8]
    6b0c:	6119      	str	r1, [r3, #16]
    6b0e:	68f1      	ldr	r1, [r6, #12]
    6b10:	6159      	str	r1, [r3, #20]
    6b12:	2a24      	cmp	r2, #36	; 0x24
    6b14:	d00c      	beq.n	6b30 <_realloc_r+0x328>
    6b16:	0032      	movs	r2, r6
    6b18:	3318      	adds	r3, #24
    6b1a:	3210      	adds	r2, #16
    6b1c:	e7bc      	b.n	6a98 <_realloc_r+0x290>
    6b1e:	6933      	ldr	r3, [r6, #16]
    6b20:	0032      	movs	r2, r6
    6b22:	6103      	str	r3, [r0, #16]
    6b24:	0003      	movs	r3, r0
    6b26:	6971      	ldr	r1, [r6, #20]
    6b28:	3318      	adds	r3, #24
    6b2a:	3218      	adds	r2, #24
    6b2c:	6141      	str	r1, [r0, #20]
    6b2e:	e6bf      	b.n	68b0 <_realloc_r+0xa8>
    6b30:	4653      	mov	r3, sl
    6b32:	6932      	ldr	r2, [r6, #16]
    6b34:	4651      	mov	r1, sl
    6b36:	619a      	str	r2, [r3, #24]
    6b38:	0032      	movs	r2, r6
    6b3a:	6970      	ldr	r0, [r6, #20]
    6b3c:	3320      	adds	r3, #32
    6b3e:	3218      	adds	r2, #24
    6b40:	61c8      	str	r0, [r1, #28]
    6b42:	e7a9      	b.n	6a98 <_realloc_r+0x290>
    6b44:	002b      	movs	r3, r5
    6b46:	0032      	movs	r2, r6
    6b48:	e77e      	b.n	6a48 <_realloc_r+0x240>
    6b4a:	0031      	movs	r1, r6
    6b4c:	0028      	movs	r0, r5
    6b4e:	f7ff fe0b 	bl	6768 <memmove>
    6b52:	e77f      	b.n	6a54 <_realloc_r+0x24c>
    6b54:	4653      	mov	r3, sl
    6b56:	68b1      	ldr	r1, [r6, #8]
    6b58:	6119      	str	r1, [r3, #16]
    6b5a:	68f1      	ldr	r1, [r6, #12]
    6b5c:	6159      	str	r1, [r3, #20]
    6b5e:	2a24      	cmp	r2, #36	; 0x24
    6b60:	d003      	beq.n	6b6a <_realloc_r+0x362>
    6b62:	0032      	movs	r2, r6
    6b64:	3318      	adds	r3, #24
    6b66:	3210      	adds	r2, #16
    6b68:	e76e      	b.n	6a48 <_realloc_r+0x240>
    6b6a:	4653      	mov	r3, sl
    6b6c:	6932      	ldr	r2, [r6, #16]
    6b6e:	4651      	mov	r1, sl
    6b70:	619a      	str	r2, [r3, #24]
    6b72:	0032      	movs	r2, r6
    6b74:	6970      	ldr	r0, [r6, #20]
    6b76:	3320      	adds	r3, #32
    6b78:	3218      	adds	r2, #24
    6b7a:	61c8      	str	r0, [r1, #28]
    6b7c:	e764      	b.n	6a48 <_realloc_r+0x240>
    6b7e:	46c0      	nop			; (mov r8, r8)
    6b80:	20000744 	.word	0x20000744

00006b84 <__ascii_wctomb>:
    6b84:	2900      	cmp	r1, #0
    6b86:	d004      	beq.n	6b92 <__ascii_wctomb+0xe>
    6b88:	2aff      	cmp	r2, #255	; 0xff
    6b8a:	d804      	bhi.n	6b96 <__ascii_wctomb+0x12>
    6b8c:	2001      	movs	r0, #1
    6b8e:	700a      	strb	r2, [r1, #0]
    6b90:	4770      	bx	lr
    6b92:	2000      	movs	r0, #0
    6b94:	e7fc      	b.n	6b90 <__ascii_wctomb+0xc>
    6b96:	238a      	movs	r3, #138	; 0x8a
    6b98:	6003      	str	r3, [r0, #0]
    6b9a:	2001      	movs	r0, #1
    6b9c:	4240      	negs	r0, r0
    6b9e:	e7f7      	b.n	6b90 <__ascii_wctomb+0xc>

00006ba0 <__aeabi_cdrcmple>:
    6ba0:	4684      	mov	ip, r0
    6ba2:	1c10      	adds	r0, r2, #0
    6ba4:	4662      	mov	r2, ip
    6ba6:	468c      	mov	ip, r1
    6ba8:	1c19      	adds	r1, r3, #0
    6baa:	4663      	mov	r3, ip
    6bac:	e000      	b.n	6bb0 <__aeabi_cdcmpeq>
    6bae:	46c0      	nop			; (mov r8, r8)

00006bb0 <__aeabi_cdcmpeq>:
    6bb0:	b51f      	push	{r0, r1, r2, r3, r4, lr}
    6bb2:	f000 fff5 	bl	7ba0 <__ledf2>
    6bb6:	2800      	cmp	r0, #0
    6bb8:	d401      	bmi.n	6bbe <__aeabi_cdcmpeq+0xe>
    6bba:	2100      	movs	r1, #0
    6bbc:	42c8      	cmn	r0, r1
    6bbe:	bd1f      	pop	{r0, r1, r2, r3, r4, pc}

00006bc0 <__aeabi_dcmpeq>:
    6bc0:	b510      	push	{r4, lr}
    6bc2:	f000 ff4f 	bl	7a64 <__eqdf2>
    6bc6:	4240      	negs	r0, r0
    6bc8:	3001      	adds	r0, #1
    6bca:	bd10      	pop	{r4, pc}

00006bcc <__aeabi_dcmplt>:
    6bcc:	b510      	push	{r4, lr}
    6bce:	f000 ffe7 	bl	7ba0 <__ledf2>
    6bd2:	2800      	cmp	r0, #0
    6bd4:	db01      	blt.n	6bda <__aeabi_dcmplt+0xe>
    6bd6:	2000      	movs	r0, #0
    6bd8:	bd10      	pop	{r4, pc}
    6bda:	2001      	movs	r0, #1
    6bdc:	bd10      	pop	{r4, pc}
    6bde:	46c0      	nop			; (mov r8, r8)

00006be0 <__aeabi_dcmple>:
    6be0:	b510      	push	{r4, lr}
    6be2:	f000 ffdd 	bl	7ba0 <__ledf2>
    6be6:	2800      	cmp	r0, #0
    6be8:	dd01      	ble.n	6bee <__aeabi_dcmple+0xe>
    6bea:	2000      	movs	r0, #0
    6bec:	bd10      	pop	{r4, pc}
    6bee:	2001      	movs	r0, #1
    6bf0:	bd10      	pop	{r4, pc}
    6bf2:	46c0      	nop			; (mov r8, r8)

00006bf4 <__aeabi_dcmpgt>:
    6bf4:	b510      	push	{r4, lr}
    6bf6:	f000 ff6f 	bl	7ad8 <__gedf2>
    6bfa:	2800      	cmp	r0, #0
    6bfc:	dc01      	bgt.n	6c02 <__aeabi_dcmpgt+0xe>
    6bfe:	2000      	movs	r0, #0
    6c00:	bd10      	pop	{r4, pc}
    6c02:	2001      	movs	r0, #1
    6c04:	bd10      	pop	{r4, pc}
    6c06:	46c0      	nop			; (mov r8, r8)

00006c08 <__aeabi_dcmpge>:
    6c08:	b510      	push	{r4, lr}
    6c0a:	f000 ff65 	bl	7ad8 <__gedf2>
    6c0e:	2800      	cmp	r0, #0
    6c10:	da01      	bge.n	6c16 <__aeabi_dcmpge+0xe>
    6c12:	2000      	movs	r0, #0
    6c14:	bd10      	pop	{r4, pc}
    6c16:	2001      	movs	r0, #1
    6c18:	bd10      	pop	{r4, pc}
    6c1a:	46c0      	nop			; (mov r8, r8)

00006c1c <__aeabi_uldivmod>:
    6c1c:	2b00      	cmp	r3, #0
    6c1e:	d111      	bne.n	6c44 <__aeabi_uldivmod+0x28>
    6c20:	2a00      	cmp	r2, #0
    6c22:	d10f      	bne.n	6c44 <__aeabi_uldivmod+0x28>
    6c24:	2900      	cmp	r1, #0
    6c26:	d100      	bne.n	6c2a <__aeabi_uldivmod+0xe>
    6c28:	2800      	cmp	r0, #0
    6c2a:	d002      	beq.n	6c32 <__aeabi_uldivmod+0x16>
    6c2c:	2100      	movs	r1, #0
    6c2e:	43c9      	mvns	r1, r1
    6c30:	1c08      	adds	r0, r1, #0
    6c32:	b407      	push	{r0, r1, r2}
    6c34:	4802      	ldr	r0, [pc, #8]	; (6c40 <__aeabi_uldivmod+0x24>)
    6c36:	a102      	add	r1, pc, #8	; (adr r1, 6c40 <__aeabi_uldivmod+0x24>)
    6c38:	1840      	adds	r0, r0, r1
    6c3a:	9002      	str	r0, [sp, #8]
    6c3c:	bd03      	pop	{r0, r1, pc}
    6c3e:	46c0      	nop			; (mov r8, r8)
    6c40:	ffffb0c5 	.word	0xffffb0c5
    6c44:	b403      	push	{r0, r1}
    6c46:	4668      	mov	r0, sp
    6c48:	b501      	push	{r0, lr}
    6c4a:	9802      	ldr	r0, [sp, #8]
    6c4c:	f000 f806 	bl	6c5c <__udivmoddi4>
    6c50:	9b01      	ldr	r3, [sp, #4]
    6c52:	469e      	mov	lr, r3
    6c54:	b002      	add	sp, #8
    6c56:	bc0c      	pop	{r2, r3}
    6c58:	4770      	bx	lr
    6c5a:	46c0      	nop			; (mov r8, r8)

00006c5c <__udivmoddi4>:
    6c5c:	b5f0      	push	{r4, r5, r6, r7, lr}
    6c5e:	4657      	mov	r7, sl
    6c60:	464e      	mov	r6, r9
    6c62:	4645      	mov	r5, r8
    6c64:	46de      	mov	lr, fp
    6c66:	b5e0      	push	{r5, r6, r7, lr}
    6c68:	0004      	movs	r4, r0
    6c6a:	b083      	sub	sp, #12
    6c6c:	000d      	movs	r5, r1
    6c6e:	4692      	mov	sl, r2
    6c70:	4699      	mov	r9, r3
    6c72:	428b      	cmp	r3, r1
    6c74:	d82f      	bhi.n	6cd6 <__udivmoddi4+0x7a>
    6c76:	d02c      	beq.n	6cd2 <__udivmoddi4+0x76>
    6c78:	4649      	mov	r1, r9
    6c7a:	4650      	mov	r0, sl
    6c7c:	f001 fe56 	bl	892c <__clzdi2>
    6c80:	0029      	movs	r1, r5
    6c82:	0006      	movs	r6, r0
    6c84:	0020      	movs	r0, r4
    6c86:	f001 fe51 	bl	892c <__clzdi2>
    6c8a:	1a33      	subs	r3, r6, r0
    6c8c:	4698      	mov	r8, r3
    6c8e:	3b20      	subs	r3, #32
    6c90:	469b      	mov	fp, r3
    6c92:	d500      	bpl.n	6c96 <__udivmoddi4+0x3a>
    6c94:	e074      	b.n	6d80 <__udivmoddi4+0x124>
    6c96:	4653      	mov	r3, sl
    6c98:	465a      	mov	r2, fp
    6c9a:	4093      	lsls	r3, r2
    6c9c:	001f      	movs	r7, r3
    6c9e:	4653      	mov	r3, sl
    6ca0:	4642      	mov	r2, r8
    6ca2:	4093      	lsls	r3, r2
    6ca4:	001e      	movs	r6, r3
    6ca6:	42af      	cmp	r7, r5
    6ca8:	d829      	bhi.n	6cfe <__udivmoddi4+0xa2>
    6caa:	d026      	beq.n	6cfa <__udivmoddi4+0x9e>
    6cac:	465b      	mov	r3, fp
    6cae:	1ba4      	subs	r4, r4, r6
    6cb0:	41bd      	sbcs	r5, r7
    6cb2:	2b00      	cmp	r3, #0
    6cb4:	da00      	bge.n	6cb8 <__udivmoddi4+0x5c>
    6cb6:	e079      	b.n	6dac <__udivmoddi4+0x150>
    6cb8:	2200      	movs	r2, #0
    6cba:	2300      	movs	r3, #0
    6cbc:	9200      	str	r2, [sp, #0]
    6cbe:	9301      	str	r3, [sp, #4]
    6cc0:	2301      	movs	r3, #1
    6cc2:	465a      	mov	r2, fp
    6cc4:	4093      	lsls	r3, r2
    6cc6:	9301      	str	r3, [sp, #4]
    6cc8:	2301      	movs	r3, #1
    6cca:	4642      	mov	r2, r8
    6ccc:	4093      	lsls	r3, r2
    6cce:	9300      	str	r3, [sp, #0]
    6cd0:	e019      	b.n	6d06 <__udivmoddi4+0xaa>
    6cd2:	4282      	cmp	r2, r0
    6cd4:	d9d0      	bls.n	6c78 <__udivmoddi4+0x1c>
    6cd6:	2200      	movs	r2, #0
    6cd8:	2300      	movs	r3, #0
    6cda:	9200      	str	r2, [sp, #0]
    6cdc:	9301      	str	r3, [sp, #4]
    6cde:	9b0c      	ldr	r3, [sp, #48]	; 0x30
    6ce0:	2b00      	cmp	r3, #0
    6ce2:	d001      	beq.n	6ce8 <__udivmoddi4+0x8c>
    6ce4:	601c      	str	r4, [r3, #0]
    6ce6:	605d      	str	r5, [r3, #4]
    6ce8:	9800      	ldr	r0, [sp, #0]
    6cea:	9901      	ldr	r1, [sp, #4]
    6cec:	b003      	add	sp, #12
    6cee:	bc3c      	pop	{r2, r3, r4, r5}
    6cf0:	4690      	mov	r8, r2
    6cf2:	4699      	mov	r9, r3
    6cf4:	46a2      	mov	sl, r4
    6cf6:	46ab      	mov	fp, r5
    6cf8:	bdf0      	pop	{r4, r5, r6, r7, pc}
    6cfa:	42a3      	cmp	r3, r4
    6cfc:	d9d6      	bls.n	6cac <__udivmoddi4+0x50>
    6cfe:	2200      	movs	r2, #0
    6d00:	2300      	movs	r3, #0
    6d02:	9200      	str	r2, [sp, #0]
    6d04:	9301      	str	r3, [sp, #4]
    6d06:	4643      	mov	r3, r8
    6d08:	2b00      	cmp	r3, #0
    6d0a:	d0e8      	beq.n	6cde <__udivmoddi4+0x82>
    6d0c:	07fb      	lsls	r3, r7, #31
    6d0e:	0872      	lsrs	r2, r6, #1
    6d10:	431a      	orrs	r2, r3
    6d12:	4646      	mov	r6, r8
    6d14:	087b      	lsrs	r3, r7, #1
    6d16:	e00e      	b.n	6d36 <__udivmoddi4+0xda>
    6d18:	42ab      	cmp	r3, r5
    6d1a:	d101      	bne.n	6d20 <__udivmoddi4+0xc4>
    6d1c:	42a2      	cmp	r2, r4
    6d1e:	d80c      	bhi.n	6d3a <__udivmoddi4+0xde>
    6d20:	1aa4      	subs	r4, r4, r2
    6d22:	419d      	sbcs	r5, r3
    6d24:	2001      	movs	r0, #1
    6d26:	1924      	adds	r4, r4, r4
    6d28:	416d      	adcs	r5, r5
    6d2a:	2100      	movs	r1, #0
    6d2c:	3e01      	subs	r6, #1
    6d2e:	1824      	adds	r4, r4, r0
    6d30:	414d      	adcs	r5, r1
    6d32:	2e00      	cmp	r6, #0
    6d34:	d006      	beq.n	6d44 <__udivmoddi4+0xe8>
    6d36:	42ab      	cmp	r3, r5
    6d38:	d9ee      	bls.n	6d18 <__udivmoddi4+0xbc>
    6d3a:	3e01      	subs	r6, #1
    6d3c:	1924      	adds	r4, r4, r4
    6d3e:	416d      	adcs	r5, r5
    6d40:	2e00      	cmp	r6, #0
    6d42:	d1f8      	bne.n	6d36 <__udivmoddi4+0xda>
    6d44:	465b      	mov	r3, fp
    6d46:	9800      	ldr	r0, [sp, #0]
    6d48:	9901      	ldr	r1, [sp, #4]
    6d4a:	1900      	adds	r0, r0, r4
    6d4c:	4169      	adcs	r1, r5
    6d4e:	2b00      	cmp	r3, #0
    6d50:	db22      	blt.n	6d98 <__udivmoddi4+0x13c>
    6d52:	002b      	movs	r3, r5
    6d54:	465a      	mov	r2, fp
    6d56:	40d3      	lsrs	r3, r2
    6d58:	002a      	movs	r2, r5
    6d5a:	4644      	mov	r4, r8
    6d5c:	40e2      	lsrs	r2, r4
    6d5e:	001c      	movs	r4, r3
    6d60:	465b      	mov	r3, fp
    6d62:	0015      	movs	r5, r2
    6d64:	2b00      	cmp	r3, #0
    6d66:	db2c      	blt.n	6dc2 <__udivmoddi4+0x166>
    6d68:	0026      	movs	r6, r4
    6d6a:	409e      	lsls	r6, r3
    6d6c:	0033      	movs	r3, r6
    6d6e:	0026      	movs	r6, r4
    6d70:	4647      	mov	r7, r8
    6d72:	40be      	lsls	r6, r7
    6d74:	0032      	movs	r2, r6
    6d76:	1a80      	subs	r0, r0, r2
    6d78:	4199      	sbcs	r1, r3
    6d7a:	9000      	str	r0, [sp, #0]
    6d7c:	9101      	str	r1, [sp, #4]
    6d7e:	e7ae      	b.n	6cde <__udivmoddi4+0x82>
    6d80:	4642      	mov	r2, r8
    6d82:	2320      	movs	r3, #32
    6d84:	1a9b      	subs	r3, r3, r2
    6d86:	4652      	mov	r2, sl
    6d88:	40da      	lsrs	r2, r3
    6d8a:	4641      	mov	r1, r8
    6d8c:	0013      	movs	r3, r2
    6d8e:	464a      	mov	r2, r9
    6d90:	408a      	lsls	r2, r1
    6d92:	0017      	movs	r7, r2
    6d94:	431f      	orrs	r7, r3
    6d96:	e782      	b.n	6c9e <__udivmoddi4+0x42>
    6d98:	4642      	mov	r2, r8
    6d9a:	2320      	movs	r3, #32
    6d9c:	1a9b      	subs	r3, r3, r2
    6d9e:	002a      	movs	r2, r5
    6da0:	4646      	mov	r6, r8
    6da2:	409a      	lsls	r2, r3
    6da4:	0023      	movs	r3, r4
    6da6:	40f3      	lsrs	r3, r6
    6da8:	4313      	orrs	r3, r2
    6daa:	e7d5      	b.n	6d58 <__udivmoddi4+0xfc>
    6dac:	4642      	mov	r2, r8
    6dae:	2320      	movs	r3, #32
    6db0:	2100      	movs	r1, #0
    6db2:	1a9b      	subs	r3, r3, r2
    6db4:	2200      	movs	r2, #0
    6db6:	9100      	str	r1, [sp, #0]
    6db8:	9201      	str	r2, [sp, #4]
    6dba:	2201      	movs	r2, #1
    6dbc:	40da      	lsrs	r2, r3
    6dbe:	9201      	str	r2, [sp, #4]
    6dc0:	e782      	b.n	6cc8 <__udivmoddi4+0x6c>
    6dc2:	4642      	mov	r2, r8
    6dc4:	2320      	movs	r3, #32
    6dc6:	0026      	movs	r6, r4
    6dc8:	1a9b      	subs	r3, r3, r2
    6dca:	40de      	lsrs	r6, r3
    6dcc:	002f      	movs	r7, r5
    6dce:	46b4      	mov	ip, r6
    6dd0:	4097      	lsls	r7, r2
    6dd2:	4666      	mov	r6, ip
    6dd4:	003b      	movs	r3, r7
    6dd6:	4333      	orrs	r3, r6
    6dd8:	e7c9      	b.n	6d6e <__udivmoddi4+0x112>
    6dda:	46c0      	nop			; (mov r8, r8)

00006ddc <__aeabi_dadd>:
    6ddc:	b5f8      	push	{r3, r4, r5, r6, r7, lr}
    6dde:	4645      	mov	r5, r8
    6de0:	46de      	mov	lr, fp
    6de2:	4657      	mov	r7, sl
    6de4:	464e      	mov	r6, r9
    6de6:	030c      	lsls	r4, r1, #12
    6de8:	b5e0      	push	{r5, r6, r7, lr}
    6dea:	004e      	lsls	r6, r1, #1
    6dec:	0fc9      	lsrs	r1, r1, #31
    6dee:	4688      	mov	r8, r1
    6df0:	000d      	movs	r5, r1
    6df2:	0a61      	lsrs	r1, r4, #9
    6df4:	0f44      	lsrs	r4, r0, #29
    6df6:	430c      	orrs	r4, r1
    6df8:	00c7      	lsls	r7, r0, #3
    6dfa:	0319      	lsls	r1, r3, #12
    6dfc:	0058      	lsls	r0, r3, #1
    6dfe:	0fdb      	lsrs	r3, r3, #31
    6e00:	469b      	mov	fp, r3
    6e02:	0a4b      	lsrs	r3, r1, #9
    6e04:	0f51      	lsrs	r1, r2, #29
    6e06:	430b      	orrs	r3, r1
    6e08:	0d76      	lsrs	r6, r6, #21
    6e0a:	0d40      	lsrs	r0, r0, #21
    6e0c:	0019      	movs	r1, r3
    6e0e:	00d2      	lsls	r2, r2, #3
    6e10:	45d8      	cmp	r8, fp
    6e12:	d100      	bne.n	6e16 <__aeabi_dadd+0x3a>
    6e14:	e0ae      	b.n	6f74 <__aeabi_dadd+0x198>
    6e16:	1a35      	subs	r5, r6, r0
    6e18:	2d00      	cmp	r5, #0
    6e1a:	dc00      	bgt.n	6e1e <__aeabi_dadd+0x42>
    6e1c:	e0f6      	b.n	700c <__aeabi_dadd+0x230>
    6e1e:	2800      	cmp	r0, #0
    6e20:	d10f      	bne.n	6e42 <__aeabi_dadd+0x66>
    6e22:	4313      	orrs	r3, r2
    6e24:	d100      	bne.n	6e28 <__aeabi_dadd+0x4c>
    6e26:	e0db      	b.n	6fe0 <__aeabi_dadd+0x204>
    6e28:	1e6b      	subs	r3, r5, #1
    6e2a:	2b00      	cmp	r3, #0
    6e2c:	d000      	beq.n	6e30 <__aeabi_dadd+0x54>
    6e2e:	e137      	b.n	70a0 <__aeabi_dadd+0x2c4>
    6e30:	1aba      	subs	r2, r7, r2
    6e32:	4297      	cmp	r7, r2
    6e34:	41bf      	sbcs	r7, r7
    6e36:	1a64      	subs	r4, r4, r1
    6e38:	427f      	negs	r7, r7
    6e3a:	1be4      	subs	r4, r4, r7
    6e3c:	2601      	movs	r6, #1
    6e3e:	0017      	movs	r7, r2
    6e40:	e024      	b.n	6e8c <__aeabi_dadd+0xb0>
    6e42:	4bc6      	ldr	r3, [pc, #792]	; (715c <__aeabi_dadd+0x380>)
    6e44:	429e      	cmp	r6, r3
    6e46:	d04d      	beq.n	6ee4 <__aeabi_dadd+0x108>
    6e48:	2380      	movs	r3, #128	; 0x80
    6e4a:	041b      	lsls	r3, r3, #16
    6e4c:	4319      	orrs	r1, r3
    6e4e:	2d38      	cmp	r5, #56	; 0x38
    6e50:	dd00      	ble.n	6e54 <__aeabi_dadd+0x78>
    6e52:	e107      	b.n	7064 <__aeabi_dadd+0x288>
    6e54:	2d1f      	cmp	r5, #31
    6e56:	dd00      	ble.n	6e5a <__aeabi_dadd+0x7e>
    6e58:	e138      	b.n	70cc <__aeabi_dadd+0x2f0>
    6e5a:	2020      	movs	r0, #32
    6e5c:	1b43      	subs	r3, r0, r5
    6e5e:	469a      	mov	sl, r3
    6e60:	000b      	movs	r3, r1
    6e62:	4650      	mov	r0, sl
    6e64:	4083      	lsls	r3, r0
    6e66:	4699      	mov	r9, r3
    6e68:	0013      	movs	r3, r2
    6e6a:	4648      	mov	r0, r9
    6e6c:	40eb      	lsrs	r3, r5
    6e6e:	4318      	orrs	r0, r3
    6e70:	0003      	movs	r3, r0
    6e72:	4650      	mov	r0, sl
    6e74:	4082      	lsls	r2, r0
    6e76:	1e50      	subs	r0, r2, #1
    6e78:	4182      	sbcs	r2, r0
    6e7a:	40e9      	lsrs	r1, r5
    6e7c:	431a      	orrs	r2, r3
    6e7e:	1aba      	subs	r2, r7, r2
    6e80:	1a61      	subs	r1, r4, r1
    6e82:	4297      	cmp	r7, r2
    6e84:	41a4      	sbcs	r4, r4
    6e86:	0017      	movs	r7, r2
    6e88:	4264      	negs	r4, r4
    6e8a:	1b0c      	subs	r4, r1, r4
    6e8c:	0223      	lsls	r3, r4, #8
    6e8e:	d562      	bpl.n	6f56 <__aeabi_dadd+0x17a>
    6e90:	0264      	lsls	r4, r4, #9
    6e92:	0a65      	lsrs	r5, r4, #9
    6e94:	2d00      	cmp	r5, #0
    6e96:	d100      	bne.n	6e9a <__aeabi_dadd+0xbe>
    6e98:	e0df      	b.n	705a <__aeabi_dadd+0x27e>
    6e9a:	0028      	movs	r0, r5
    6e9c:	f7fb fe6e 	bl	2b7c <__clzsi2>
    6ea0:	0003      	movs	r3, r0
    6ea2:	3b08      	subs	r3, #8
    6ea4:	2b1f      	cmp	r3, #31
    6ea6:	dd00      	ble.n	6eaa <__aeabi_dadd+0xce>
    6ea8:	e0d2      	b.n	7050 <__aeabi_dadd+0x274>
    6eaa:	2220      	movs	r2, #32
    6eac:	003c      	movs	r4, r7
    6eae:	1ad2      	subs	r2, r2, r3
    6eb0:	409d      	lsls	r5, r3
    6eb2:	40d4      	lsrs	r4, r2
    6eb4:	409f      	lsls	r7, r3
    6eb6:	4325      	orrs	r5, r4
    6eb8:	429e      	cmp	r6, r3
    6eba:	dd00      	ble.n	6ebe <__aeabi_dadd+0xe2>
    6ebc:	e0c4      	b.n	7048 <__aeabi_dadd+0x26c>
    6ebe:	1b9e      	subs	r6, r3, r6
    6ec0:	1c73      	adds	r3, r6, #1
    6ec2:	2b1f      	cmp	r3, #31
    6ec4:	dd00      	ble.n	6ec8 <__aeabi_dadd+0xec>
    6ec6:	e0f1      	b.n	70ac <__aeabi_dadd+0x2d0>
    6ec8:	2220      	movs	r2, #32
    6eca:	0038      	movs	r0, r7
    6ecc:	0029      	movs	r1, r5
    6ece:	1ad2      	subs	r2, r2, r3
    6ed0:	40d8      	lsrs	r0, r3
    6ed2:	4091      	lsls	r1, r2
    6ed4:	4097      	lsls	r7, r2
    6ed6:	002c      	movs	r4, r5
    6ed8:	4301      	orrs	r1, r0
    6eda:	1e78      	subs	r0, r7, #1
    6edc:	4187      	sbcs	r7, r0
    6ede:	40dc      	lsrs	r4, r3
    6ee0:	2600      	movs	r6, #0
    6ee2:	430f      	orrs	r7, r1
    6ee4:	077b      	lsls	r3, r7, #29
    6ee6:	d009      	beq.n	6efc <__aeabi_dadd+0x120>
    6ee8:	230f      	movs	r3, #15
    6eea:	403b      	ands	r3, r7
    6eec:	2b04      	cmp	r3, #4
    6eee:	d005      	beq.n	6efc <__aeabi_dadd+0x120>
    6ef0:	1d3b      	adds	r3, r7, #4
    6ef2:	42bb      	cmp	r3, r7
    6ef4:	41bf      	sbcs	r7, r7
    6ef6:	427f      	negs	r7, r7
    6ef8:	19e4      	adds	r4, r4, r7
    6efa:	001f      	movs	r7, r3
    6efc:	0223      	lsls	r3, r4, #8
    6efe:	d52c      	bpl.n	6f5a <__aeabi_dadd+0x17e>
    6f00:	4b96      	ldr	r3, [pc, #600]	; (715c <__aeabi_dadd+0x380>)
    6f02:	3601      	adds	r6, #1
    6f04:	429e      	cmp	r6, r3
    6f06:	d100      	bne.n	6f0a <__aeabi_dadd+0x12e>
    6f08:	e09a      	b.n	7040 <__aeabi_dadd+0x264>
    6f0a:	4645      	mov	r5, r8
    6f0c:	4b94      	ldr	r3, [pc, #592]	; (7160 <__aeabi_dadd+0x384>)
    6f0e:	08ff      	lsrs	r7, r7, #3
    6f10:	401c      	ands	r4, r3
    6f12:	0760      	lsls	r0, r4, #29
    6f14:	0576      	lsls	r6, r6, #21
    6f16:	0264      	lsls	r4, r4, #9
    6f18:	4307      	orrs	r7, r0
    6f1a:	0b24      	lsrs	r4, r4, #12
    6f1c:	0d76      	lsrs	r6, r6, #21
    6f1e:	2100      	movs	r1, #0
    6f20:	0324      	lsls	r4, r4, #12
    6f22:	0b23      	lsrs	r3, r4, #12
    6f24:	0d0c      	lsrs	r4, r1, #20
    6f26:	4a8f      	ldr	r2, [pc, #572]	; (7164 <__aeabi_dadd+0x388>)
    6f28:	0524      	lsls	r4, r4, #20
    6f2a:	431c      	orrs	r4, r3
    6f2c:	4014      	ands	r4, r2
    6f2e:	0533      	lsls	r3, r6, #20
    6f30:	4323      	orrs	r3, r4
    6f32:	005b      	lsls	r3, r3, #1
    6f34:	07ed      	lsls	r5, r5, #31
    6f36:	085b      	lsrs	r3, r3, #1
    6f38:	432b      	orrs	r3, r5
    6f3a:	0038      	movs	r0, r7
    6f3c:	0019      	movs	r1, r3
    6f3e:	bc3c      	pop	{r2, r3, r4, r5}
    6f40:	4690      	mov	r8, r2
    6f42:	4699      	mov	r9, r3
    6f44:	46a2      	mov	sl, r4
    6f46:	46ab      	mov	fp, r5
    6f48:	bdf8      	pop	{r3, r4, r5, r6, r7, pc}
    6f4a:	4664      	mov	r4, ip
    6f4c:	4304      	orrs	r4, r0
    6f4e:	d100      	bne.n	6f52 <__aeabi_dadd+0x176>
    6f50:	e211      	b.n	7376 <__aeabi_dadd+0x59a>
    6f52:	0004      	movs	r4, r0
    6f54:	4667      	mov	r7, ip
    6f56:	077b      	lsls	r3, r7, #29
    6f58:	d1c6      	bne.n	6ee8 <__aeabi_dadd+0x10c>
    6f5a:	4645      	mov	r5, r8
    6f5c:	0760      	lsls	r0, r4, #29
    6f5e:	08ff      	lsrs	r7, r7, #3
    6f60:	4307      	orrs	r7, r0
    6f62:	08e4      	lsrs	r4, r4, #3
    6f64:	4b7d      	ldr	r3, [pc, #500]	; (715c <__aeabi_dadd+0x380>)
    6f66:	429e      	cmp	r6, r3
    6f68:	d030      	beq.n	6fcc <__aeabi_dadd+0x1f0>
    6f6a:	0324      	lsls	r4, r4, #12
    6f6c:	0576      	lsls	r6, r6, #21
    6f6e:	0b24      	lsrs	r4, r4, #12
    6f70:	0d76      	lsrs	r6, r6, #21
    6f72:	e7d4      	b.n	6f1e <__aeabi_dadd+0x142>
    6f74:	1a33      	subs	r3, r6, r0
    6f76:	469a      	mov	sl, r3
    6f78:	2b00      	cmp	r3, #0
    6f7a:	dd78      	ble.n	706e <__aeabi_dadd+0x292>
    6f7c:	2800      	cmp	r0, #0
    6f7e:	d031      	beq.n	6fe4 <__aeabi_dadd+0x208>
    6f80:	4876      	ldr	r0, [pc, #472]	; (715c <__aeabi_dadd+0x380>)
    6f82:	4286      	cmp	r6, r0
    6f84:	d0ae      	beq.n	6ee4 <__aeabi_dadd+0x108>
    6f86:	2080      	movs	r0, #128	; 0x80
    6f88:	0400      	lsls	r0, r0, #16
    6f8a:	4301      	orrs	r1, r0
    6f8c:	4653      	mov	r3, sl
    6f8e:	2b38      	cmp	r3, #56	; 0x38
    6f90:	dc00      	bgt.n	6f94 <__aeabi_dadd+0x1b8>
    6f92:	e0e9      	b.n	7168 <__aeabi_dadd+0x38c>
    6f94:	430a      	orrs	r2, r1
    6f96:	1e51      	subs	r1, r2, #1
    6f98:	418a      	sbcs	r2, r1
    6f9a:	2100      	movs	r1, #0
    6f9c:	19d2      	adds	r2, r2, r7
    6f9e:	42ba      	cmp	r2, r7
    6fa0:	41bf      	sbcs	r7, r7
    6fa2:	1909      	adds	r1, r1, r4
    6fa4:	427c      	negs	r4, r7
    6fa6:	0017      	movs	r7, r2
    6fa8:	190c      	adds	r4, r1, r4
    6faa:	0223      	lsls	r3, r4, #8
    6fac:	d5d3      	bpl.n	6f56 <__aeabi_dadd+0x17a>
    6fae:	4b6b      	ldr	r3, [pc, #428]	; (715c <__aeabi_dadd+0x380>)
    6fb0:	3601      	adds	r6, #1
    6fb2:	429e      	cmp	r6, r3
    6fb4:	d100      	bne.n	6fb8 <__aeabi_dadd+0x1dc>
    6fb6:	e13a      	b.n	722e <__aeabi_dadd+0x452>
    6fb8:	2001      	movs	r0, #1
    6fba:	4b69      	ldr	r3, [pc, #420]	; (7160 <__aeabi_dadd+0x384>)
    6fbc:	401c      	ands	r4, r3
    6fbe:	087b      	lsrs	r3, r7, #1
    6fc0:	4007      	ands	r7, r0
    6fc2:	431f      	orrs	r7, r3
    6fc4:	07e0      	lsls	r0, r4, #31
    6fc6:	4307      	orrs	r7, r0
    6fc8:	0864      	lsrs	r4, r4, #1
    6fca:	e78b      	b.n	6ee4 <__aeabi_dadd+0x108>
    6fcc:	0023      	movs	r3, r4
    6fce:	433b      	orrs	r3, r7
    6fd0:	d100      	bne.n	6fd4 <__aeabi_dadd+0x1f8>
    6fd2:	e1cb      	b.n	736c <__aeabi_dadd+0x590>
    6fd4:	2280      	movs	r2, #128	; 0x80
    6fd6:	0312      	lsls	r2, r2, #12
    6fd8:	4314      	orrs	r4, r2
    6fda:	0324      	lsls	r4, r4, #12
    6fdc:	0b24      	lsrs	r4, r4, #12
    6fde:	e79e      	b.n	6f1e <__aeabi_dadd+0x142>
    6fe0:	002e      	movs	r6, r5
    6fe2:	e77f      	b.n	6ee4 <__aeabi_dadd+0x108>
    6fe4:	0008      	movs	r0, r1
    6fe6:	4310      	orrs	r0, r2
    6fe8:	d100      	bne.n	6fec <__aeabi_dadd+0x210>
    6fea:	e0b4      	b.n	7156 <__aeabi_dadd+0x37a>
    6fec:	1e58      	subs	r0, r3, #1
    6fee:	2800      	cmp	r0, #0
    6ff0:	d000      	beq.n	6ff4 <__aeabi_dadd+0x218>
    6ff2:	e0de      	b.n	71b2 <__aeabi_dadd+0x3d6>
    6ff4:	18ba      	adds	r2, r7, r2
    6ff6:	42ba      	cmp	r2, r7
    6ff8:	419b      	sbcs	r3, r3
    6ffa:	1864      	adds	r4, r4, r1
    6ffc:	425b      	negs	r3, r3
    6ffe:	18e4      	adds	r4, r4, r3
    7000:	0017      	movs	r7, r2
    7002:	2601      	movs	r6, #1
    7004:	0223      	lsls	r3, r4, #8
    7006:	d5a6      	bpl.n	6f56 <__aeabi_dadd+0x17a>
    7008:	2602      	movs	r6, #2
    700a:	e7d5      	b.n	6fb8 <__aeabi_dadd+0x1dc>
    700c:	2d00      	cmp	r5, #0
    700e:	d16e      	bne.n	70ee <__aeabi_dadd+0x312>
    7010:	1c70      	adds	r0, r6, #1
    7012:	0540      	lsls	r0, r0, #21
    7014:	0d40      	lsrs	r0, r0, #21
    7016:	2801      	cmp	r0, #1
    7018:	dc00      	bgt.n	701c <__aeabi_dadd+0x240>
    701a:	e0f9      	b.n	7210 <__aeabi_dadd+0x434>
    701c:	1ab8      	subs	r0, r7, r2
    701e:	4684      	mov	ip, r0
    7020:	4287      	cmp	r7, r0
    7022:	4180      	sbcs	r0, r0
    7024:	1ae5      	subs	r5, r4, r3
    7026:	4240      	negs	r0, r0
    7028:	1a2d      	subs	r5, r5, r0
    702a:	0228      	lsls	r0, r5, #8
    702c:	d400      	bmi.n	7030 <__aeabi_dadd+0x254>
    702e:	e089      	b.n	7144 <__aeabi_dadd+0x368>
    7030:	1bd7      	subs	r7, r2, r7
    7032:	42ba      	cmp	r2, r7
    7034:	4192      	sbcs	r2, r2
    7036:	1b1c      	subs	r4, r3, r4
    7038:	4252      	negs	r2, r2
    703a:	1aa5      	subs	r5, r4, r2
    703c:	46d8      	mov	r8, fp
    703e:	e729      	b.n	6e94 <__aeabi_dadd+0xb8>
    7040:	4645      	mov	r5, r8
    7042:	2400      	movs	r4, #0
    7044:	2700      	movs	r7, #0
    7046:	e76a      	b.n	6f1e <__aeabi_dadd+0x142>
    7048:	4c45      	ldr	r4, [pc, #276]	; (7160 <__aeabi_dadd+0x384>)
    704a:	1af6      	subs	r6, r6, r3
    704c:	402c      	ands	r4, r5
    704e:	e749      	b.n	6ee4 <__aeabi_dadd+0x108>
    7050:	003d      	movs	r5, r7
    7052:	3828      	subs	r0, #40	; 0x28
    7054:	4085      	lsls	r5, r0
    7056:	2700      	movs	r7, #0
    7058:	e72e      	b.n	6eb8 <__aeabi_dadd+0xdc>
    705a:	0038      	movs	r0, r7
    705c:	f7fb fd8e 	bl	2b7c <__clzsi2>
    7060:	3020      	adds	r0, #32
    7062:	e71d      	b.n	6ea0 <__aeabi_dadd+0xc4>
    7064:	430a      	orrs	r2, r1
    7066:	1e51      	subs	r1, r2, #1
    7068:	418a      	sbcs	r2, r1
    706a:	2100      	movs	r1, #0
    706c:	e707      	b.n	6e7e <__aeabi_dadd+0xa2>
    706e:	2b00      	cmp	r3, #0
    7070:	d000      	beq.n	7074 <__aeabi_dadd+0x298>
    7072:	e0f3      	b.n	725c <__aeabi_dadd+0x480>
    7074:	1c70      	adds	r0, r6, #1
    7076:	0543      	lsls	r3, r0, #21
    7078:	0d5b      	lsrs	r3, r3, #21
    707a:	2b01      	cmp	r3, #1
    707c:	dc00      	bgt.n	7080 <__aeabi_dadd+0x2a4>
    707e:	e0ad      	b.n	71dc <__aeabi_dadd+0x400>
    7080:	4b36      	ldr	r3, [pc, #216]	; (715c <__aeabi_dadd+0x380>)
    7082:	4298      	cmp	r0, r3
    7084:	d100      	bne.n	7088 <__aeabi_dadd+0x2ac>
    7086:	e0d1      	b.n	722c <__aeabi_dadd+0x450>
    7088:	18ba      	adds	r2, r7, r2
    708a:	42ba      	cmp	r2, r7
    708c:	41bf      	sbcs	r7, r7
    708e:	1864      	adds	r4, r4, r1
    7090:	427f      	negs	r7, r7
    7092:	19e4      	adds	r4, r4, r7
    7094:	07e7      	lsls	r7, r4, #31
    7096:	0852      	lsrs	r2, r2, #1
    7098:	4317      	orrs	r7, r2
    709a:	0864      	lsrs	r4, r4, #1
    709c:	0006      	movs	r6, r0
    709e:	e721      	b.n	6ee4 <__aeabi_dadd+0x108>
    70a0:	482e      	ldr	r0, [pc, #184]	; (715c <__aeabi_dadd+0x380>)
    70a2:	4285      	cmp	r5, r0
    70a4:	d100      	bne.n	70a8 <__aeabi_dadd+0x2cc>
    70a6:	e093      	b.n	71d0 <__aeabi_dadd+0x3f4>
    70a8:	001d      	movs	r5, r3
    70aa:	e6d0      	b.n	6e4e <__aeabi_dadd+0x72>
    70ac:	0029      	movs	r1, r5
    70ae:	3e1f      	subs	r6, #31
    70b0:	40f1      	lsrs	r1, r6
    70b2:	2b20      	cmp	r3, #32
    70b4:	d100      	bne.n	70b8 <__aeabi_dadd+0x2dc>
    70b6:	e08d      	b.n	71d4 <__aeabi_dadd+0x3f8>
    70b8:	2240      	movs	r2, #64	; 0x40
    70ba:	1ad3      	subs	r3, r2, r3
    70bc:	409d      	lsls	r5, r3
    70be:	432f      	orrs	r7, r5
    70c0:	1e7d      	subs	r5, r7, #1
    70c2:	41af      	sbcs	r7, r5
    70c4:	2400      	movs	r4, #0
    70c6:	430f      	orrs	r7, r1
    70c8:	2600      	movs	r6, #0
    70ca:	e744      	b.n	6f56 <__aeabi_dadd+0x17a>
    70cc:	002b      	movs	r3, r5
    70ce:	0008      	movs	r0, r1
    70d0:	3b20      	subs	r3, #32
    70d2:	40d8      	lsrs	r0, r3
    70d4:	0003      	movs	r3, r0
    70d6:	2d20      	cmp	r5, #32
    70d8:	d100      	bne.n	70dc <__aeabi_dadd+0x300>
    70da:	e07d      	b.n	71d8 <__aeabi_dadd+0x3fc>
    70dc:	2040      	movs	r0, #64	; 0x40
    70de:	1b45      	subs	r5, r0, r5
    70e0:	40a9      	lsls	r1, r5
    70e2:	430a      	orrs	r2, r1
    70e4:	1e51      	subs	r1, r2, #1
    70e6:	418a      	sbcs	r2, r1
    70e8:	2100      	movs	r1, #0
    70ea:	431a      	orrs	r2, r3
    70ec:	e6c7      	b.n	6e7e <__aeabi_dadd+0xa2>
    70ee:	2e00      	cmp	r6, #0
    70f0:	d050      	beq.n	7194 <__aeabi_dadd+0x3b8>
    70f2:	4e1a      	ldr	r6, [pc, #104]	; (715c <__aeabi_dadd+0x380>)
    70f4:	42b0      	cmp	r0, r6
    70f6:	d057      	beq.n	71a8 <__aeabi_dadd+0x3cc>
    70f8:	2680      	movs	r6, #128	; 0x80
    70fa:	426b      	negs	r3, r5
    70fc:	4699      	mov	r9, r3
    70fe:	0436      	lsls	r6, r6, #16
    7100:	4334      	orrs	r4, r6
    7102:	464b      	mov	r3, r9
    7104:	2b38      	cmp	r3, #56	; 0x38
    7106:	dd00      	ble.n	710a <__aeabi_dadd+0x32e>
    7108:	e0d6      	b.n	72b8 <__aeabi_dadd+0x4dc>
    710a:	2b1f      	cmp	r3, #31
    710c:	dd00      	ble.n	7110 <__aeabi_dadd+0x334>
    710e:	e135      	b.n	737c <__aeabi_dadd+0x5a0>
    7110:	2620      	movs	r6, #32
    7112:	1af5      	subs	r5, r6, r3
    7114:	0026      	movs	r6, r4
    7116:	40ae      	lsls	r6, r5
    7118:	46b2      	mov	sl, r6
    711a:	003e      	movs	r6, r7
    711c:	40de      	lsrs	r6, r3
    711e:	46ac      	mov	ip, r5
    7120:	0035      	movs	r5, r6
    7122:	4656      	mov	r6, sl
    7124:	432e      	orrs	r6, r5
    7126:	4665      	mov	r5, ip
    7128:	40af      	lsls	r7, r5
    712a:	1e7d      	subs	r5, r7, #1
    712c:	41af      	sbcs	r7, r5
    712e:	40dc      	lsrs	r4, r3
    7130:	4337      	orrs	r7, r6
    7132:	1bd7      	subs	r7, r2, r7
    7134:	42ba      	cmp	r2, r7
    7136:	4192      	sbcs	r2, r2
    7138:	1b0c      	subs	r4, r1, r4
    713a:	4252      	negs	r2, r2
    713c:	1aa4      	subs	r4, r4, r2
    713e:	0006      	movs	r6, r0
    7140:	46d8      	mov	r8, fp
    7142:	e6a3      	b.n	6e8c <__aeabi_dadd+0xb0>
    7144:	4664      	mov	r4, ip
    7146:	4667      	mov	r7, ip
    7148:	432c      	orrs	r4, r5
    714a:	d000      	beq.n	714e <__aeabi_dadd+0x372>
    714c:	e6a2      	b.n	6e94 <__aeabi_dadd+0xb8>
    714e:	2500      	movs	r5, #0
    7150:	2600      	movs	r6, #0
    7152:	2700      	movs	r7, #0
    7154:	e706      	b.n	6f64 <__aeabi_dadd+0x188>
    7156:	001e      	movs	r6, r3
    7158:	e6c4      	b.n	6ee4 <__aeabi_dadd+0x108>
    715a:	46c0      	nop			; (mov r8, r8)
    715c:	000007ff 	.word	0x000007ff
    7160:	ff7fffff 	.word	0xff7fffff
    7164:	800fffff 	.word	0x800fffff
    7168:	2b1f      	cmp	r3, #31
    716a:	dc63      	bgt.n	7234 <__aeabi_dadd+0x458>
    716c:	2020      	movs	r0, #32
    716e:	1ac3      	subs	r3, r0, r3
    7170:	0008      	movs	r0, r1
    7172:	4098      	lsls	r0, r3
    7174:	469c      	mov	ip, r3
    7176:	4683      	mov	fp, r0
    7178:	4653      	mov	r3, sl
    717a:	0010      	movs	r0, r2
    717c:	40d8      	lsrs	r0, r3
    717e:	0003      	movs	r3, r0
    7180:	4658      	mov	r0, fp
    7182:	4318      	orrs	r0, r3
    7184:	4663      	mov	r3, ip
    7186:	409a      	lsls	r2, r3
    7188:	1e53      	subs	r3, r2, #1
    718a:	419a      	sbcs	r2, r3
    718c:	4653      	mov	r3, sl
    718e:	4302      	orrs	r2, r0
    7190:	40d9      	lsrs	r1, r3
    7192:	e703      	b.n	6f9c <__aeabi_dadd+0x1c0>
    7194:	0026      	movs	r6, r4
    7196:	433e      	orrs	r6, r7
    7198:	d006      	beq.n	71a8 <__aeabi_dadd+0x3cc>
    719a:	43eb      	mvns	r3, r5
    719c:	4699      	mov	r9, r3
    719e:	2b00      	cmp	r3, #0
    71a0:	d0c7      	beq.n	7132 <__aeabi_dadd+0x356>
    71a2:	4e94      	ldr	r6, [pc, #592]	; (73f4 <__aeabi_dadd+0x618>)
    71a4:	42b0      	cmp	r0, r6
    71a6:	d1ac      	bne.n	7102 <__aeabi_dadd+0x326>
    71a8:	000c      	movs	r4, r1
    71aa:	0017      	movs	r7, r2
    71ac:	0006      	movs	r6, r0
    71ae:	46d8      	mov	r8, fp
    71b0:	e698      	b.n	6ee4 <__aeabi_dadd+0x108>
    71b2:	4b90      	ldr	r3, [pc, #576]	; (73f4 <__aeabi_dadd+0x618>)
    71b4:	459a      	cmp	sl, r3
    71b6:	d00b      	beq.n	71d0 <__aeabi_dadd+0x3f4>
    71b8:	4682      	mov	sl, r0
    71ba:	e6e7      	b.n	6f8c <__aeabi_dadd+0x1b0>
    71bc:	2800      	cmp	r0, #0
    71be:	d000      	beq.n	71c2 <__aeabi_dadd+0x3e6>
    71c0:	e09e      	b.n	7300 <__aeabi_dadd+0x524>
    71c2:	0018      	movs	r0, r3
    71c4:	4310      	orrs	r0, r2
    71c6:	d100      	bne.n	71ca <__aeabi_dadd+0x3ee>
    71c8:	e0e9      	b.n	739e <__aeabi_dadd+0x5c2>
    71ca:	001c      	movs	r4, r3
    71cc:	0017      	movs	r7, r2
    71ce:	46d8      	mov	r8, fp
    71d0:	4e88      	ldr	r6, [pc, #544]	; (73f4 <__aeabi_dadd+0x618>)
    71d2:	e687      	b.n	6ee4 <__aeabi_dadd+0x108>
    71d4:	2500      	movs	r5, #0
    71d6:	e772      	b.n	70be <__aeabi_dadd+0x2e2>
    71d8:	2100      	movs	r1, #0
    71da:	e782      	b.n	70e2 <__aeabi_dadd+0x306>
    71dc:	0023      	movs	r3, r4
    71de:	433b      	orrs	r3, r7
    71e0:	2e00      	cmp	r6, #0
    71e2:	d000      	beq.n	71e6 <__aeabi_dadd+0x40a>
    71e4:	e0ab      	b.n	733e <__aeabi_dadd+0x562>
    71e6:	2b00      	cmp	r3, #0
    71e8:	d100      	bne.n	71ec <__aeabi_dadd+0x410>
    71ea:	e0e7      	b.n	73bc <__aeabi_dadd+0x5e0>
    71ec:	000b      	movs	r3, r1
    71ee:	4313      	orrs	r3, r2
    71f0:	d100      	bne.n	71f4 <__aeabi_dadd+0x418>
    71f2:	e677      	b.n	6ee4 <__aeabi_dadd+0x108>
    71f4:	18ba      	adds	r2, r7, r2
    71f6:	42ba      	cmp	r2, r7
    71f8:	41bf      	sbcs	r7, r7
    71fa:	1864      	adds	r4, r4, r1
    71fc:	427f      	negs	r7, r7
    71fe:	19e4      	adds	r4, r4, r7
    7200:	0223      	lsls	r3, r4, #8
    7202:	d400      	bmi.n	7206 <__aeabi_dadd+0x42a>
    7204:	e0f2      	b.n	73ec <__aeabi_dadd+0x610>
    7206:	4b7c      	ldr	r3, [pc, #496]	; (73f8 <__aeabi_dadd+0x61c>)
    7208:	0017      	movs	r7, r2
    720a:	401c      	ands	r4, r3
    720c:	0006      	movs	r6, r0
    720e:	e669      	b.n	6ee4 <__aeabi_dadd+0x108>
    7210:	0020      	movs	r0, r4
    7212:	4338      	orrs	r0, r7
    7214:	2e00      	cmp	r6, #0
    7216:	d1d1      	bne.n	71bc <__aeabi_dadd+0x3e0>
    7218:	2800      	cmp	r0, #0
    721a:	d15b      	bne.n	72d4 <__aeabi_dadd+0x4f8>
    721c:	001c      	movs	r4, r3
    721e:	4314      	orrs	r4, r2
    7220:	d100      	bne.n	7224 <__aeabi_dadd+0x448>
    7222:	e0a8      	b.n	7376 <__aeabi_dadd+0x59a>
    7224:	001c      	movs	r4, r3
    7226:	0017      	movs	r7, r2
    7228:	46d8      	mov	r8, fp
    722a:	e65b      	b.n	6ee4 <__aeabi_dadd+0x108>
    722c:	0006      	movs	r6, r0
    722e:	2400      	movs	r4, #0
    7230:	2700      	movs	r7, #0
    7232:	e697      	b.n	6f64 <__aeabi_dadd+0x188>
    7234:	4650      	mov	r0, sl
    7236:	000b      	movs	r3, r1
    7238:	3820      	subs	r0, #32
    723a:	40c3      	lsrs	r3, r0
    723c:	4699      	mov	r9, r3
    723e:	4653      	mov	r3, sl
    7240:	2b20      	cmp	r3, #32
    7242:	d100      	bne.n	7246 <__aeabi_dadd+0x46a>
    7244:	e095      	b.n	7372 <__aeabi_dadd+0x596>
    7246:	2340      	movs	r3, #64	; 0x40
    7248:	4650      	mov	r0, sl
    724a:	1a1b      	subs	r3, r3, r0
    724c:	4099      	lsls	r1, r3
    724e:	430a      	orrs	r2, r1
    7250:	1e51      	subs	r1, r2, #1
    7252:	418a      	sbcs	r2, r1
    7254:	464b      	mov	r3, r9
    7256:	2100      	movs	r1, #0
    7258:	431a      	orrs	r2, r3
    725a:	e69f      	b.n	6f9c <__aeabi_dadd+0x1c0>
    725c:	2e00      	cmp	r6, #0
    725e:	d130      	bne.n	72c2 <__aeabi_dadd+0x4e6>
    7260:	0026      	movs	r6, r4
    7262:	433e      	orrs	r6, r7
    7264:	d067      	beq.n	7336 <__aeabi_dadd+0x55a>
    7266:	43db      	mvns	r3, r3
    7268:	469a      	mov	sl, r3
    726a:	2b00      	cmp	r3, #0
    726c:	d01c      	beq.n	72a8 <__aeabi_dadd+0x4cc>
    726e:	4e61      	ldr	r6, [pc, #388]	; (73f4 <__aeabi_dadd+0x618>)
    7270:	42b0      	cmp	r0, r6
    7272:	d060      	beq.n	7336 <__aeabi_dadd+0x55a>
    7274:	4653      	mov	r3, sl
    7276:	2b38      	cmp	r3, #56	; 0x38
    7278:	dd00      	ble.n	727c <__aeabi_dadd+0x4a0>
    727a:	e096      	b.n	73aa <__aeabi_dadd+0x5ce>
    727c:	2b1f      	cmp	r3, #31
    727e:	dd00      	ble.n	7282 <__aeabi_dadd+0x4a6>
    7280:	e09f      	b.n	73c2 <__aeabi_dadd+0x5e6>
    7282:	2620      	movs	r6, #32
    7284:	1af3      	subs	r3, r6, r3
    7286:	0026      	movs	r6, r4
    7288:	409e      	lsls	r6, r3
    728a:	469c      	mov	ip, r3
    728c:	46b3      	mov	fp, r6
    728e:	4653      	mov	r3, sl
    7290:	003e      	movs	r6, r7
    7292:	40de      	lsrs	r6, r3
    7294:	0033      	movs	r3, r6
    7296:	465e      	mov	r6, fp
    7298:	431e      	orrs	r6, r3
    729a:	4663      	mov	r3, ip
    729c:	409f      	lsls	r7, r3
    729e:	1e7b      	subs	r3, r7, #1
    72a0:	419f      	sbcs	r7, r3
    72a2:	4653      	mov	r3, sl
    72a4:	40dc      	lsrs	r4, r3
    72a6:	4337      	orrs	r7, r6
    72a8:	18bf      	adds	r7, r7, r2
    72aa:	4297      	cmp	r7, r2
    72ac:	4192      	sbcs	r2, r2
    72ae:	1864      	adds	r4, r4, r1
    72b0:	4252      	negs	r2, r2
    72b2:	18a4      	adds	r4, r4, r2
    72b4:	0006      	movs	r6, r0
    72b6:	e678      	b.n	6faa <__aeabi_dadd+0x1ce>
    72b8:	4327      	orrs	r7, r4
    72ba:	1e7c      	subs	r4, r7, #1
    72bc:	41a7      	sbcs	r7, r4
    72be:	2400      	movs	r4, #0
    72c0:	e737      	b.n	7132 <__aeabi_dadd+0x356>
    72c2:	4e4c      	ldr	r6, [pc, #304]	; (73f4 <__aeabi_dadd+0x618>)
    72c4:	42b0      	cmp	r0, r6
    72c6:	d036      	beq.n	7336 <__aeabi_dadd+0x55a>
    72c8:	2680      	movs	r6, #128	; 0x80
    72ca:	425b      	negs	r3, r3
    72cc:	0436      	lsls	r6, r6, #16
    72ce:	469a      	mov	sl, r3
    72d0:	4334      	orrs	r4, r6
    72d2:	e7cf      	b.n	7274 <__aeabi_dadd+0x498>
    72d4:	0018      	movs	r0, r3
    72d6:	4310      	orrs	r0, r2
    72d8:	d100      	bne.n	72dc <__aeabi_dadd+0x500>
    72da:	e603      	b.n	6ee4 <__aeabi_dadd+0x108>
    72dc:	1ab8      	subs	r0, r7, r2
    72de:	4684      	mov	ip, r0
    72e0:	4567      	cmp	r7, ip
    72e2:	41ad      	sbcs	r5, r5
    72e4:	1ae0      	subs	r0, r4, r3
    72e6:	426d      	negs	r5, r5
    72e8:	1b40      	subs	r0, r0, r5
    72ea:	0205      	lsls	r5, r0, #8
    72ec:	d400      	bmi.n	72f0 <__aeabi_dadd+0x514>
    72ee:	e62c      	b.n	6f4a <__aeabi_dadd+0x16e>
    72f0:	1bd7      	subs	r7, r2, r7
    72f2:	42ba      	cmp	r2, r7
    72f4:	4192      	sbcs	r2, r2
    72f6:	1b1c      	subs	r4, r3, r4
    72f8:	4252      	negs	r2, r2
    72fa:	1aa4      	subs	r4, r4, r2
    72fc:	46d8      	mov	r8, fp
    72fe:	e5f1      	b.n	6ee4 <__aeabi_dadd+0x108>
    7300:	0018      	movs	r0, r3
    7302:	4310      	orrs	r0, r2
    7304:	d100      	bne.n	7308 <__aeabi_dadd+0x52c>
    7306:	e763      	b.n	71d0 <__aeabi_dadd+0x3f4>
    7308:	08f8      	lsrs	r0, r7, #3
    730a:	0767      	lsls	r7, r4, #29
    730c:	4307      	orrs	r7, r0
    730e:	2080      	movs	r0, #128	; 0x80
    7310:	08e4      	lsrs	r4, r4, #3
    7312:	0300      	lsls	r0, r0, #12
    7314:	4204      	tst	r4, r0
    7316:	d008      	beq.n	732a <__aeabi_dadd+0x54e>
    7318:	08dd      	lsrs	r5, r3, #3
    731a:	4205      	tst	r5, r0
    731c:	d105      	bne.n	732a <__aeabi_dadd+0x54e>
    731e:	08d2      	lsrs	r2, r2, #3
    7320:	0759      	lsls	r1, r3, #29
    7322:	4311      	orrs	r1, r2
    7324:	000f      	movs	r7, r1
    7326:	002c      	movs	r4, r5
    7328:	46d8      	mov	r8, fp
    732a:	0f7b      	lsrs	r3, r7, #29
    732c:	00e4      	lsls	r4, r4, #3
    732e:	431c      	orrs	r4, r3
    7330:	00ff      	lsls	r7, r7, #3
    7332:	4e30      	ldr	r6, [pc, #192]	; (73f4 <__aeabi_dadd+0x618>)
    7334:	e5d6      	b.n	6ee4 <__aeabi_dadd+0x108>
    7336:	000c      	movs	r4, r1
    7338:	0017      	movs	r7, r2
    733a:	0006      	movs	r6, r0
    733c:	e5d2      	b.n	6ee4 <__aeabi_dadd+0x108>
    733e:	2b00      	cmp	r3, #0
    7340:	d038      	beq.n	73b4 <__aeabi_dadd+0x5d8>
    7342:	000b      	movs	r3, r1
    7344:	4313      	orrs	r3, r2
    7346:	d100      	bne.n	734a <__aeabi_dadd+0x56e>
    7348:	e742      	b.n	71d0 <__aeabi_dadd+0x3f4>
    734a:	08f8      	lsrs	r0, r7, #3
    734c:	0767      	lsls	r7, r4, #29
    734e:	4307      	orrs	r7, r0
    7350:	2080      	movs	r0, #128	; 0x80
    7352:	08e4      	lsrs	r4, r4, #3
    7354:	0300      	lsls	r0, r0, #12
    7356:	4204      	tst	r4, r0
    7358:	d0e7      	beq.n	732a <__aeabi_dadd+0x54e>
    735a:	08cb      	lsrs	r3, r1, #3
    735c:	4203      	tst	r3, r0
    735e:	d1e4      	bne.n	732a <__aeabi_dadd+0x54e>
    7360:	08d2      	lsrs	r2, r2, #3
    7362:	0749      	lsls	r1, r1, #29
    7364:	4311      	orrs	r1, r2
    7366:	000f      	movs	r7, r1
    7368:	001c      	movs	r4, r3
    736a:	e7de      	b.n	732a <__aeabi_dadd+0x54e>
    736c:	2700      	movs	r7, #0
    736e:	2400      	movs	r4, #0
    7370:	e5d5      	b.n	6f1e <__aeabi_dadd+0x142>
    7372:	2100      	movs	r1, #0
    7374:	e76b      	b.n	724e <__aeabi_dadd+0x472>
    7376:	2500      	movs	r5, #0
    7378:	2700      	movs	r7, #0
    737a:	e5f3      	b.n	6f64 <__aeabi_dadd+0x188>
    737c:	464e      	mov	r6, r9
    737e:	0025      	movs	r5, r4
    7380:	3e20      	subs	r6, #32
    7382:	40f5      	lsrs	r5, r6
    7384:	464b      	mov	r3, r9
    7386:	002e      	movs	r6, r5
    7388:	2b20      	cmp	r3, #32
    738a:	d02d      	beq.n	73e8 <__aeabi_dadd+0x60c>
    738c:	2540      	movs	r5, #64	; 0x40
    738e:	1aed      	subs	r5, r5, r3
    7390:	40ac      	lsls	r4, r5
    7392:	4327      	orrs	r7, r4
    7394:	1e7c      	subs	r4, r7, #1
    7396:	41a7      	sbcs	r7, r4
    7398:	2400      	movs	r4, #0
    739a:	4337      	orrs	r7, r6
    739c:	e6c9      	b.n	7132 <__aeabi_dadd+0x356>
    739e:	2480      	movs	r4, #128	; 0x80
    73a0:	2500      	movs	r5, #0
    73a2:	0324      	lsls	r4, r4, #12
    73a4:	4e13      	ldr	r6, [pc, #76]	; (73f4 <__aeabi_dadd+0x618>)
    73a6:	2700      	movs	r7, #0
    73a8:	e5dc      	b.n	6f64 <__aeabi_dadd+0x188>
    73aa:	4327      	orrs	r7, r4
    73ac:	1e7c      	subs	r4, r7, #1
    73ae:	41a7      	sbcs	r7, r4
    73b0:	2400      	movs	r4, #0
    73b2:	e779      	b.n	72a8 <__aeabi_dadd+0x4cc>
    73b4:	000c      	movs	r4, r1
    73b6:	0017      	movs	r7, r2
    73b8:	4e0e      	ldr	r6, [pc, #56]	; (73f4 <__aeabi_dadd+0x618>)
    73ba:	e593      	b.n	6ee4 <__aeabi_dadd+0x108>
    73bc:	000c      	movs	r4, r1
    73be:	0017      	movs	r7, r2
    73c0:	e590      	b.n	6ee4 <__aeabi_dadd+0x108>
    73c2:	4656      	mov	r6, sl
    73c4:	0023      	movs	r3, r4
    73c6:	3e20      	subs	r6, #32
    73c8:	40f3      	lsrs	r3, r6
    73ca:	4699      	mov	r9, r3
    73cc:	4653      	mov	r3, sl
    73ce:	2b20      	cmp	r3, #32
    73d0:	d00e      	beq.n	73f0 <__aeabi_dadd+0x614>
    73d2:	2340      	movs	r3, #64	; 0x40
    73d4:	4656      	mov	r6, sl
    73d6:	1b9b      	subs	r3, r3, r6
    73d8:	409c      	lsls	r4, r3
    73da:	4327      	orrs	r7, r4
    73dc:	1e7c      	subs	r4, r7, #1
    73de:	41a7      	sbcs	r7, r4
    73e0:	464b      	mov	r3, r9
    73e2:	2400      	movs	r4, #0
    73e4:	431f      	orrs	r7, r3
    73e6:	e75f      	b.n	72a8 <__aeabi_dadd+0x4cc>
    73e8:	2400      	movs	r4, #0
    73ea:	e7d2      	b.n	7392 <__aeabi_dadd+0x5b6>
    73ec:	0017      	movs	r7, r2
    73ee:	e5b2      	b.n	6f56 <__aeabi_dadd+0x17a>
    73f0:	2400      	movs	r4, #0
    73f2:	e7f2      	b.n	73da <__aeabi_dadd+0x5fe>
    73f4:	000007ff 	.word	0x000007ff
    73f8:	ff7fffff 	.word	0xff7fffff

000073fc <__aeabi_ddiv>:
    73fc:	b5f0      	push	{r4, r5, r6, r7, lr}
    73fe:	4657      	mov	r7, sl
    7400:	4645      	mov	r5, r8
    7402:	46de      	mov	lr, fp
    7404:	464e      	mov	r6, r9
    7406:	b5e0      	push	{r5, r6, r7, lr}
    7408:	004c      	lsls	r4, r1, #1
    740a:	030e      	lsls	r6, r1, #12
    740c:	b087      	sub	sp, #28
    740e:	4683      	mov	fp, r0
    7410:	4692      	mov	sl, r2
    7412:	001d      	movs	r5, r3
    7414:	4680      	mov	r8, r0
    7416:	0b36      	lsrs	r6, r6, #12
    7418:	0d64      	lsrs	r4, r4, #21
    741a:	0fcf      	lsrs	r7, r1, #31
    741c:	2c00      	cmp	r4, #0
    741e:	d04f      	beq.n	74c0 <__aeabi_ddiv+0xc4>
    7420:	4b6f      	ldr	r3, [pc, #444]	; (75e0 <__aeabi_ddiv+0x1e4>)
    7422:	429c      	cmp	r4, r3
    7424:	d035      	beq.n	7492 <__aeabi_ddiv+0x96>
    7426:	2380      	movs	r3, #128	; 0x80
    7428:	0f42      	lsrs	r2, r0, #29
    742a:	041b      	lsls	r3, r3, #16
    742c:	00f6      	lsls	r6, r6, #3
    742e:	4313      	orrs	r3, r2
    7430:	4333      	orrs	r3, r6
    7432:	4699      	mov	r9, r3
    7434:	00c3      	lsls	r3, r0, #3
    7436:	4698      	mov	r8, r3
    7438:	4b6a      	ldr	r3, [pc, #424]	; (75e4 <__aeabi_ddiv+0x1e8>)
    743a:	2600      	movs	r6, #0
    743c:	469c      	mov	ip, r3
    743e:	2300      	movs	r3, #0
    7440:	4464      	add	r4, ip
    7442:	9303      	str	r3, [sp, #12]
    7444:	032b      	lsls	r3, r5, #12
    7446:	0b1b      	lsrs	r3, r3, #12
    7448:	469b      	mov	fp, r3
    744a:	006b      	lsls	r3, r5, #1
    744c:	0fed      	lsrs	r5, r5, #31
    744e:	4650      	mov	r0, sl
    7450:	0d5b      	lsrs	r3, r3, #21
    7452:	9501      	str	r5, [sp, #4]
    7454:	d05e      	beq.n	7514 <__aeabi_ddiv+0x118>
    7456:	4a62      	ldr	r2, [pc, #392]	; (75e0 <__aeabi_ddiv+0x1e4>)
    7458:	4293      	cmp	r3, r2
    745a:	d053      	beq.n	7504 <__aeabi_ddiv+0x108>
    745c:	465a      	mov	r2, fp
    745e:	00d1      	lsls	r1, r2, #3
    7460:	2280      	movs	r2, #128	; 0x80
    7462:	0f40      	lsrs	r0, r0, #29
    7464:	0412      	lsls	r2, r2, #16
    7466:	4302      	orrs	r2, r0
    7468:	430a      	orrs	r2, r1
    746a:	4693      	mov	fp, r2
    746c:	4652      	mov	r2, sl
    746e:	00d1      	lsls	r1, r2, #3
    7470:	4a5c      	ldr	r2, [pc, #368]	; (75e4 <__aeabi_ddiv+0x1e8>)
    7472:	4694      	mov	ip, r2
    7474:	2200      	movs	r2, #0
    7476:	4463      	add	r3, ip
    7478:	0038      	movs	r0, r7
    747a:	4068      	eors	r0, r5
    747c:	4684      	mov	ip, r0
    747e:	9002      	str	r0, [sp, #8]
    7480:	1ae4      	subs	r4, r4, r3
    7482:	4316      	orrs	r6, r2
    7484:	2e0f      	cmp	r6, #15
    7486:	d900      	bls.n	748a <__aeabi_ddiv+0x8e>
    7488:	e0b4      	b.n	75f4 <__aeabi_ddiv+0x1f8>
    748a:	4b57      	ldr	r3, [pc, #348]	; (75e8 <__aeabi_ddiv+0x1ec>)
    748c:	00b6      	lsls	r6, r6, #2
    748e:	599b      	ldr	r3, [r3, r6]
    7490:	469f      	mov	pc, r3
    7492:	0003      	movs	r3, r0
    7494:	4333      	orrs	r3, r6
    7496:	4699      	mov	r9, r3
    7498:	d16c      	bne.n	7574 <__aeabi_ddiv+0x178>
    749a:	2300      	movs	r3, #0
    749c:	4698      	mov	r8, r3
    749e:	3302      	adds	r3, #2
    74a0:	2608      	movs	r6, #8
    74a2:	9303      	str	r3, [sp, #12]
    74a4:	e7ce      	b.n	7444 <__aeabi_ddiv+0x48>
    74a6:	46cb      	mov	fp, r9
    74a8:	4641      	mov	r1, r8
    74aa:	9a03      	ldr	r2, [sp, #12]
    74ac:	9701      	str	r7, [sp, #4]
    74ae:	2a02      	cmp	r2, #2
    74b0:	d165      	bne.n	757e <__aeabi_ddiv+0x182>
    74b2:	9b01      	ldr	r3, [sp, #4]
    74b4:	4c4a      	ldr	r4, [pc, #296]	; (75e0 <__aeabi_ddiv+0x1e4>)
    74b6:	469c      	mov	ip, r3
    74b8:	2300      	movs	r3, #0
    74ba:	2200      	movs	r2, #0
    74bc:	4698      	mov	r8, r3
    74be:	e06b      	b.n	7598 <__aeabi_ddiv+0x19c>
    74c0:	0003      	movs	r3, r0
    74c2:	4333      	orrs	r3, r6
    74c4:	4699      	mov	r9, r3
    74c6:	d04e      	beq.n	7566 <__aeabi_ddiv+0x16a>
    74c8:	2e00      	cmp	r6, #0
    74ca:	d100      	bne.n	74ce <__aeabi_ddiv+0xd2>
    74cc:	e1bc      	b.n	7848 <__aeabi_ddiv+0x44c>
    74ce:	0030      	movs	r0, r6
    74d0:	f7fb fb54 	bl	2b7c <__clzsi2>
    74d4:	0003      	movs	r3, r0
    74d6:	3b0b      	subs	r3, #11
    74d8:	2b1c      	cmp	r3, #28
    74da:	dd00      	ble.n	74de <__aeabi_ddiv+0xe2>
    74dc:	e1ac      	b.n	7838 <__aeabi_ddiv+0x43c>
    74de:	221d      	movs	r2, #29
    74e0:	1ad3      	subs	r3, r2, r3
    74e2:	465a      	mov	r2, fp
    74e4:	0001      	movs	r1, r0
    74e6:	40da      	lsrs	r2, r3
    74e8:	3908      	subs	r1, #8
    74ea:	408e      	lsls	r6, r1
    74ec:	0013      	movs	r3, r2
    74ee:	4333      	orrs	r3, r6
    74f0:	4699      	mov	r9, r3
    74f2:	465b      	mov	r3, fp
    74f4:	408b      	lsls	r3, r1
    74f6:	4698      	mov	r8, r3
    74f8:	2300      	movs	r3, #0
    74fa:	4c3c      	ldr	r4, [pc, #240]	; (75ec <__aeabi_ddiv+0x1f0>)
    74fc:	2600      	movs	r6, #0
    74fe:	1a24      	subs	r4, r4, r0
    7500:	9303      	str	r3, [sp, #12]
    7502:	e79f      	b.n	7444 <__aeabi_ddiv+0x48>
    7504:	4651      	mov	r1, sl
    7506:	465a      	mov	r2, fp
    7508:	4311      	orrs	r1, r2
    750a:	d129      	bne.n	7560 <__aeabi_ddiv+0x164>
    750c:	2200      	movs	r2, #0
    750e:	4693      	mov	fp, r2
    7510:	3202      	adds	r2, #2
    7512:	e7b1      	b.n	7478 <__aeabi_ddiv+0x7c>
    7514:	4659      	mov	r1, fp
    7516:	4301      	orrs	r1, r0
    7518:	d01e      	beq.n	7558 <__aeabi_ddiv+0x15c>
    751a:	465b      	mov	r3, fp
    751c:	2b00      	cmp	r3, #0
    751e:	d100      	bne.n	7522 <__aeabi_ddiv+0x126>
    7520:	e19e      	b.n	7860 <__aeabi_ddiv+0x464>
    7522:	4658      	mov	r0, fp
    7524:	f7fb fb2a 	bl	2b7c <__clzsi2>
    7528:	0003      	movs	r3, r0
    752a:	3b0b      	subs	r3, #11
    752c:	2b1c      	cmp	r3, #28
    752e:	dd00      	ble.n	7532 <__aeabi_ddiv+0x136>
    7530:	e18f      	b.n	7852 <__aeabi_ddiv+0x456>
    7532:	0002      	movs	r2, r0
    7534:	4659      	mov	r1, fp
    7536:	3a08      	subs	r2, #8
    7538:	4091      	lsls	r1, r2
    753a:	468b      	mov	fp, r1
    753c:	211d      	movs	r1, #29
    753e:	1acb      	subs	r3, r1, r3
    7540:	4651      	mov	r1, sl
    7542:	40d9      	lsrs	r1, r3
    7544:	000b      	movs	r3, r1
    7546:	4659      	mov	r1, fp
    7548:	430b      	orrs	r3, r1
    754a:	4651      	mov	r1, sl
    754c:	469b      	mov	fp, r3
    754e:	4091      	lsls	r1, r2
    7550:	4b26      	ldr	r3, [pc, #152]	; (75ec <__aeabi_ddiv+0x1f0>)
    7552:	2200      	movs	r2, #0
    7554:	1a1b      	subs	r3, r3, r0
    7556:	e78f      	b.n	7478 <__aeabi_ddiv+0x7c>
    7558:	2300      	movs	r3, #0
    755a:	2201      	movs	r2, #1
    755c:	469b      	mov	fp, r3
    755e:	e78b      	b.n	7478 <__aeabi_ddiv+0x7c>
    7560:	4651      	mov	r1, sl
    7562:	2203      	movs	r2, #3
    7564:	e788      	b.n	7478 <__aeabi_ddiv+0x7c>
    7566:	2300      	movs	r3, #0
    7568:	4698      	mov	r8, r3
    756a:	3301      	adds	r3, #1
    756c:	2604      	movs	r6, #4
    756e:	2400      	movs	r4, #0
    7570:	9303      	str	r3, [sp, #12]
    7572:	e767      	b.n	7444 <__aeabi_ddiv+0x48>
    7574:	2303      	movs	r3, #3
    7576:	46b1      	mov	r9, r6
    7578:	9303      	str	r3, [sp, #12]
    757a:	260c      	movs	r6, #12
    757c:	e762      	b.n	7444 <__aeabi_ddiv+0x48>
    757e:	2a03      	cmp	r2, #3
    7580:	d100      	bne.n	7584 <__aeabi_ddiv+0x188>
    7582:	e25c      	b.n	7a3e <__aeabi_ddiv+0x642>
    7584:	9b01      	ldr	r3, [sp, #4]
    7586:	2a01      	cmp	r2, #1
    7588:	d000      	beq.n	758c <__aeabi_ddiv+0x190>
    758a:	e1e4      	b.n	7956 <__aeabi_ddiv+0x55a>
    758c:	4013      	ands	r3, r2
    758e:	469c      	mov	ip, r3
    7590:	2300      	movs	r3, #0
    7592:	2400      	movs	r4, #0
    7594:	2200      	movs	r2, #0
    7596:	4698      	mov	r8, r3
    7598:	2100      	movs	r1, #0
    759a:	0312      	lsls	r2, r2, #12
    759c:	0b13      	lsrs	r3, r2, #12
    759e:	0d0a      	lsrs	r2, r1, #20
    75a0:	0512      	lsls	r2, r2, #20
    75a2:	431a      	orrs	r2, r3
    75a4:	0523      	lsls	r3, r4, #20
    75a6:	4c12      	ldr	r4, [pc, #72]	; (75f0 <__aeabi_ddiv+0x1f4>)
    75a8:	4640      	mov	r0, r8
    75aa:	4022      	ands	r2, r4
    75ac:	4313      	orrs	r3, r2
    75ae:	4662      	mov	r2, ip
    75b0:	005b      	lsls	r3, r3, #1
    75b2:	07d2      	lsls	r2, r2, #31
    75b4:	085b      	lsrs	r3, r3, #1
    75b6:	4313      	orrs	r3, r2
    75b8:	0019      	movs	r1, r3
    75ba:	b007      	add	sp, #28
    75bc:	bc3c      	pop	{r2, r3, r4, r5}
    75be:	4690      	mov	r8, r2
    75c0:	4699      	mov	r9, r3
    75c2:	46a2      	mov	sl, r4
    75c4:	46ab      	mov	fp, r5
    75c6:	bdf0      	pop	{r4, r5, r6, r7, pc}
    75c8:	2300      	movs	r3, #0
    75ca:	2280      	movs	r2, #128	; 0x80
    75cc:	469c      	mov	ip, r3
    75ce:	0312      	lsls	r2, r2, #12
    75d0:	4698      	mov	r8, r3
    75d2:	4c03      	ldr	r4, [pc, #12]	; (75e0 <__aeabi_ddiv+0x1e4>)
    75d4:	e7e0      	b.n	7598 <__aeabi_ddiv+0x19c>
    75d6:	2300      	movs	r3, #0
    75d8:	4c01      	ldr	r4, [pc, #4]	; (75e0 <__aeabi_ddiv+0x1e4>)
    75da:	2200      	movs	r2, #0
    75dc:	4698      	mov	r8, r3
    75de:	e7db      	b.n	7598 <__aeabi_ddiv+0x19c>
    75e0:	000007ff 	.word	0x000007ff
    75e4:	fffffc01 	.word	0xfffffc01
    75e8:	00009308 	.word	0x00009308
    75ec:	fffffc0d 	.word	0xfffffc0d
    75f0:	800fffff 	.word	0x800fffff
    75f4:	45d9      	cmp	r9, fp
    75f6:	d900      	bls.n	75fa <__aeabi_ddiv+0x1fe>
    75f8:	e139      	b.n	786e <__aeabi_ddiv+0x472>
    75fa:	d100      	bne.n	75fe <__aeabi_ddiv+0x202>
    75fc:	e134      	b.n	7868 <__aeabi_ddiv+0x46c>
    75fe:	2300      	movs	r3, #0
    7600:	4646      	mov	r6, r8
    7602:	464d      	mov	r5, r9
    7604:	469a      	mov	sl, r3
    7606:	3c01      	subs	r4, #1
    7608:	465b      	mov	r3, fp
    760a:	0e0a      	lsrs	r2, r1, #24
    760c:	021b      	lsls	r3, r3, #8
    760e:	431a      	orrs	r2, r3
    7610:	020b      	lsls	r3, r1, #8
    7612:	0c17      	lsrs	r7, r2, #16
    7614:	9303      	str	r3, [sp, #12]
    7616:	0413      	lsls	r3, r2, #16
    7618:	0c1b      	lsrs	r3, r3, #16
    761a:	0039      	movs	r1, r7
    761c:	0028      	movs	r0, r5
    761e:	4690      	mov	r8, r2
    7620:	9301      	str	r3, [sp, #4]
    7622:	f7fa f9fb 	bl	1a1c <__udivsi3>
    7626:	0002      	movs	r2, r0
    7628:	9b01      	ldr	r3, [sp, #4]
    762a:	4683      	mov	fp, r0
    762c:	435a      	muls	r2, r3
    762e:	0028      	movs	r0, r5
    7630:	0039      	movs	r1, r7
    7632:	4691      	mov	r9, r2
    7634:	f7fa fa78 	bl	1b28 <__aeabi_uidivmod>
    7638:	0c35      	lsrs	r5, r6, #16
    763a:	0409      	lsls	r1, r1, #16
    763c:	430d      	orrs	r5, r1
    763e:	45a9      	cmp	r9, r5
    7640:	d90d      	bls.n	765e <__aeabi_ddiv+0x262>
    7642:	465b      	mov	r3, fp
    7644:	4445      	add	r5, r8
    7646:	3b01      	subs	r3, #1
    7648:	45a8      	cmp	r8, r5
    764a:	d900      	bls.n	764e <__aeabi_ddiv+0x252>
    764c:	e13a      	b.n	78c4 <__aeabi_ddiv+0x4c8>
    764e:	45a9      	cmp	r9, r5
    7650:	d800      	bhi.n	7654 <__aeabi_ddiv+0x258>
    7652:	e137      	b.n	78c4 <__aeabi_ddiv+0x4c8>
    7654:	2302      	movs	r3, #2
    7656:	425b      	negs	r3, r3
    7658:	469c      	mov	ip, r3
    765a:	4445      	add	r5, r8
    765c:	44e3      	add	fp, ip
    765e:	464b      	mov	r3, r9
    7660:	1aeb      	subs	r3, r5, r3
    7662:	0039      	movs	r1, r7
    7664:	0018      	movs	r0, r3
    7666:	9304      	str	r3, [sp, #16]
    7668:	f7fa f9d8 	bl	1a1c <__udivsi3>
    766c:	9b01      	ldr	r3, [sp, #4]
    766e:	0005      	movs	r5, r0
    7670:	4343      	muls	r3, r0
    7672:	0039      	movs	r1, r7
    7674:	9804      	ldr	r0, [sp, #16]
    7676:	4699      	mov	r9, r3
    7678:	f7fa fa56 	bl	1b28 <__aeabi_uidivmod>
    767c:	0433      	lsls	r3, r6, #16
    767e:	0409      	lsls	r1, r1, #16
    7680:	0c1b      	lsrs	r3, r3, #16
    7682:	430b      	orrs	r3, r1
    7684:	4599      	cmp	r9, r3
    7686:	d909      	bls.n	769c <__aeabi_ddiv+0x2a0>
    7688:	4443      	add	r3, r8
    768a:	1e6a      	subs	r2, r5, #1
    768c:	4598      	cmp	r8, r3
    768e:	d900      	bls.n	7692 <__aeabi_ddiv+0x296>
    7690:	e11a      	b.n	78c8 <__aeabi_ddiv+0x4cc>
    7692:	4599      	cmp	r9, r3
    7694:	d800      	bhi.n	7698 <__aeabi_ddiv+0x29c>
    7696:	e117      	b.n	78c8 <__aeabi_ddiv+0x4cc>
    7698:	3d02      	subs	r5, #2
    769a:	4443      	add	r3, r8
    769c:	464a      	mov	r2, r9
    769e:	1a9b      	subs	r3, r3, r2
    76a0:	465a      	mov	r2, fp
    76a2:	0412      	lsls	r2, r2, #16
    76a4:	432a      	orrs	r2, r5
    76a6:	9903      	ldr	r1, [sp, #12]
    76a8:	4693      	mov	fp, r2
    76aa:	0c10      	lsrs	r0, r2, #16
    76ac:	0c0a      	lsrs	r2, r1, #16
    76ae:	4691      	mov	r9, r2
    76b0:	0409      	lsls	r1, r1, #16
    76b2:	465a      	mov	r2, fp
    76b4:	0c09      	lsrs	r1, r1, #16
    76b6:	464e      	mov	r6, r9
    76b8:	000d      	movs	r5, r1
    76ba:	0412      	lsls	r2, r2, #16
    76bc:	0c12      	lsrs	r2, r2, #16
    76be:	4345      	muls	r5, r0
    76c0:	9105      	str	r1, [sp, #20]
    76c2:	4351      	muls	r1, r2
    76c4:	4372      	muls	r2, r6
    76c6:	4370      	muls	r0, r6
    76c8:	1952      	adds	r2, r2, r5
    76ca:	0c0e      	lsrs	r6, r1, #16
    76cc:	18b2      	adds	r2, r6, r2
    76ce:	4295      	cmp	r5, r2
    76d0:	d903      	bls.n	76da <__aeabi_ddiv+0x2de>
    76d2:	2580      	movs	r5, #128	; 0x80
    76d4:	026d      	lsls	r5, r5, #9
    76d6:	46ac      	mov	ip, r5
    76d8:	4460      	add	r0, ip
    76da:	0c15      	lsrs	r5, r2, #16
    76dc:	0409      	lsls	r1, r1, #16
    76de:	0412      	lsls	r2, r2, #16
    76e0:	0c09      	lsrs	r1, r1, #16
    76e2:	1828      	adds	r0, r5, r0
    76e4:	1852      	adds	r2, r2, r1
    76e6:	4283      	cmp	r3, r0
    76e8:	d200      	bcs.n	76ec <__aeabi_ddiv+0x2f0>
    76ea:	e0ce      	b.n	788a <__aeabi_ddiv+0x48e>
    76ec:	d100      	bne.n	76f0 <__aeabi_ddiv+0x2f4>
    76ee:	e0c8      	b.n	7882 <__aeabi_ddiv+0x486>
    76f0:	1a1d      	subs	r5, r3, r0
    76f2:	4653      	mov	r3, sl
    76f4:	1a9e      	subs	r6, r3, r2
    76f6:	45b2      	cmp	sl, r6
    76f8:	4192      	sbcs	r2, r2
    76fa:	4252      	negs	r2, r2
    76fc:	1aab      	subs	r3, r5, r2
    76fe:	469a      	mov	sl, r3
    7700:	4598      	cmp	r8, r3
    7702:	d100      	bne.n	7706 <__aeabi_ddiv+0x30a>
    7704:	e117      	b.n	7936 <__aeabi_ddiv+0x53a>
    7706:	0039      	movs	r1, r7
    7708:	0018      	movs	r0, r3
    770a:	f7fa f987 	bl	1a1c <__udivsi3>
    770e:	9b01      	ldr	r3, [sp, #4]
    7710:	0005      	movs	r5, r0
    7712:	4343      	muls	r3, r0
    7714:	0039      	movs	r1, r7
    7716:	4650      	mov	r0, sl
    7718:	9304      	str	r3, [sp, #16]
    771a:	f7fa fa05 	bl	1b28 <__aeabi_uidivmod>
    771e:	9804      	ldr	r0, [sp, #16]
    7720:	040b      	lsls	r3, r1, #16
    7722:	0c31      	lsrs	r1, r6, #16
    7724:	4319      	orrs	r1, r3
    7726:	4288      	cmp	r0, r1
    7728:	d909      	bls.n	773e <__aeabi_ddiv+0x342>
    772a:	4441      	add	r1, r8
    772c:	1e6b      	subs	r3, r5, #1
    772e:	4588      	cmp	r8, r1
    7730:	d900      	bls.n	7734 <__aeabi_ddiv+0x338>
    7732:	e107      	b.n	7944 <__aeabi_ddiv+0x548>
    7734:	4288      	cmp	r0, r1
    7736:	d800      	bhi.n	773a <__aeabi_ddiv+0x33e>
    7738:	e104      	b.n	7944 <__aeabi_ddiv+0x548>
    773a:	3d02      	subs	r5, #2
    773c:	4441      	add	r1, r8
    773e:	9b04      	ldr	r3, [sp, #16]
    7740:	1acb      	subs	r3, r1, r3
    7742:	0018      	movs	r0, r3
    7744:	0039      	movs	r1, r7
    7746:	9304      	str	r3, [sp, #16]
    7748:	f7fa f968 	bl	1a1c <__udivsi3>
    774c:	9b01      	ldr	r3, [sp, #4]
    774e:	4682      	mov	sl, r0
    7750:	4343      	muls	r3, r0
    7752:	0039      	movs	r1, r7
    7754:	9804      	ldr	r0, [sp, #16]
    7756:	9301      	str	r3, [sp, #4]
    7758:	f7fa f9e6 	bl	1b28 <__aeabi_uidivmod>
    775c:	9801      	ldr	r0, [sp, #4]
    775e:	040b      	lsls	r3, r1, #16
    7760:	0431      	lsls	r1, r6, #16
    7762:	0c09      	lsrs	r1, r1, #16
    7764:	4319      	orrs	r1, r3
    7766:	4288      	cmp	r0, r1
    7768:	d90d      	bls.n	7786 <__aeabi_ddiv+0x38a>
    776a:	4653      	mov	r3, sl
    776c:	4441      	add	r1, r8
    776e:	3b01      	subs	r3, #1
    7770:	4588      	cmp	r8, r1
    7772:	d900      	bls.n	7776 <__aeabi_ddiv+0x37a>
    7774:	e0e8      	b.n	7948 <__aeabi_ddiv+0x54c>
    7776:	4288      	cmp	r0, r1
    7778:	d800      	bhi.n	777c <__aeabi_ddiv+0x380>
    777a:	e0e5      	b.n	7948 <__aeabi_ddiv+0x54c>
    777c:	2302      	movs	r3, #2
    777e:	425b      	negs	r3, r3
    7780:	469c      	mov	ip, r3
    7782:	4441      	add	r1, r8
    7784:	44e2      	add	sl, ip
    7786:	9b01      	ldr	r3, [sp, #4]
    7788:	042d      	lsls	r5, r5, #16
    778a:	1ace      	subs	r6, r1, r3
    778c:	4651      	mov	r1, sl
    778e:	4329      	orrs	r1, r5
    7790:	9d05      	ldr	r5, [sp, #20]
    7792:	464f      	mov	r7, r9
    7794:	002a      	movs	r2, r5
    7796:	040b      	lsls	r3, r1, #16
    7798:	0c08      	lsrs	r0, r1, #16
    779a:	0c1b      	lsrs	r3, r3, #16
    779c:	435a      	muls	r2, r3
    779e:	4345      	muls	r5, r0
    77a0:	437b      	muls	r3, r7
    77a2:	4378      	muls	r0, r7
    77a4:	195b      	adds	r3, r3, r5
    77a6:	0c17      	lsrs	r7, r2, #16
    77a8:	18fb      	adds	r3, r7, r3
    77aa:	429d      	cmp	r5, r3
    77ac:	d903      	bls.n	77b6 <__aeabi_ddiv+0x3ba>
    77ae:	2580      	movs	r5, #128	; 0x80
    77b0:	026d      	lsls	r5, r5, #9
    77b2:	46ac      	mov	ip, r5
    77b4:	4460      	add	r0, ip
    77b6:	0c1d      	lsrs	r5, r3, #16
    77b8:	0412      	lsls	r2, r2, #16
    77ba:	041b      	lsls	r3, r3, #16
    77bc:	0c12      	lsrs	r2, r2, #16
    77be:	1828      	adds	r0, r5, r0
    77c0:	189b      	adds	r3, r3, r2
    77c2:	4286      	cmp	r6, r0
    77c4:	d200      	bcs.n	77c8 <__aeabi_ddiv+0x3cc>
    77c6:	e093      	b.n	78f0 <__aeabi_ddiv+0x4f4>
    77c8:	d100      	bne.n	77cc <__aeabi_ddiv+0x3d0>
    77ca:	e08e      	b.n	78ea <__aeabi_ddiv+0x4ee>
    77cc:	2301      	movs	r3, #1
    77ce:	4319      	orrs	r1, r3
    77d0:	4ba0      	ldr	r3, [pc, #640]	; (7a54 <__aeabi_ddiv+0x658>)
    77d2:	18e3      	adds	r3, r4, r3
    77d4:	2b00      	cmp	r3, #0
    77d6:	dc00      	bgt.n	77da <__aeabi_ddiv+0x3de>
    77d8:	e099      	b.n	790e <__aeabi_ddiv+0x512>
    77da:	074a      	lsls	r2, r1, #29
    77dc:	d000      	beq.n	77e0 <__aeabi_ddiv+0x3e4>
    77de:	e09e      	b.n	791e <__aeabi_ddiv+0x522>
    77e0:	465a      	mov	r2, fp
    77e2:	01d2      	lsls	r2, r2, #7
    77e4:	d506      	bpl.n	77f4 <__aeabi_ddiv+0x3f8>
    77e6:	465a      	mov	r2, fp
    77e8:	4b9b      	ldr	r3, [pc, #620]	; (7a58 <__aeabi_ddiv+0x65c>)
    77ea:	401a      	ands	r2, r3
    77ec:	2380      	movs	r3, #128	; 0x80
    77ee:	4693      	mov	fp, r2
    77f0:	00db      	lsls	r3, r3, #3
    77f2:	18e3      	adds	r3, r4, r3
    77f4:	4a99      	ldr	r2, [pc, #612]	; (7a5c <__aeabi_ddiv+0x660>)
    77f6:	4293      	cmp	r3, r2
    77f8:	dd68      	ble.n	78cc <__aeabi_ddiv+0x4d0>
    77fa:	2301      	movs	r3, #1
    77fc:	9a02      	ldr	r2, [sp, #8]
    77fe:	4c98      	ldr	r4, [pc, #608]	; (7a60 <__aeabi_ddiv+0x664>)
    7800:	401a      	ands	r2, r3
    7802:	2300      	movs	r3, #0
    7804:	4694      	mov	ip, r2
    7806:	4698      	mov	r8, r3
    7808:	2200      	movs	r2, #0
    780a:	e6c5      	b.n	7598 <__aeabi_ddiv+0x19c>
    780c:	2280      	movs	r2, #128	; 0x80
    780e:	464b      	mov	r3, r9
    7810:	0312      	lsls	r2, r2, #12
    7812:	4213      	tst	r3, r2
    7814:	d00a      	beq.n	782c <__aeabi_ddiv+0x430>
    7816:	465b      	mov	r3, fp
    7818:	4213      	tst	r3, r2
    781a:	d106      	bne.n	782a <__aeabi_ddiv+0x42e>
    781c:	431a      	orrs	r2, r3
    781e:	0312      	lsls	r2, r2, #12
    7820:	0b12      	lsrs	r2, r2, #12
    7822:	46ac      	mov	ip, r5
    7824:	4688      	mov	r8, r1
    7826:	4c8e      	ldr	r4, [pc, #568]	; (7a60 <__aeabi_ddiv+0x664>)
    7828:	e6b6      	b.n	7598 <__aeabi_ddiv+0x19c>
    782a:	464b      	mov	r3, r9
    782c:	431a      	orrs	r2, r3
    782e:	0312      	lsls	r2, r2, #12
    7830:	0b12      	lsrs	r2, r2, #12
    7832:	46bc      	mov	ip, r7
    7834:	4c8a      	ldr	r4, [pc, #552]	; (7a60 <__aeabi_ddiv+0x664>)
    7836:	e6af      	b.n	7598 <__aeabi_ddiv+0x19c>
    7838:	0003      	movs	r3, r0
    783a:	465a      	mov	r2, fp
    783c:	3b28      	subs	r3, #40	; 0x28
    783e:	409a      	lsls	r2, r3
    7840:	2300      	movs	r3, #0
    7842:	4691      	mov	r9, r2
    7844:	4698      	mov	r8, r3
    7846:	e657      	b.n	74f8 <__aeabi_ddiv+0xfc>
    7848:	4658      	mov	r0, fp
    784a:	f7fb f997 	bl	2b7c <__clzsi2>
    784e:	3020      	adds	r0, #32
    7850:	e640      	b.n	74d4 <__aeabi_ddiv+0xd8>
    7852:	0003      	movs	r3, r0
    7854:	4652      	mov	r2, sl
    7856:	3b28      	subs	r3, #40	; 0x28
    7858:	409a      	lsls	r2, r3
    785a:	2100      	movs	r1, #0
    785c:	4693      	mov	fp, r2
    785e:	e677      	b.n	7550 <__aeabi_ddiv+0x154>
    7860:	f7fb f98c 	bl	2b7c <__clzsi2>
    7864:	3020      	adds	r0, #32
    7866:	e65f      	b.n	7528 <__aeabi_ddiv+0x12c>
    7868:	4588      	cmp	r8, r1
    786a:	d200      	bcs.n	786e <__aeabi_ddiv+0x472>
    786c:	e6c7      	b.n	75fe <__aeabi_ddiv+0x202>
    786e:	464b      	mov	r3, r9
    7870:	07de      	lsls	r6, r3, #31
    7872:	085d      	lsrs	r5, r3, #1
    7874:	4643      	mov	r3, r8
    7876:	085b      	lsrs	r3, r3, #1
    7878:	431e      	orrs	r6, r3
    787a:	4643      	mov	r3, r8
    787c:	07db      	lsls	r3, r3, #31
    787e:	469a      	mov	sl, r3
    7880:	e6c2      	b.n	7608 <__aeabi_ddiv+0x20c>
    7882:	2500      	movs	r5, #0
    7884:	4592      	cmp	sl, r2
    7886:	d300      	bcc.n	788a <__aeabi_ddiv+0x48e>
    7888:	e733      	b.n	76f2 <__aeabi_ddiv+0x2f6>
    788a:	9e03      	ldr	r6, [sp, #12]
    788c:	4659      	mov	r1, fp
    788e:	46b4      	mov	ip, r6
    7890:	44e2      	add	sl, ip
    7892:	45b2      	cmp	sl, r6
    7894:	41ad      	sbcs	r5, r5
    7896:	426d      	negs	r5, r5
    7898:	4445      	add	r5, r8
    789a:	18eb      	adds	r3, r5, r3
    789c:	3901      	subs	r1, #1
    789e:	4598      	cmp	r8, r3
    78a0:	d207      	bcs.n	78b2 <__aeabi_ddiv+0x4b6>
    78a2:	4298      	cmp	r0, r3
    78a4:	d900      	bls.n	78a8 <__aeabi_ddiv+0x4ac>
    78a6:	e07f      	b.n	79a8 <__aeabi_ddiv+0x5ac>
    78a8:	d100      	bne.n	78ac <__aeabi_ddiv+0x4b0>
    78aa:	e0bc      	b.n	7a26 <__aeabi_ddiv+0x62a>
    78ac:	1a1d      	subs	r5, r3, r0
    78ae:	468b      	mov	fp, r1
    78b0:	e71f      	b.n	76f2 <__aeabi_ddiv+0x2f6>
    78b2:	4598      	cmp	r8, r3
    78b4:	d1fa      	bne.n	78ac <__aeabi_ddiv+0x4b0>
    78b6:	9d03      	ldr	r5, [sp, #12]
    78b8:	4555      	cmp	r5, sl
    78ba:	d9f2      	bls.n	78a2 <__aeabi_ddiv+0x4a6>
    78bc:	4643      	mov	r3, r8
    78be:	468b      	mov	fp, r1
    78c0:	1a1d      	subs	r5, r3, r0
    78c2:	e716      	b.n	76f2 <__aeabi_ddiv+0x2f6>
    78c4:	469b      	mov	fp, r3
    78c6:	e6ca      	b.n	765e <__aeabi_ddiv+0x262>
    78c8:	0015      	movs	r5, r2
    78ca:	e6e7      	b.n	769c <__aeabi_ddiv+0x2a0>
    78cc:	465a      	mov	r2, fp
    78ce:	08c9      	lsrs	r1, r1, #3
    78d0:	0752      	lsls	r2, r2, #29
    78d2:	430a      	orrs	r2, r1
    78d4:	055b      	lsls	r3, r3, #21
    78d6:	4690      	mov	r8, r2
    78d8:	0d5c      	lsrs	r4, r3, #21
    78da:	465a      	mov	r2, fp
    78dc:	2301      	movs	r3, #1
    78de:	9902      	ldr	r1, [sp, #8]
    78e0:	0252      	lsls	r2, r2, #9
    78e2:	4019      	ands	r1, r3
    78e4:	0b12      	lsrs	r2, r2, #12
    78e6:	468c      	mov	ip, r1
    78e8:	e656      	b.n	7598 <__aeabi_ddiv+0x19c>
    78ea:	2b00      	cmp	r3, #0
    78ec:	d100      	bne.n	78f0 <__aeabi_ddiv+0x4f4>
    78ee:	e76f      	b.n	77d0 <__aeabi_ddiv+0x3d4>
    78f0:	4446      	add	r6, r8
    78f2:	1e4a      	subs	r2, r1, #1
    78f4:	45b0      	cmp	r8, r6
    78f6:	d929      	bls.n	794c <__aeabi_ddiv+0x550>
    78f8:	0011      	movs	r1, r2
    78fa:	4286      	cmp	r6, r0
    78fc:	d000      	beq.n	7900 <__aeabi_ddiv+0x504>
    78fe:	e765      	b.n	77cc <__aeabi_ddiv+0x3d0>
    7900:	9a03      	ldr	r2, [sp, #12]
    7902:	4293      	cmp	r3, r2
    7904:	d000      	beq.n	7908 <__aeabi_ddiv+0x50c>
    7906:	e761      	b.n	77cc <__aeabi_ddiv+0x3d0>
    7908:	e762      	b.n	77d0 <__aeabi_ddiv+0x3d4>
    790a:	2101      	movs	r1, #1
    790c:	4249      	negs	r1, r1
    790e:	2001      	movs	r0, #1
    7910:	1ac2      	subs	r2, r0, r3
    7912:	2a38      	cmp	r2, #56	; 0x38
    7914:	dd21      	ble.n	795a <__aeabi_ddiv+0x55e>
    7916:	9b02      	ldr	r3, [sp, #8]
    7918:	4003      	ands	r3, r0
    791a:	469c      	mov	ip, r3
    791c:	e638      	b.n	7590 <__aeabi_ddiv+0x194>
    791e:	220f      	movs	r2, #15
    7920:	400a      	ands	r2, r1
    7922:	2a04      	cmp	r2, #4
    7924:	d100      	bne.n	7928 <__aeabi_ddiv+0x52c>
    7926:	e75b      	b.n	77e0 <__aeabi_ddiv+0x3e4>
    7928:	000a      	movs	r2, r1
    792a:	1d11      	adds	r1, r2, #4
    792c:	4291      	cmp	r1, r2
    792e:	4192      	sbcs	r2, r2
    7930:	4252      	negs	r2, r2
    7932:	4493      	add	fp, r2
    7934:	e754      	b.n	77e0 <__aeabi_ddiv+0x3e4>
    7936:	4b47      	ldr	r3, [pc, #284]	; (7a54 <__aeabi_ddiv+0x658>)
    7938:	18e3      	adds	r3, r4, r3
    793a:	2b00      	cmp	r3, #0
    793c:	dde5      	ble.n	790a <__aeabi_ddiv+0x50e>
    793e:	2201      	movs	r2, #1
    7940:	4252      	negs	r2, r2
    7942:	e7f2      	b.n	792a <__aeabi_ddiv+0x52e>
    7944:	001d      	movs	r5, r3
    7946:	e6fa      	b.n	773e <__aeabi_ddiv+0x342>
    7948:	469a      	mov	sl, r3
    794a:	e71c      	b.n	7786 <__aeabi_ddiv+0x38a>
    794c:	42b0      	cmp	r0, r6
    794e:	d839      	bhi.n	79c4 <__aeabi_ddiv+0x5c8>
    7950:	d06e      	beq.n	7a30 <__aeabi_ddiv+0x634>
    7952:	0011      	movs	r1, r2
    7954:	e73a      	b.n	77cc <__aeabi_ddiv+0x3d0>
    7956:	9302      	str	r3, [sp, #8]
    7958:	e73a      	b.n	77d0 <__aeabi_ddiv+0x3d4>
    795a:	2a1f      	cmp	r2, #31
    795c:	dc3c      	bgt.n	79d8 <__aeabi_ddiv+0x5dc>
    795e:	2320      	movs	r3, #32
    7960:	1a9b      	subs	r3, r3, r2
    7962:	000c      	movs	r4, r1
    7964:	4658      	mov	r0, fp
    7966:	4099      	lsls	r1, r3
    7968:	4098      	lsls	r0, r3
    796a:	1e4b      	subs	r3, r1, #1
    796c:	4199      	sbcs	r1, r3
    796e:	465b      	mov	r3, fp
    7970:	40d4      	lsrs	r4, r2
    7972:	40d3      	lsrs	r3, r2
    7974:	4320      	orrs	r0, r4
    7976:	4308      	orrs	r0, r1
    7978:	001a      	movs	r2, r3
    797a:	0743      	lsls	r3, r0, #29
    797c:	d009      	beq.n	7992 <__aeabi_ddiv+0x596>
    797e:	230f      	movs	r3, #15
    7980:	4003      	ands	r3, r0
    7982:	2b04      	cmp	r3, #4
    7984:	d005      	beq.n	7992 <__aeabi_ddiv+0x596>
    7986:	0001      	movs	r1, r0
    7988:	1d08      	adds	r0, r1, #4
    798a:	4288      	cmp	r0, r1
    798c:	419b      	sbcs	r3, r3
    798e:	425b      	negs	r3, r3
    7990:	18d2      	adds	r2, r2, r3
    7992:	0213      	lsls	r3, r2, #8
    7994:	d53a      	bpl.n	7a0c <__aeabi_ddiv+0x610>
    7996:	2301      	movs	r3, #1
    7998:	9a02      	ldr	r2, [sp, #8]
    799a:	2401      	movs	r4, #1
    799c:	401a      	ands	r2, r3
    799e:	2300      	movs	r3, #0
    79a0:	4694      	mov	ip, r2
    79a2:	4698      	mov	r8, r3
    79a4:	2200      	movs	r2, #0
    79a6:	e5f7      	b.n	7598 <__aeabi_ddiv+0x19c>
    79a8:	2102      	movs	r1, #2
    79aa:	4249      	negs	r1, r1
    79ac:	468c      	mov	ip, r1
    79ae:	9d03      	ldr	r5, [sp, #12]
    79b0:	44e3      	add	fp, ip
    79b2:	46ac      	mov	ip, r5
    79b4:	44e2      	add	sl, ip
    79b6:	45aa      	cmp	sl, r5
    79b8:	41ad      	sbcs	r5, r5
    79ba:	426d      	negs	r5, r5
    79bc:	4445      	add	r5, r8
    79be:	18ed      	adds	r5, r5, r3
    79c0:	1a2d      	subs	r5, r5, r0
    79c2:	e696      	b.n	76f2 <__aeabi_ddiv+0x2f6>
    79c4:	1e8a      	subs	r2, r1, #2
    79c6:	9903      	ldr	r1, [sp, #12]
    79c8:	004d      	lsls	r5, r1, #1
    79ca:	428d      	cmp	r5, r1
    79cc:	4189      	sbcs	r1, r1
    79ce:	4249      	negs	r1, r1
    79d0:	4441      	add	r1, r8
    79d2:	1876      	adds	r6, r6, r1
    79d4:	9503      	str	r5, [sp, #12]
    79d6:	e78f      	b.n	78f8 <__aeabi_ddiv+0x4fc>
    79d8:	201f      	movs	r0, #31
    79da:	4240      	negs	r0, r0
    79dc:	1ac3      	subs	r3, r0, r3
    79de:	4658      	mov	r0, fp
    79e0:	40d8      	lsrs	r0, r3
    79e2:	0003      	movs	r3, r0
    79e4:	2a20      	cmp	r2, #32
    79e6:	d028      	beq.n	7a3a <__aeabi_ddiv+0x63e>
    79e8:	2040      	movs	r0, #64	; 0x40
    79ea:	465d      	mov	r5, fp
    79ec:	1a82      	subs	r2, r0, r2
    79ee:	4095      	lsls	r5, r2
    79f0:	4329      	orrs	r1, r5
    79f2:	1e4a      	subs	r2, r1, #1
    79f4:	4191      	sbcs	r1, r2
    79f6:	4319      	orrs	r1, r3
    79f8:	2307      	movs	r3, #7
    79fa:	2200      	movs	r2, #0
    79fc:	400b      	ands	r3, r1
    79fe:	d009      	beq.n	7a14 <__aeabi_ddiv+0x618>
    7a00:	230f      	movs	r3, #15
    7a02:	2200      	movs	r2, #0
    7a04:	400b      	ands	r3, r1
    7a06:	0008      	movs	r0, r1
    7a08:	2b04      	cmp	r3, #4
    7a0a:	d1bd      	bne.n	7988 <__aeabi_ddiv+0x58c>
    7a0c:	0001      	movs	r1, r0
    7a0e:	0753      	lsls	r3, r2, #29
    7a10:	0252      	lsls	r2, r2, #9
    7a12:	0b12      	lsrs	r2, r2, #12
    7a14:	08c9      	lsrs	r1, r1, #3
    7a16:	4319      	orrs	r1, r3
    7a18:	2301      	movs	r3, #1
    7a1a:	4688      	mov	r8, r1
    7a1c:	9902      	ldr	r1, [sp, #8]
    7a1e:	2400      	movs	r4, #0
    7a20:	4019      	ands	r1, r3
    7a22:	468c      	mov	ip, r1
    7a24:	e5b8      	b.n	7598 <__aeabi_ddiv+0x19c>
    7a26:	4552      	cmp	r2, sl
    7a28:	d8be      	bhi.n	79a8 <__aeabi_ddiv+0x5ac>
    7a2a:	468b      	mov	fp, r1
    7a2c:	2500      	movs	r5, #0
    7a2e:	e660      	b.n	76f2 <__aeabi_ddiv+0x2f6>
    7a30:	9d03      	ldr	r5, [sp, #12]
    7a32:	429d      	cmp	r5, r3
    7a34:	d3c6      	bcc.n	79c4 <__aeabi_ddiv+0x5c8>
    7a36:	0011      	movs	r1, r2
    7a38:	e762      	b.n	7900 <__aeabi_ddiv+0x504>
    7a3a:	2500      	movs	r5, #0
    7a3c:	e7d8      	b.n	79f0 <__aeabi_ddiv+0x5f4>
    7a3e:	2280      	movs	r2, #128	; 0x80
    7a40:	465b      	mov	r3, fp
    7a42:	0312      	lsls	r2, r2, #12
    7a44:	431a      	orrs	r2, r3
    7a46:	9b01      	ldr	r3, [sp, #4]
    7a48:	0312      	lsls	r2, r2, #12
    7a4a:	0b12      	lsrs	r2, r2, #12
    7a4c:	469c      	mov	ip, r3
    7a4e:	4688      	mov	r8, r1
    7a50:	4c03      	ldr	r4, [pc, #12]	; (7a60 <__aeabi_ddiv+0x664>)
    7a52:	e5a1      	b.n	7598 <__aeabi_ddiv+0x19c>
    7a54:	000003ff 	.word	0x000003ff
    7a58:	feffffff 	.word	0xfeffffff
    7a5c:	000007fe 	.word	0x000007fe
    7a60:	000007ff 	.word	0x000007ff

00007a64 <__eqdf2>:
    7a64:	b5f0      	push	{r4, r5, r6, r7, lr}
    7a66:	464f      	mov	r7, r9
    7a68:	4646      	mov	r6, r8
    7a6a:	46d6      	mov	lr, sl
    7a6c:	005c      	lsls	r4, r3, #1
    7a6e:	b5c0      	push	{r6, r7, lr}
    7a70:	031f      	lsls	r7, r3, #12
    7a72:	0fdb      	lsrs	r3, r3, #31
    7a74:	469a      	mov	sl, r3
    7a76:	4b17      	ldr	r3, [pc, #92]	; (7ad4 <__eqdf2+0x70>)
    7a78:	030e      	lsls	r6, r1, #12
    7a7a:	004d      	lsls	r5, r1, #1
    7a7c:	4684      	mov	ip, r0
    7a7e:	4680      	mov	r8, r0
    7a80:	0b36      	lsrs	r6, r6, #12
    7a82:	0d6d      	lsrs	r5, r5, #21
    7a84:	0fc9      	lsrs	r1, r1, #31
    7a86:	4691      	mov	r9, r2
    7a88:	0b3f      	lsrs	r7, r7, #12
    7a8a:	0d64      	lsrs	r4, r4, #21
    7a8c:	2001      	movs	r0, #1
    7a8e:	429d      	cmp	r5, r3
    7a90:	d008      	beq.n	7aa4 <__eqdf2+0x40>
    7a92:	429c      	cmp	r4, r3
    7a94:	d001      	beq.n	7a9a <__eqdf2+0x36>
    7a96:	42a5      	cmp	r5, r4
    7a98:	d00b      	beq.n	7ab2 <__eqdf2+0x4e>
    7a9a:	bc1c      	pop	{r2, r3, r4}
    7a9c:	4690      	mov	r8, r2
    7a9e:	4699      	mov	r9, r3
    7aa0:	46a2      	mov	sl, r4
    7aa2:	bdf0      	pop	{r4, r5, r6, r7, pc}
    7aa4:	4663      	mov	r3, ip
    7aa6:	4333      	orrs	r3, r6
    7aa8:	d1f7      	bne.n	7a9a <__eqdf2+0x36>
    7aaa:	42ac      	cmp	r4, r5
    7aac:	d1f5      	bne.n	7a9a <__eqdf2+0x36>
    7aae:	433a      	orrs	r2, r7
    7ab0:	d1f3      	bne.n	7a9a <__eqdf2+0x36>
    7ab2:	2001      	movs	r0, #1
    7ab4:	42be      	cmp	r6, r7
    7ab6:	d1f0      	bne.n	7a9a <__eqdf2+0x36>
    7ab8:	45c8      	cmp	r8, r9
    7aba:	d1ee      	bne.n	7a9a <__eqdf2+0x36>
    7abc:	4551      	cmp	r1, sl
    7abe:	d007      	beq.n	7ad0 <__eqdf2+0x6c>
    7ac0:	2d00      	cmp	r5, #0
    7ac2:	d1ea      	bne.n	7a9a <__eqdf2+0x36>
    7ac4:	4663      	mov	r3, ip
    7ac6:	431e      	orrs	r6, r3
    7ac8:	0030      	movs	r0, r6
    7aca:	1e46      	subs	r6, r0, #1
    7acc:	41b0      	sbcs	r0, r6
    7ace:	e7e4      	b.n	7a9a <__eqdf2+0x36>
    7ad0:	2000      	movs	r0, #0
    7ad2:	e7e2      	b.n	7a9a <__eqdf2+0x36>
    7ad4:	000007ff 	.word	0x000007ff

00007ad8 <__gedf2>:
    7ad8:	b5f0      	push	{r4, r5, r6, r7, lr}
    7ada:	4645      	mov	r5, r8
    7adc:	46de      	mov	lr, fp
    7ade:	4657      	mov	r7, sl
    7ae0:	464e      	mov	r6, r9
    7ae2:	b5e0      	push	{r5, r6, r7, lr}
    7ae4:	031f      	lsls	r7, r3, #12
    7ae6:	0b3d      	lsrs	r5, r7, #12
    7ae8:	4f2c      	ldr	r7, [pc, #176]	; (7b9c <__gedf2+0xc4>)
    7aea:	030e      	lsls	r6, r1, #12
    7aec:	004c      	lsls	r4, r1, #1
    7aee:	46ab      	mov	fp, r5
    7af0:	005d      	lsls	r5, r3, #1
    7af2:	4684      	mov	ip, r0
    7af4:	0b36      	lsrs	r6, r6, #12
    7af6:	0d64      	lsrs	r4, r4, #21
    7af8:	0fc9      	lsrs	r1, r1, #31
    7afa:	4690      	mov	r8, r2
    7afc:	0d6d      	lsrs	r5, r5, #21
    7afe:	0fdb      	lsrs	r3, r3, #31
    7b00:	42bc      	cmp	r4, r7
    7b02:	d02a      	beq.n	7b5a <__gedf2+0x82>
    7b04:	4f25      	ldr	r7, [pc, #148]	; (7b9c <__gedf2+0xc4>)
    7b06:	42bd      	cmp	r5, r7
    7b08:	d02d      	beq.n	7b66 <__gedf2+0x8e>
    7b0a:	2c00      	cmp	r4, #0
    7b0c:	d10f      	bne.n	7b2e <__gedf2+0x56>
    7b0e:	4330      	orrs	r0, r6
    7b10:	0007      	movs	r7, r0
    7b12:	4681      	mov	r9, r0
    7b14:	4278      	negs	r0, r7
    7b16:	4178      	adcs	r0, r7
    7b18:	b2c0      	uxtb	r0, r0
    7b1a:	2d00      	cmp	r5, #0
    7b1c:	d117      	bne.n	7b4e <__gedf2+0x76>
    7b1e:	465f      	mov	r7, fp
    7b20:	433a      	orrs	r2, r7
    7b22:	d114      	bne.n	7b4e <__gedf2+0x76>
    7b24:	464b      	mov	r3, r9
    7b26:	2000      	movs	r0, #0
    7b28:	2b00      	cmp	r3, #0
    7b2a:	d00a      	beq.n	7b42 <__gedf2+0x6a>
    7b2c:	e006      	b.n	7b3c <__gedf2+0x64>
    7b2e:	2d00      	cmp	r5, #0
    7b30:	d102      	bne.n	7b38 <__gedf2+0x60>
    7b32:	4658      	mov	r0, fp
    7b34:	4302      	orrs	r2, r0
    7b36:	d001      	beq.n	7b3c <__gedf2+0x64>
    7b38:	4299      	cmp	r1, r3
    7b3a:	d018      	beq.n	7b6e <__gedf2+0x96>
    7b3c:	4248      	negs	r0, r1
    7b3e:	2101      	movs	r1, #1
    7b40:	4308      	orrs	r0, r1
    7b42:	bc3c      	pop	{r2, r3, r4, r5}
    7b44:	4690      	mov	r8, r2
    7b46:	4699      	mov	r9, r3
    7b48:	46a2      	mov	sl, r4
    7b4a:	46ab      	mov	fp, r5
    7b4c:	bdf0      	pop	{r4, r5, r6, r7, pc}
    7b4e:	2800      	cmp	r0, #0
    7b50:	d0f2      	beq.n	7b38 <__gedf2+0x60>
    7b52:	2001      	movs	r0, #1
    7b54:	3b01      	subs	r3, #1
    7b56:	4318      	orrs	r0, r3
    7b58:	e7f3      	b.n	7b42 <__gedf2+0x6a>
    7b5a:	0037      	movs	r7, r6
    7b5c:	4307      	orrs	r7, r0
    7b5e:	d0d1      	beq.n	7b04 <__gedf2+0x2c>
    7b60:	2002      	movs	r0, #2
    7b62:	4240      	negs	r0, r0
    7b64:	e7ed      	b.n	7b42 <__gedf2+0x6a>
    7b66:	465f      	mov	r7, fp
    7b68:	4317      	orrs	r7, r2
    7b6a:	d0ce      	beq.n	7b0a <__gedf2+0x32>
    7b6c:	e7f8      	b.n	7b60 <__gedf2+0x88>
    7b6e:	42ac      	cmp	r4, r5
    7b70:	dce4      	bgt.n	7b3c <__gedf2+0x64>
    7b72:	da03      	bge.n	7b7c <__gedf2+0xa4>
    7b74:	1e48      	subs	r0, r1, #1
    7b76:	2101      	movs	r1, #1
    7b78:	4308      	orrs	r0, r1
    7b7a:	e7e2      	b.n	7b42 <__gedf2+0x6a>
    7b7c:	455e      	cmp	r6, fp
    7b7e:	d8dd      	bhi.n	7b3c <__gedf2+0x64>
    7b80:	d006      	beq.n	7b90 <__gedf2+0xb8>
    7b82:	2000      	movs	r0, #0
    7b84:	455e      	cmp	r6, fp
    7b86:	d2dc      	bcs.n	7b42 <__gedf2+0x6a>
    7b88:	2301      	movs	r3, #1
    7b8a:	1e48      	subs	r0, r1, #1
    7b8c:	4318      	orrs	r0, r3
    7b8e:	e7d8      	b.n	7b42 <__gedf2+0x6a>
    7b90:	45c4      	cmp	ip, r8
    7b92:	d8d3      	bhi.n	7b3c <__gedf2+0x64>
    7b94:	2000      	movs	r0, #0
    7b96:	45c4      	cmp	ip, r8
    7b98:	d3f6      	bcc.n	7b88 <__gedf2+0xb0>
    7b9a:	e7d2      	b.n	7b42 <__gedf2+0x6a>
    7b9c:	000007ff 	.word	0x000007ff

00007ba0 <__ledf2>:
    7ba0:	b5f0      	push	{r4, r5, r6, r7, lr}
    7ba2:	464e      	mov	r6, r9
    7ba4:	4645      	mov	r5, r8
    7ba6:	46de      	mov	lr, fp
    7ba8:	4657      	mov	r7, sl
    7baa:	005c      	lsls	r4, r3, #1
    7bac:	b5e0      	push	{r5, r6, r7, lr}
    7bae:	031f      	lsls	r7, r3, #12
    7bb0:	0fdb      	lsrs	r3, r3, #31
    7bb2:	4699      	mov	r9, r3
    7bb4:	4b2a      	ldr	r3, [pc, #168]	; (7c60 <__ledf2+0xc0>)
    7bb6:	030e      	lsls	r6, r1, #12
    7bb8:	004d      	lsls	r5, r1, #1
    7bba:	0fc9      	lsrs	r1, r1, #31
    7bbc:	4684      	mov	ip, r0
    7bbe:	0b36      	lsrs	r6, r6, #12
    7bc0:	0d6d      	lsrs	r5, r5, #21
    7bc2:	468b      	mov	fp, r1
    7bc4:	4690      	mov	r8, r2
    7bc6:	0b3f      	lsrs	r7, r7, #12
    7bc8:	0d64      	lsrs	r4, r4, #21
    7bca:	429d      	cmp	r5, r3
    7bcc:	d020      	beq.n	7c10 <__ledf2+0x70>
    7bce:	4b24      	ldr	r3, [pc, #144]	; (7c60 <__ledf2+0xc0>)
    7bd0:	429c      	cmp	r4, r3
    7bd2:	d022      	beq.n	7c1a <__ledf2+0x7a>
    7bd4:	2d00      	cmp	r5, #0
    7bd6:	d112      	bne.n	7bfe <__ledf2+0x5e>
    7bd8:	4330      	orrs	r0, r6
    7bda:	4243      	negs	r3, r0
    7bdc:	4143      	adcs	r3, r0
    7bde:	b2db      	uxtb	r3, r3
    7be0:	2c00      	cmp	r4, #0
    7be2:	d01f      	beq.n	7c24 <__ledf2+0x84>
    7be4:	2b00      	cmp	r3, #0
    7be6:	d00c      	beq.n	7c02 <__ledf2+0x62>
    7be8:	464b      	mov	r3, r9
    7bea:	2001      	movs	r0, #1
    7bec:	3b01      	subs	r3, #1
    7bee:	4303      	orrs	r3, r0
    7bf0:	0018      	movs	r0, r3
    7bf2:	bc3c      	pop	{r2, r3, r4, r5}
    7bf4:	4690      	mov	r8, r2
    7bf6:	4699      	mov	r9, r3
    7bf8:	46a2      	mov	sl, r4
    7bfa:	46ab      	mov	fp, r5
    7bfc:	bdf0      	pop	{r4, r5, r6, r7, pc}
    7bfe:	2c00      	cmp	r4, #0
    7c00:	d016      	beq.n	7c30 <__ledf2+0x90>
    7c02:	45cb      	cmp	fp, r9
    7c04:	d017      	beq.n	7c36 <__ledf2+0x96>
    7c06:	465b      	mov	r3, fp
    7c08:	4259      	negs	r1, r3
    7c0a:	2301      	movs	r3, #1
    7c0c:	430b      	orrs	r3, r1
    7c0e:	e7ef      	b.n	7bf0 <__ledf2+0x50>
    7c10:	0031      	movs	r1, r6
    7c12:	2302      	movs	r3, #2
    7c14:	4301      	orrs	r1, r0
    7c16:	d1eb      	bne.n	7bf0 <__ledf2+0x50>
    7c18:	e7d9      	b.n	7bce <__ledf2+0x2e>
    7c1a:	0039      	movs	r1, r7
    7c1c:	2302      	movs	r3, #2
    7c1e:	4311      	orrs	r1, r2
    7c20:	d1e6      	bne.n	7bf0 <__ledf2+0x50>
    7c22:	e7d7      	b.n	7bd4 <__ledf2+0x34>
    7c24:	433a      	orrs	r2, r7
    7c26:	d1dd      	bne.n	7be4 <__ledf2+0x44>
    7c28:	2300      	movs	r3, #0
    7c2a:	2800      	cmp	r0, #0
    7c2c:	d0e0      	beq.n	7bf0 <__ledf2+0x50>
    7c2e:	e7ea      	b.n	7c06 <__ledf2+0x66>
    7c30:	433a      	orrs	r2, r7
    7c32:	d1e6      	bne.n	7c02 <__ledf2+0x62>
    7c34:	e7e7      	b.n	7c06 <__ledf2+0x66>
    7c36:	42a5      	cmp	r5, r4
    7c38:	dce5      	bgt.n	7c06 <__ledf2+0x66>
    7c3a:	db05      	blt.n	7c48 <__ledf2+0xa8>
    7c3c:	42be      	cmp	r6, r7
    7c3e:	d8e2      	bhi.n	7c06 <__ledf2+0x66>
    7c40:	d007      	beq.n	7c52 <__ledf2+0xb2>
    7c42:	2300      	movs	r3, #0
    7c44:	42be      	cmp	r6, r7
    7c46:	d2d3      	bcs.n	7bf0 <__ledf2+0x50>
    7c48:	4659      	mov	r1, fp
    7c4a:	2301      	movs	r3, #1
    7c4c:	3901      	subs	r1, #1
    7c4e:	430b      	orrs	r3, r1
    7c50:	e7ce      	b.n	7bf0 <__ledf2+0x50>
    7c52:	45c4      	cmp	ip, r8
    7c54:	d8d7      	bhi.n	7c06 <__ledf2+0x66>
    7c56:	2300      	movs	r3, #0
    7c58:	45c4      	cmp	ip, r8
    7c5a:	d3f5      	bcc.n	7c48 <__ledf2+0xa8>
    7c5c:	e7c8      	b.n	7bf0 <__ledf2+0x50>
    7c5e:	46c0      	nop			; (mov r8, r8)
    7c60:	000007ff 	.word	0x000007ff

00007c64 <__aeabi_dmul>:
    7c64:	b5f0      	push	{r4, r5, r6, r7, lr}
    7c66:	4657      	mov	r7, sl
    7c68:	4645      	mov	r5, r8
    7c6a:	46de      	mov	lr, fp
    7c6c:	464e      	mov	r6, r9
    7c6e:	b5e0      	push	{r5, r6, r7, lr}
    7c70:	030c      	lsls	r4, r1, #12
    7c72:	4698      	mov	r8, r3
    7c74:	004e      	lsls	r6, r1, #1
    7c76:	0b23      	lsrs	r3, r4, #12
    7c78:	b087      	sub	sp, #28
    7c7a:	0007      	movs	r7, r0
    7c7c:	4692      	mov	sl, r2
    7c7e:	469b      	mov	fp, r3
    7c80:	0d76      	lsrs	r6, r6, #21
    7c82:	0fcd      	lsrs	r5, r1, #31
    7c84:	2e00      	cmp	r6, #0
    7c86:	d06b      	beq.n	7d60 <__aeabi_dmul+0xfc>
    7c88:	4b6d      	ldr	r3, [pc, #436]	; (7e40 <__aeabi_dmul+0x1dc>)
    7c8a:	429e      	cmp	r6, r3
    7c8c:	d035      	beq.n	7cfa <__aeabi_dmul+0x96>
    7c8e:	2480      	movs	r4, #128	; 0x80
    7c90:	465b      	mov	r3, fp
    7c92:	0f42      	lsrs	r2, r0, #29
    7c94:	0424      	lsls	r4, r4, #16
    7c96:	00db      	lsls	r3, r3, #3
    7c98:	4314      	orrs	r4, r2
    7c9a:	431c      	orrs	r4, r3
    7c9c:	00c3      	lsls	r3, r0, #3
    7c9e:	4699      	mov	r9, r3
    7ca0:	4b68      	ldr	r3, [pc, #416]	; (7e44 <__aeabi_dmul+0x1e0>)
    7ca2:	46a3      	mov	fp, r4
    7ca4:	469c      	mov	ip, r3
    7ca6:	2300      	movs	r3, #0
    7ca8:	2700      	movs	r7, #0
    7caa:	4466      	add	r6, ip
    7cac:	9302      	str	r3, [sp, #8]
    7cae:	4643      	mov	r3, r8
    7cb0:	031c      	lsls	r4, r3, #12
    7cb2:	005a      	lsls	r2, r3, #1
    7cb4:	0fdb      	lsrs	r3, r3, #31
    7cb6:	4650      	mov	r0, sl
    7cb8:	0b24      	lsrs	r4, r4, #12
    7cba:	0d52      	lsrs	r2, r2, #21
    7cbc:	4698      	mov	r8, r3
    7cbe:	d100      	bne.n	7cc2 <__aeabi_dmul+0x5e>
    7cc0:	e076      	b.n	7db0 <__aeabi_dmul+0x14c>
    7cc2:	4b5f      	ldr	r3, [pc, #380]	; (7e40 <__aeabi_dmul+0x1dc>)
    7cc4:	429a      	cmp	r2, r3
    7cc6:	d06d      	beq.n	7da4 <__aeabi_dmul+0x140>
    7cc8:	2380      	movs	r3, #128	; 0x80
    7cca:	0f41      	lsrs	r1, r0, #29
    7ccc:	041b      	lsls	r3, r3, #16
    7cce:	430b      	orrs	r3, r1
    7cd0:	495c      	ldr	r1, [pc, #368]	; (7e44 <__aeabi_dmul+0x1e0>)
    7cd2:	00e4      	lsls	r4, r4, #3
    7cd4:	468c      	mov	ip, r1
    7cd6:	431c      	orrs	r4, r3
    7cd8:	00c3      	lsls	r3, r0, #3
    7cda:	2000      	movs	r0, #0
    7cdc:	4462      	add	r2, ip
    7cde:	4641      	mov	r1, r8
    7ce0:	18b6      	adds	r6, r6, r2
    7ce2:	4069      	eors	r1, r5
    7ce4:	1c72      	adds	r2, r6, #1
    7ce6:	9101      	str	r1, [sp, #4]
    7ce8:	4694      	mov	ip, r2
    7cea:	4307      	orrs	r7, r0
    7cec:	2f0f      	cmp	r7, #15
    7cee:	d900      	bls.n	7cf2 <__aeabi_dmul+0x8e>
    7cf0:	e0b0      	b.n	7e54 <__aeabi_dmul+0x1f0>
    7cf2:	4a55      	ldr	r2, [pc, #340]	; (7e48 <__aeabi_dmul+0x1e4>)
    7cf4:	00bf      	lsls	r7, r7, #2
    7cf6:	59d2      	ldr	r2, [r2, r7]
    7cf8:	4697      	mov	pc, r2
    7cfa:	465b      	mov	r3, fp
    7cfc:	4303      	orrs	r3, r0
    7cfe:	4699      	mov	r9, r3
    7d00:	d000      	beq.n	7d04 <__aeabi_dmul+0xa0>
    7d02:	e087      	b.n	7e14 <__aeabi_dmul+0x1b0>
    7d04:	2300      	movs	r3, #0
    7d06:	469b      	mov	fp, r3
    7d08:	3302      	adds	r3, #2
    7d0a:	2708      	movs	r7, #8
    7d0c:	9302      	str	r3, [sp, #8]
    7d0e:	e7ce      	b.n	7cae <__aeabi_dmul+0x4a>
    7d10:	4642      	mov	r2, r8
    7d12:	9201      	str	r2, [sp, #4]
    7d14:	2802      	cmp	r0, #2
    7d16:	d067      	beq.n	7de8 <__aeabi_dmul+0x184>
    7d18:	2803      	cmp	r0, #3
    7d1a:	d100      	bne.n	7d1e <__aeabi_dmul+0xba>
    7d1c:	e20e      	b.n	813c <__aeabi_dmul+0x4d8>
    7d1e:	2801      	cmp	r0, #1
    7d20:	d000      	beq.n	7d24 <__aeabi_dmul+0xc0>
    7d22:	e162      	b.n	7fea <__aeabi_dmul+0x386>
    7d24:	2300      	movs	r3, #0
    7d26:	2400      	movs	r4, #0
    7d28:	2200      	movs	r2, #0
    7d2a:	4699      	mov	r9, r3
    7d2c:	9901      	ldr	r1, [sp, #4]
    7d2e:	4001      	ands	r1, r0
    7d30:	b2cd      	uxtb	r5, r1
    7d32:	2100      	movs	r1, #0
    7d34:	0312      	lsls	r2, r2, #12
    7d36:	0d0b      	lsrs	r3, r1, #20
    7d38:	0b12      	lsrs	r2, r2, #12
    7d3a:	051b      	lsls	r3, r3, #20
    7d3c:	4313      	orrs	r3, r2
    7d3e:	4a43      	ldr	r2, [pc, #268]	; (7e4c <__aeabi_dmul+0x1e8>)
    7d40:	0524      	lsls	r4, r4, #20
    7d42:	4013      	ands	r3, r2
    7d44:	431c      	orrs	r4, r3
    7d46:	0064      	lsls	r4, r4, #1
    7d48:	07ed      	lsls	r5, r5, #31
    7d4a:	0864      	lsrs	r4, r4, #1
    7d4c:	432c      	orrs	r4, r5
    7d4e:	4648      	mov	r0, r9
    7d50:	0021      	movs	r1, r4
    7d52:	b007      	add	sp, #28
    7d54:	bc3c      	pop	{r2, r3, r4, r5}
    7d56:	4690      	mov	r8, r2
    7d58:	4699      	mov	r9, r3
    7d5a:	46a2      	mov	sl, r4
    7d5c:	46ab      	mov	fp, r5
    7d5e:	bdf0      	pop	{r4, r5, r6, r7, pc}
    7d60:	4303      	orrs	r3, r0
    7d62:	4699      	mov	r9, r3
    7d64:	d04f      	beq.n	7e06 <__aeabi_dmul+0x1a2>
    7d66:	465b      	mov	r3, fp
    7d68:	2b00      	cmp	r3, #0
    7d6a:	d100      	bne.n	7d6e <__aeabi_dmul+0x10a>
    7d6c:	e189      	b.n	8082 <__aeabi_dmul+0x41e>
    7d6e:	4658      	mov	r0, fp
    7d70:	f7fa ff04 	bl	2b7c <__clzsi2>
    7d74:	0003      	movs	r3, r0
    7d76:	3b0b      	subs	r3, #11
    7d78:	2b1c      	cmp	r3, #28
    7d7a:	dd00      	ble.n	7d7e <__aeabi_dmul+0x11a>
    7d7c:	e17a      	b.n	8074 <__aeabi_dmul+0x410>
    7d7e:	221d      	movs	r2, #29
    7d80:	1ad3      	subs	r3, r2, r3
    7d82:	003a      	movs	r2, r7
    7d84:	0001      	movs	r1, r0
    7d86:	465c      	mov	r4, fp
    7d88:	40da      	lsrs	r2, r3
    7d8a:	3908      	subs	r1, #8
    7d8c:	408c      	lsls	r4, r1
    7d8e:	0013      	movs	r3, r2
    7d90:	408f      	lsls	r7, r1
    7d92:	4323      	orrs	r3, r4
    7d94:	469b      	mov	fp, r3
    7d96:	46b9      	mov	r9, r7
    7d98:	2300      	movs	r3, #0
    7d9a:	4e2d      	ldr	r6, [pc, #180]	; (7e50 <__aeabi_dmul+0x1ec>)
    7d9c:	2700      	movs	r7, #0
    7d9e:	1a36      	subs	r6, r6, r0
    7da0:	9302      	str	r3, [sp, #8]
    7da2:	e784      	b.n	7cae <__aeabi_dmul+0x4a>
    7da4:	4653      	mov	r3, sl
    7da6:	4323      	orrs	r3, r4
    7da8:	d12a      	bne.n	7e00 <__aeabi_dmul+0x19c>
    7daa:	2400      	movs	r4, #0
    7dac:	2002      	movs	r0, #2
    7dae:	e796      	b.n	7cde <__aeabi_dmul+0x7a>
    7db0:	4653      	mov	r3, sl
    7db2:	4323      	orrs	r3, r4
    7db4:	d020      	beq.n	7df8 <__aeabi_dmul+0x194>
    7db6:	2c00      	cmp	r4, #0
    7db8:	d100      	bne.n	7dbc <__aeabi_dmul+0x158>
    7dba:	e157      	b.n	806c <__aeabi_dmul+0x408>
    7dbc:	0020      	movs	r0, r4
    7dbe:	f7fa fedd 	bl	2b7c <__clzsi2>
    7dc2:	0003      	movs	r3, r0
    7dc4:	3b0b      	subs	r3, #11
    7dc6:	2b1c      	cmp	r3, #28
    7dc8:	dd00      	ble.n	7dcc <__aeabi_dmul+0x168>
    7dca:	e149      	b.n	8060 <__aeabi_dmul+0x3fc>
    7dcc:	211d      	movs	r1, #29
    7dce:	1acb      	subs	r3, r1, r3
    7dd0:	4651      	mov	r1, sl
    7dd2:	0002      	movs	r2, r0
    7dd4:	40d9      	lsrs	r1, r3
    7dd6:	4653      	mov	r3, sl
    7dd8:	3a08      	subs	r2, #8
    7dda:	4094      	lsls	r4, r2
    7ddc:	4093      	lsls	r3, r2
    7dde:	430c      	orrs	r4, r1
    7de0:	4a1b      	ldr	r2, [pc, #108]	; (7e50 <__aeabi_dmul+0x1ec>)
    7de2:	1a12      	subs	r2, r2, r0
    7de4:	2000      	movs	r0, #0
    7de6:	e77a      	b.n	7cde <__aeabi_dmul+0x7a>
    7de8:	2501      	movs	r5, #1
    7dea:	9b01      	ldr	r3, [sp, #4]
    7dec:	4c14      	ldr	r4, [pc, #80]	; (7e40 <__aeabi_dmul+0x1dc>)
    7dee:	401d      	ands	r5, r3
    7df0:	2300      	movs	r3, #0
    7df2:	2200      	movs	r2, #0
    7df4:	4699      	mov	r9, r3
    7df6:	e79c      	b.n	7d32 <__aeabi_dmul+0xce>
    7df8:	2400      	movs	r4, #0
    7dfa:	2200      	movs	r2, #0
    7dfc:	2001      	movs	r0, #1
    7dfe:	e76e      	b.n	7cde <__aeabi_dmul+0x7a>
    7e00:	4653      	mov	r3, sl
    7e02:	2003      	movs	r0, #3
    7e04:	e76b      	b.n	7cde <__aeabi_dmul+0x7a>
    7e06:	2300      	movs	r3, #0
    7e08:	469b      	mov	fp, r3
    7e0a:	3301      	adds	r3, #1
    7e0c:	2704      	movs	r7, #4
    7e0e:	2600      	movs	r6, #0
    7e10:	9302      	str	r3, [sp, #8]
    7e12:	e74c      	b.n	7cae <__aeabi_dmul+0x4a>
    7e14:	2303      	movs	r3, #3
    7e16:	4681      	mov	r9, r0
    7e18:	270c      	movs	r7, #12
    7e1a:	9302      	str	r3, [sp, #8]
    7e1c:	e747      	b.n	7cae <__aeabi_dmul+0x4a>
    7e1e:	2280      	movs	r2, #128	; 0x80
    7e20:	2300      	movs	r3, #0
    7e22:	2500      	movs	r5, #0
    7e24:	0312      	lsls	r2, r2, #12
    7e26:	4699      	mov	r9, r3
    7e28:	4c05      	ldr	r4, [pc, #20]	; (7e40 <__aeabi_dmul+0x1dc>)
    7e2a:	e782      	b.n	7d32 <__aeabi_dmul+0xce>
    7e2c:	465c      	mov	r4, fp
    7e2e:	464b      	mov	r3, r9
    7e30:	9802      	ldr	r0, [sp, #8]
    7e32:	e76f      	b.n	7d14 <__aeabi_dmul+0xb0>
    7e34:	465c      	mov	r4, fp
    7e36:	464b      	mov	r3, r9
    7e38:	9501      	str	r5, [sp, #4]
    7e3a:	9802      	ldr	r0, [sp, #8]
    7e3c:	e76a      	b.n	7d14 <__aeabi_dmul+0xb0>
    7e3e:	46c0      	nop			; (mov r8, r8)
    7e40:	000007ff 	.word	0x000007ff
    7e44:	fffffc01 	.word	0xfffffc01
    7e48:	00009348 	.word	0x00009348
    7e4c:	800fffff 	.word	0x800fffff
    7e50:	fffffc0d 	.word	0xfffffc0d
    7e54:	464a      	mov	r2, r9
    7e56:	4649      	mov	r1, r9
    7e58:	0c17      	lsrs	r7, r2, #16
    7e5a:	0c1a      	lsrs	r2, r3, #16
    7e5c:	041b      	lsls	r3, r3, #16
    7e5e:	0c1b      	lsrs	r3, r3, #16
    7e60:	0408      	lsls	r0, r1, #16
    7e62:	0019      	movs	r1, r3
    7e64:	0c00      	lsrs	r0, r0, #16
    7e66:	4341      	muls	r1, r0
    7e68:	0015      	movs	r5, r2
    7e6a:	4688      	mov	r8, r1
    7e6c:	0019      	movs	r1, r3
    7e6e:	437d      	muls	r5, r7
    7e70:	4379      	muls	r1, r7
    7e72:	9503      	str	r5, [sp, #12]
    7e74:	4689      	mov	r9, r1
    7e76:	0029      	movs	r1, r5
    7e78:	0015      	movs	r5, r2
    7e7a:	4345      	muls	r5, r0
    7e7c:	444d      	add	r5, r9
    7e7e:	9502      	str	r5, [sp, #8]
    7e80:	4645      	mov	r5, r8
    7e82:	0c2d      	lsrs	r5, r5, #16
    7e84:	46aa      	mov	sl, r5
    7e86:	9d02      	ldr	r5, [sp, #8]
    7e88:	4455      	add	r5, sl
    7e8a:	45a9      	cmp	r9, r5
    7e8c:	d906      	bls.n	7e9c <__aeabi_dmul+0x238>
    7e8e:	468a      	mov	sl, r1
    7e90:	2180      	movs	r1, #128	; 0x80
    7e92:	0249      	lsls	r1, r1, #9
    7e94:	4689      	mov	r9, r1
    7e96:	44ca      	add	sl, r9
    7e98:	4651      	mov	r1, sl
    7e9a:	9103      	str	r1, [sp, #12]
    7e9c:	0c29      	lsrs	r1, r5, #16
    7e9e:	9104      	str	r1, [sp, #16]
    7ea0:	4641      	mov	r1, r8
    7ea2:	0409      	lsls	r1, r1, #16
    7ea4:	042d      	lsls	r5, r5, #16
    7ea6:	0c09      	lsrs	r1, r1, #16
    7ea8:	4688      	mov	r8, r1
    7eaa:	0029      	movs	r1, r5
    7eac:	0c25      	lsrs	r5, r4, #16
    7eae:	0424      	lsls	r4, r4, #16
    7eb0:	4441      	add	r1, r8
    7eb2:	0c24      	lsrs	r4, r4, #16
    7eb4:	9105      	str	r1, [sp, #20]
    7eb6:	0021      	movs	r1, r4
    7eb8:	4341      	muls	r1, r0
    7eba:	4688      	mov	r8, r1
    7ebc:	0021      	movs	r1, r4
    7ebe:	4379      	muls	r1, r7
    7ec0:	468a      	mov	sl, r1
    7ec2:	4368      	muls	r0, r5
    7ec4:	4641      	mov	r1, r8
    7ec6:	4450      	add	r0, sl
    7ec8:	4681      	mov	r9, r0
    7eca:	0c08      	lsrs	r0, r1, #16
    7ecc:	4448      	add	r0, r9
    7ece:	436f      	muls	r7, r5
    7ed0:	4582      	cmp	sl, r0
    7ed2:	d903      	bls.n	7edc <__aeabi_dmul+0x278>
    7ed4:	2180      	movs	r1, #128	; 0x80
    7ed6:	0249      	lsls	r1, r1, #9
    7ed8:	4689      	mov	r9, r1
    7eda:	444f      	add	r7, r9
    7edc:	0c01      	lsrs	r1, r0, #16
    7ede:	4689      	mov	r9, r1
    7ee0:	0039      	movs	r1, r7
    7ee2:	4449      	add	r1, r9
    7ee4:	9102      	str	r1, [sp, #8]
    7ee6:	4641      	mov	r1, r8
    7ee8:	040f      	lsls	r7, r1, #16
    7eea:	9904      	ldr	r1, [sp, #16]
    7eec:	0c3f      	lsrs	r7, r7, #16
    7eee:	4688      	mov	r8, r1
    7ef0:	0400      	lsls	r0, r0, #16
    7ef2:	19c0      	adds	r0, r0, r7
    7ef4:	4480      	add	r8, r0
    7ef6:	4641      	mov	r1, r8
    7ef8:	9104      	str	r1, [sp, #16]
    7efa:	4659      	mov	r1, fp
    7efc:	0c0f      	lsrs	r7, r1, #16
    7efe:	0409      	lsls	r1, r1, #16
    7f00:	0c09      	lsrs	r1, r1, #16
    7f02:	4688      	mov	r8, r1
    7f04:	4359      	muls	r1, r3
    7f06:	468a      	mov	sl, r1
    7f08:	0039      	movs	r1, r7
    7f0a:	4351      	muls	r1, r2
    7f0c:	4689      	mov	r9, r1
    7f0e:	4641      	mov	r1, r8
    7f10:	434a      	muls	r2, r1
    7f12:	4651      	mov	r1, sl
    7f14:	0c09      	lsrs	r1, r1, #16
    7f16:	468b      	mov	fp, r1
    7f18:	437b      	muls	r3, r7
    7f1a:	18d2      	adds	r2, r2, r3
    7f1c:	445a      	add	r2, fp
    7f1e:	4293      	cmp	r3, r2
    7f20:	d903      	bls.n	7f2a <__aeabi_dmul+0x2c6>
    7f22:	2380      	movs	r3, #128	; 0x80
    7f24:	025b      	lsls	r3, r3, #9
    7f26:	469b      	mov	fp, r3
    7f28:	44d9      	add	r9, fp
    7f2a:	4651      	mov	r1, sl
    7f2c:	0409      	lsls	r1, r1, #16
    7f2e:	0c09      	lsrs	r1, r1, #16
    7f30:	468a      	mov	sl, r1
    7f32:	4641      	mov	r1, r8
    7f34:	4361      	muls	r1, r4
    7f36:	437c      	muls	r4, r7
    7f38:	0c13      	lsrs	r3, r2, #16
    7f3a:	0412      	lsls	r2, r2, #16
    7f3c:	444b      	add	r3, r9
    7f3e:	4452      	add	r2, sl
    7f40:	46a1      	mov	r9, r4
    7f42:	468a      	mov	sl, r1
    7f44:	003c      	movs	r4, r7
    7f46:	4641      	mov	r1, r8
    7f48:	436c      	muls	r4, r5
    7f4a:	434d      	muls	r5, r1
    7f4c:	4651      	mov	r1, sl
    7f4e:	444d      	add	r5, r9
    7f50:	0c0f      	lsrs	r7, r1, #16
    7f52:	197d      	adds	r5, r7, r5
    7f54:	45a9      	cmp	r9, r5
    7f56:	d903      	bls.n	7f60 <__aeabi_dmul+0x2fc>
    7f58:	2180      	movs	r1, #128	; 0x80
    7f5a:	0249      	lsls	r1, r1, #9
    7f5c:	4688      	mov	r8, r1
    7f5e:	4444      	add	r4, r8
    7f60:	9f04      	ldr	r7, [sp, #16]
    7f62:	9903      	ldr	r1, [sp, #12]
    7f64:	46b8      	mov	r8, r7
    7f66:	4441      	add	r1, r8
    7f68:	468b      	mov	fp, r1
    7f6a:	4583      	cmp	fp, r0
    7f6c:	4180      	sbcs	r0, r0
    7f6e:	4241      	negs	r1, r0
    7f70:	4688      	mov	r8, r1
    7f72:	4651      	mov	r1, sl
    7f74:	0408      	lsls	r0, r1, #16
    7f76:	042f      	lsls	r7, r5, #16
    7f78:	0c00      	lsrs	r0, r0, #16
    7f7a:	183f      	adds	r7, r7, r0
    7f7c:	4658      	mov	r0, fp
    7f7e:	9902      	ldr	r1, [sp, #8]
    7f80:	1810      	adds	r0, r2, r0
    7f82:	4689      	mov	r9, r1
    7f84:	4290      	cmp	r0, r2
    7f86:	4192      	sbcs	r2, r2
    7f88:	444f      	add	r7, r9
    7f8a:	46ba      	mov	sl, r7
    7f8c:	4252      	negs	r2, r2
    7f8e:	4699      	mov	r9, r3
    7f90:	4693      	mov	fp, r2
    7f92:	44c2      	add	sl, r8
    7f94:	44d1      	add	r9, sl
    7f96:	44cb      	add	fp, r9
    7f98:	428f      	cmp	r7, r1
    7f9a:	41bf      	sbcs	r7, r7
    7f9c:	45c2      	cmp	sl, r8
    7f9e:	4189      	sbcs	r1, r1
    7fa0:	4599      	cmp	r9, r3
    7fa2:	419b      	sbcs	r3, r3
    7fa4:	4593      	cmp	fp, r2
    7fa6:	4192      	sbcs	r2, r2
    7fa8:	427f      	negs	r7, r7
    7faa:	4249      	negs	r1, r1
    7fac:	0c2d      	lsrs	r5, r5, #16
    7fae:	4252      	negs	r2, r2
    7fb0:	430f      	orrs	r7, r1
    7fb2:	425b      	negs	r3, r3
    7fb4:	4313      	orrs	r3, r2
    7fb6:	197f      	adds	r7, r7, r5
    7fb8:	18ff      	adds	r7, r7, r3
    7fba:	465b      	mov	r3, fp
    7fbc:	193c      	adds	r4, r7, r4
    7fbe:	0ddb      	lsrs	r3, r3, #23
    7fc0:	9a05      	ldr	r2, [sp, #20]
    7fc2:	0264      	lsls	r4, r4, #9
    7fc4:	431c      	orrs	r4, r3
    7fc6:	0243      	lsls	r3, r0, #9
    7fc8:	4313      	orrs	r3, r2
    7fca:	1e5d      	subs	r5, r3, #1
    7fcc:	41ab      	sbcs	r3, r5
    7fce:	465a      	mov	r2, fp
    7fd0:	0dc0      	lsrs	r0, r0, #23
    7fd2:	4303      	orrs	r3, r0
    7fd4:	0252      	lsls	r2, r2, #9
    7fd6:	4313      	orrs	r3, r2
    7fd8:	01e2      	lsls	r2, r4, #7
    7fda:	d556      	bpl.n	808a <__aeabi_dmul+0x426>
    7fdc:	2001      	movs	r0, #1
    7fde:	085a      	lsrs	r2, r3, #1
    7fe0:	4003      	ands	r3, r0
    7fe2:	4313      	orrs	r3, r2
    7fe4:	07e2      	lsls	r2, r4, #31
    7fe6:	4313      	orrs	r3, r2
    7fe8:	0864      	lsrs	r4, r4, #1
    7fea:	485a      	ldr	r0, [pc, #360]	; (8154 <__aeabi_dmul+0x4f0>)
    7fec:	4460      	add	r0, ip
    7fee:	2800      	cmp	r0, #0
    7ff0:	dd4d      	ble.n	808e <__aeabi_dmul+0x42a>
    7ff2:	075a      	lsls	r2, r3, #29
    7ff4:	d009      	beq.n	800a <__aeabi_dmul+0x3a6>
    7ff6:	220f      	movs	r2, #15
    7ff8:	401a      	ands	r2, r3
    7ffa:	2a04      	cmp	r2, #4
    7ffc:	d005      	beq.n	800a <__aeabi_dmul+0x3a6>
    7ffe:	1d1a      	adds	r2, r3, #4
    8000:	429a      	cmp	r2, r3
    8002:	419b      	sbcs	r3, r3
    8004:	425b      	negs	r3, r3
    8006:	18e4      	adds	r4, r4, r3
    8008:	0013      	movs	r3, r2
    800a:	01e2      	lsls	r2, r4, #7
    800c:	d504      	bpl.n	8018 <__aeabi_dmul+0x3b4>
    800e:	2080      	movs	r0, #128	; 0x80
    8010:	4a51      	ldr	r2, [pc, #324]	; (8158 <__aeabi_dmul+0x4f4>)
    8012:	00c0      	lsls	r0, r0, #3
    8014:	4014      	ands	r4, r2
    8016:	4460      	add	r0, ip
    8018:	4a50      	ldr	r2, [pc, #320]	; (815c <__aeabi_dmul+0x4f8>)
    801a:	4290      	cmp	r0, r2
    801c:	dd00      	ble.n	8020 <__aeabi_dmul+0x3bc>
    801e:	e6e3      	b.n	7de8 <__aeabi_dmul+0x184>
    8020:	2501      	movs	r5, #1
    8022:	08db      	lsrs	r3, r3, #3
    8024:	0762      	lsls	r2, r4, #29
    8026:	431a      	orrs	r2, r3
    8028:	0264      	lsls	r4, r4, #9
    802a:	9b01      	ldr	r3, [sp, #4]
    802c:	4691      	mov	r9, r2
    802e:	0b22      	lsrs	r2, r4, #12
    8030:	0544      	lsls	r4, r0, #21
    8032:	0d64      	lsrs	r4, r4, #21
    8034:	401d      	ands	r5, r3
    8036:	e67c      	b.n	7d32 <__aeabi_dmul+0xce>
    8038:	2280      	movs	r2, #128	; 0x80
    803a:	4659      	mov	r1, fp
    803c:	0312      	lsls	r2, r2, #12
    803e:	4211      	tst	r1, r2
    8040:	d008      	beq.n	8054 <__aeabi_dmul+0x3f0>
    8042:	4214      	tst	r4, r2
    8044:	d106      	bne.n	8054 <__aeabi_dmul+0x3f0>
    8046:	4322      	orrs	r2, r4
    8048:	0312      	lsls	r2, r2, #12
    804a:	0b12      	lsrs	r2, r2, #12
    804c:	4645      	mov	r5, r8
    804e:	4699      	mov	r9, r3
    8050:	4c43      	ldr	r4, [pc, #268]	; (8160 <__aeabi_dmul+0x4fc>)
    8052:	e66e      	b.n	7d32 <__aeabi_dmul+0xce>
    8054:	465b      	mov	r3, fp
    8056:	431a      	orrs	r2, r3
    8058:	0312      	lsls	r2, r2, #12
    805a:	0b12      	lsrs	r2, r2, #12
    805c:	4c40      	ldr	r4, [pc, #256]	; (8160 <__aeabi_dmul+0x4fc>)
    805e:	e668      	b.n	7d32 <__aeabi_dmul+0xce>
    8060:	0003      	movs	r3, r0
    8062:	4654      	mov	r4, sl
    8064:	3b28      	subs	r3, #40	; 0x28
    8066:	409c      	lsls	r4, r3
    8068:	2300      	movs	r3, #0
    806a:	e6b9      	b.n	7de0 <__aeabi_dmul+0x17c>
    806c:	f7fa fd86 	bl	2b7c <__clzsi2>
    8070:	3020      	adds	r0, #32
    8072:	e6a6      	b.n	7dc2 <__aeabi_dmul+0x15e>
    8074:	0003      	movs	r3, r0
    8076:	3b28      	subs	r3, #40	; 0x28
    8078:	409f      	lsls	r7, r3
    807a:	2300      	movs	r3, #0
    807c:	46bb      	mov	fp, r7
    807e:	4699      	mov	r9, r3
    8080:	e68a      	b.n	7d98 <__aeabi_dmul+0x134>
    8082:	f7fa fd7b 	bl	2b7c <__clzsi2>
    8086:	3020      	adds	r0, #32
    8088:	e674      	b.n	7d74 <__aeabi_dmul+0x110>
    808a:	46b4      	mov	ip, r6
    808c:	e7ad      	b.n	7fea <__aeabi_dmul+0x386>
    808e:	2501      	movs	r5, #1
    8090:	1a2a      	subs	r2, r5, r0
    8092:	2a38      	cmp	r2, #56	; 0x38
    8094:	dd06      	ble.n	80a4 <__aeabi_dmul+0x440>
    8096:	9b01      	ldr	r3, [sp, #4]
    8098:	2400      	movs	r4, #0
    809a:	401d      	ands	r5, r3
    809c:	2300      	movs	r3, #0
    809e:	2200      	movs	r2, #0
    80a0:	4699      	mov	r9, r3
    80a2:	e646      	b.n	7d32 <__aeabi_dmul+0xce>
    80a4:	2a1f      	cmp	r2, #31
    80a6:	dc21      	bgt.n	80ec <__aeabi_dmul+0x488>
    80a8:	2520      	movs	r5, #32
    80aa:	0020      	movs	r0, r4
    80ac:	1aad      	subs	r5, r5, r2
    80ae:	001e      	movs	r6, r3
    80b0:	40ab      	lsls	r3, r5
    80b2:	40a8      	lsls	r0, r5
    80b4:	40d6      	lsrs	r6, r2
    80b6:	1e5d      	subs	r5, r3, #1
    80b8:	41ab      	sbcs	r3, r5
    80ba:	4330      	orrs	r0, r6
    80bc:	4318      	orrs	r0, r3
    80be:	40d4      	lsrs	r4, r2
    80c0:	0743      	lsls	r3, r0, #29
    80c2:	d009      	beq.n	80d8 <__aeabi_dmul+0x474>
    80c4:	230f      	movs	r3, #15
    80c6:	4003      	ands	r3, r0
    80c8:	2b04      	cmp	r3, #4
    80ca:	d005      	beq.n	80d8 <__aeabi_dmul+0x474>
    80cc:	0003      	movs	r3, r0
    80ce:	1d18      	adds	r0, r3, #4
    80d0:	4298      	cmp	r0, r3
    80d2:	419b      	sbcs	r3, r3
    80d4:	425b      	negs	r3, r3
    80d6:	18e4      	adds	r4, r4, r3
    80d8:	0223      	lsls	r3, r4, #8
    80da:	d521      	bpl.n	8120 <__aeabi_dmul+0x4bc>
    80dc:	2501      	movs	r5, #1
    80de:	9b01      	ldr	r3, [sp, #4]
    80e0:	2401      	movs	r4, #1
    80e2:	401d      	ands	r5, r3
    80e4:	2300      	movs	r3, #0
    80e6:	2200      	movs	r2, #0
    80e8:	4699      	mov	r9, r3
    80ea:	e622      	b.n	7d32 <__aeabi_dmul+0xce>
    80ec:	251f      	movs	r5, #31
    80ee:	0021      	movs	r1, r4
    80f0:	426d      	negs	r5, r5
    80f2:	1a28      	subs	r0, r5, r0
    80f4:	40c1      	lsrs	r1, r0
    80f6:	0008      	movs	r0, r1
    80f8:	2a20      	cmp	r2, #32
    80fa:	d01d      	beq.n	8138 <__aeabi_dmul+0x4d4>
    80fc:	355f      	adds	r5, #95	; 0x5f
    80fe:	1aaa      	subs	r2, r5, r2
    8100:	4094      	lsls	r4, r2
    8102:	4323      	orrs	r3, r4
    8104:	1e5c      	subs	r4, r3, #1
    8106:	41a3      	sbcs	r3, r4
    8108:	2507      	movs	r5, #7
    810a:	4303      	orrs	r3, r0
    810c:	401d      	ands	r5, r3
    810e:	2200      	movs	r2, #0
    8110:	2d00      	cmp	r5, #0
    8112:	d009      	beq.n	8128 <__aeabi_dmul+0x4c4>
    8114:	220f      	movs	r2, #15
    8116:	2400      	movs	r4, #0
    8118:	401a      	ands	r2, r3
    811a:	0018      	movs	r0, r3
    811c:	2a04      	cmp	r2, #4
    811e:	d1d6      	bne.n	80ce <__aeabi_dmul+0x46a>
    8120:	0003      	movs	r3, r0
    8122:	0765      	lsls	r5, r4, #29
    8124:	0264      	lsls	r4, r4, #9
    8126:	0b22      	lsrs	r2, r4, #12
    8128:	08db      	lsrs	r3, r3, #3
    812a:	432b      	orrs	r3, r5
    812c:	2501      	movs	r5, #1
    812e:	4699      	mov	r9, r3
    8130:	9b01      	ldr	r3, [sp, #4]
    8132:	2400      	movs	r4, #0
    8134:	401d      	ands	r5, r3
    8136:	e5fc      	b.n	7d32 <__aeabi_dmul+0xce>
    8138:	2400      	movs	r4, #0
    813a:	e7e2      	b.n	8102 <__aeabi_dmul+0x49e>
    813c:	2280      	movs	r2, #128	; 0x80
    813e:	2501      	movs	r5, #1
    8140:	0312      	lsls	r2, r2, #12
    8142:	4322      	orrs	r2, r4
    8144:	9901      	ldr	r1, [sp, #4]
    8146:	0312      	lsls	r2, r2, #12
    8148:	0b12      	lsrs	r2, r2, #12
    814a:	400d      	ands	r5, r1
    814c:	4699      	mov	r9, r3
    814e:	4c04      	ldr	r4, [pc, #16]	; (8160 <__aeabi_dmul+0x4fc>)
    8150:	e5ef      	b.n	7d32 <__aeabi_dmul+0xce>
    8152:	46c0      	nop			; (mov r8, r8)
    8154:	000003ff 	.word	0x000003ff
    8158:	feffffff 	.word	0xfeffffff
    815c:	000007fe 	.word	0x000007fe
    8160:	000007ff 	.word	0x000007ff

00008164 <__aeabi_dsub>:
    8164:	b5f0      	push	{r4, r5, r6, r7, lr}
    8166:	4646      	mov	r6, r8
    8168:	46d6      	mov	lr, sl
    816a:	464f      	mov	r7, r9
    816c:	030c      	lsls	r4, r1, #12
    816e:	b5c0      	push	{r6, r7, lr}
    8170:	0fcd      	lsrs	r5, r1, #31
    8172:	004e      	lsls	r6, r1, #1
    8174:	0a61      	lsrs	r1, r4, #9
    8176:	0f44      	lsrs	r4, r0, #29
    8178:	430c      	orrs	r4, r1
    817a:	00c1      	lsls	r1, r0, #3
    817c:	0058      	lsls	r0, r3, #1
    817e:	0d40      	lsrs	r0, r0, #21
    8180:	4684      	mov	ip, r0
    8182:	468a      	mov	sl, r1
    8184:	000f      	movs	r7, r1
    8186:	0319      	lsls	r1, r3, #12
    8188:	0f50      	lsrs	r0, r2, #29
    818a:	0a49      	lsrs	r1, r1, #9
    818c:	4301      	orrs	r1, r0
    818e:	48c6      	ldr	r0, [pc, #792]	; (84a8 <__aeabi_dsub+0x344>)
    8190:	0d76      	lsrs	r6, r6, #21
    8192:	46a8      	mov	r8, r5
    8194:	0fdb      	lsrs	r3, r3, #31
    8196:	00d2      	lsls	r2, r2, #3
    8198:	4584      	cmp	ip, r0
    819a:	d100      	bne.n	819e <__aeabi_dsub+0x3a>
    819c:	e0d8      	b.n	8350 <__aeabi_dsub+0x1ec>
    819e:	2001      	movs	r0, #1
    81a0:	4043      	eors	r3, r0
    81a2:	42ab      	cmp	r3, r5
    81a4:	d100      	bne.n	81a8 <__aeabi_dsub+0x44>
    81a6:	e0a6      	b.n	82f6 <__aeabi_dsub+0x192>
    81a8:	4660      	mov	r0, ip
    81aa:	1a35      	subs	r5, r6, r0
    81ac:	2d00      	cmp	r5, #0
    81ae:	dc00      	bgt.n	81b2 <__aeabi_dsub+0x4e>
    81b0:	e105      	b.n	83be <__aeabi_dsub+0x25a>
    81b2:	2800      	cmp	r0, #0
    81b4:	d110      	bne.n	81d8 <__aeabi_dsub+0x74>
    81b6:	000b      	movs	r3, r1
    81b8:	4313      	orrs	r3, r2
    81ba:	d100      	bne.n	81be <__aeabi_dsub+0x5a>
    81bc:	e0d7      	b.n	836e <__aeabi_dsub+0x20a>
    81be:	1e6b      	subs	r3, r5, #1
    81c0:	2b00      	cmp	r3, #0
    81c2:	d000      	beq.n	81c6 <__aeabi_dsub+0x62>
    81c4:	e14b      	b.n	845e <__aeabi_dsub+0x2fa>
    81c6:	4653      	mov	r3, sl
    81c8:	1a9f      	subs	r7, r3, r2
    81ca:	45ba      	cmp	sl, r7
    81cc:	4180      	sbcs	r0, r0
    81ce:	1a64      	subs	r4, r4, r1
    81d0:	4240      	negs	r0, r0
    81d2:	1a24      	subs	r4, r4, r0
    81d4:	2601      	movs	r6, #1
    81d6:	e01e      	b.n	8216 <__aeabi_dsub+0xb2>
    81d8:	4bb3      	ldr	r3, [pc, #716]	; (84a8 <__aeabi_dsub+0x344>)
    81da:	429e      	cmp	r6, r3
    81dc:	d048      	beq.n	8270 <__aeabi_dsub+0x10c>
    81de:	2380      	movs	r3, #128	; 0x80
    81e0:	041b      	lsls	r3, r3, #16
    81e2:	4319      	orrs	r1, r3
    81e4:	2d38      	cmp	r5, #56	; 0x38
    81e6:	dd00      	ble.n	81ea <__aeabi_dsub+0x86>
    81e8:	e119      	b.n	841e <__aeabi_dsub+0x2ba>
    81ea:	2d1f      	cmp	r5, #31
    81ec:	dd00      	ble.n	81f0 <__aeabi_dsub+0x8c>
    81ee:	e14c      	b.n	848a <__aeabi_dsub+0x326>
    81f0:	2320      	movs	r3, #32
    81f2:	000f      	movs	r7, r1
    81f4:	1b5b      	subs	r3, r3, r5
    81f6:	0010      	movs	r0, r2
    81f8:	409a      	lsls	r2, r3
    81fa:	409f      	lsls	r7, r3
    81fc:	40e8      	lsrs	r0, r5
    81fe:	1e53      	subs	r3, r2, #1
    8200:	419a      	sbcs	r2, r3
    8202:	40e9      	lsrs	r1, r5
    8204:	4307      	orrs	r7, r0
    8206:	4317      	orrs	r7, r2
    8208:	4653      	mov	r3, sl
    820a:	1bdf      	subs	r7, r3, r7
    820c:	1a61      	subs	r1, r4, r1
    820e:	45ba      	cmp	sl, r7
    8210:	41a4      	sbcs	r4, r4
    8212:	4264      	negs	r4, r4
    8214:	1b0c      	subs	r4, r1, r4
    8216:	0223      	lsls	r3, r4, #8
    8218:	d400      	bmi.n	821c <__aeabi_dsub+0xb8>
    821a:	e0c5      	b.n	83a8 <__aeabi_dsub+0x244>
    821c:	0264      	lsls	r4, r4, #9
    821e:	0a65      	lsrs	r5, r4, #9
    8220:	2d00      	cmp	r5, #0
    8222:	d100      	bne.n	8226 <__aeabi_dsub+0xc2>
    8224:	e0f6      	b.n	8414 <__aeabi_dsub+0x2b0>
    8226:	0028      	movs	r0, r5
    8228:	f7fa fca8 	bl	2b7c <__clzsi2>
    822c:	0003      	movs	r3, r0
    822e:	3b08      	subs	r3, #8
    8230:	2b1f      	cmp	r3, #31
    8232:	dd00      	ble.n	8236 <__aeabi_dsub+0xd2>
    8234:	e0e9      	b.n	840a <__aeabi_dsub+0x2a6>
    8236:	2220      	movs	r2, #32
    8238:	003c      	movs	r4, r7
    823a:	1ad2      	subs	r2, r2, r3
    823c:	409d      	lsls	r5, r3
    823e:	40d4      	lsrs	r4, r2
    8240:	409f      	lsls	r7, r3
    8242:	4325      	orrs	r5, r4
    8244:	429e      	cmp	r6, r3
    8246:	dd00      	ble.n	824a <__aeabi_dsub+0xe6>
    8248:	e0db      	b.n	8402 <__aeabi_dsub+0x29e>
    824a:	1b9e      	subs	r6, r3, r6
    824c:	1c73      	adds	r3, r6, #1
    824e:	2b1f      	cmp	r3, #31
    8250:	dd00      	ble.n	8254 <__aeabi_dsub+0xf0>
    8252:	e10a      	b.n	846a <__aeabi_dsub+0x306>
    8254:	2220      	movs	r2, #32
    8256:	0038      	movs	r0, r7
    8258:	1ad2      	subs	r2, r2, r3
    825a:	0029      	movs	r1, r5
    825c:	4097      	lsls	r7, r2
    825e:	002c      	movs	r4, r5
    8260:	4091      	lsls	r1, r2
    8262:	40d8      	lsrs	r0, r3
    8264:	1e7a      	subs	r2, r7, #1
    8266:	4197      	sbcs	r7, r2
    8268:	40dc      	lsrs	r4, r3
    826a:	2600      	movs	r6, #0
    826c:	4301      	orrs	r1, r0
    826e:	430f      	orrs	r7, r1
    8270:	077b      	lsls	r3, r7, #29
    8272:	d009      	beq.n	8288 <__aeabi_dsub+0x124>
    8274:	230f      	movs	r3, #15
    8276:	403b      	ands	r3, r7
    8278:	2b04      	cmp	r3, #4
    827a:	d005      	beq.n	8288 <__aeabi_dsub+0x124>
    827c:	1d3b      	adds	r3, r7, #4
    827e:	42bb      	cmp	r3, r7
    8280:	41bf      	sbcs	r7, r7
    8282:	427f      	negs	r7, r7
    8284:	19e4      	adds	r4, r4, r7
    8286:	001f      	movs	r7, r3
    8288:	0223      	lsls	r3, r4, #8
    828a:	d525      	bpl.n	82d8 <__aeabi_dsub+0x174>
    828c:	4b86      	ldr	r3, [pc, #536]	; (84a8 <__aeabi_dsub+0x344>)
    828e:	3601      	adds	r6, #1
    8290:	429e      	cmp	r6, r3
    8292:	d100      	bne.n	8296 <__aeabi_dsub+0x132>
    8294:	e0af      	b.n	83f6 <__aeabi_dsub+0x292>
    8296:	4b85      	ldr	r3, [pc, #532]	; (84ac <__aeabi_dsub+0x348>)
    8298:	2501      	movs	r5, #1
    829a:	401c      	ands	r4, r3
    829c:	4643      	mov	r3, r8
    829e:	0762      	lsls	r2, r4, #29
    82a0:	08ff      	lsrs	r7, r7, #3
    82a2:	0264      	lsls	r4, r4, #9
    82a4:	0576      	lsls	r6, r6, #21
    82a6:	4317      	orrs	r7, r2
    82a8:	0b24      	lsrs	r4, r4, #12
    82aa:	0d76      	lsrs	r6, r6, #21
    82ac:	401d      	ands	r5, r3
    82ae:	2100      	movs	r1, #0
    82b0:	0324      	lsls	r4, r4, #12
    82b2:	0b23      	lsrs	r3, r4, #12
    82b4:	0d0c      	lsrs	r4, r1, #20
    82b6:	4a7e      	ldr	r2, [pc, #504]	; (84b0 <__aeabi_dsub+0x34c>)
    82b8:	0524      	lsls	r4, r4, #20
    82ba:	431c      	orrs	r4, r3
    82bc:	4014      	ands	r4, r2
    82be:	0533      	lsls	r3, r6, #20
    82c0:	4323      	orrs	r3, r4
    82c2:	005b      	lsls	r3, r3, #1
    82c4:	07ed      	lsls	r5, r5, #31
    82c6:	085b      	lsrs	r3, r3, #1
    82c8:	432b      	orrs	r3, r5
    82ca:	0038      	movs	r0, r7
    82cc:	0019      	movs	r1, r3
    82ce:	bc1c      	pop	{r2, r3, r4}
    82d0:	4690      	mov	r8, r2
    82d2:	4699      	mov	r9, r3
    82d4:	46a2      	mov	sl, r4
    82d6:	bdf0      	pop	{r4, r5, r6, r7, pc}
    82d8:	2501      	movs	r5, #1
    82da:	4643      	mov	r3, r8
    82dc:	0762      	lsls	r2, r4, #29
    82de:	08ff      	lsrs	r7, r7, #3
    82e0:	4317      	orrs	r7, r2
    82e2:	08e4      	lsrs	r4, r4, #3
    82e4:	401d      	ands	r5, r3
    82e6:	4b70      	ldr	r3, [pc, #448]	; (84a8 <__aeabi_dsub+0x344>)
    82e8:	429e      	cmp	r6, r3
    82ea:	d036      	beq.n	835a <__aeabi_dsub+0x1f6>
    82ec:	0324      	lsls	r4, r4, #12
    82ee:	0576      	lsls	r6, r6, #21
    82f0:	0b24      	lsrs	r4, r4, #12
    82f2:	0d76      	lsrs	r6, r6, #21
    82f4:	e7db      	b.n	82ae <__aeabi_dsub+0x14a>
    82f6:	4663      	mov	r3, ip
    82f8:	1af3      	subs	r3, r6, r3
    82fa:	2b00      	cmp	r3, #0
    82fc:	dc00      	bgt.n	8300 <__aeabi_dsub+0x19c>
    82fe:	e094      	b.n	842a <__aeabi_dsub+0x2c6>
    8300:	4660      	mov	r0, ip
    8302:	2800      	cmp	r0, #0
    8304:	d035      	beq.n	8372 <__aeabi_dsub+0x20e>
    8306:	4868      	ldr	r0, [pc, #416]	; (84a8 <__aeabi_dsub+0x344>)
    8308:	4286      	cmp	r6, r0
    830a:	d0b1      	beq.n	8270 <__aeabi_dsub+0x10c>
    830c:	2780      	movs	r7, #128	; 0x80
    830e:	043f      	lsls	r7, r7, #16
    8310:	4339      	orrs	r1, r7
    8312:	2b38      	cmp	r3, #56	; 0x38
    8314:	dc00      	bgt.n	8318 <__aeabi_dsub+0x1b4>
    8316:	e0fd      	b.n	8514 <__aeabi_dsub+0x3b0>
    8318:	430a      	orrs	r2, r1
    831a:	0017      	movs	r7, r2
    831c:	2100      	movs	r1, #0
    831e:	1e7a      	subs	r2, r7, #1
    8320:	4197      	sbcs	r7, r2
    8322:	4457      	add	r7, sl
    8324:	4557      	cmp	r7, sl
    8326:	4180      	sbcs	r0, r0
    8328:	1909      	adds	r1, r1, r4
    832a:	4244      	negs	r4, r0
    832c:	190c      	adds	r4, r1, r4
    832e:	0223      	lsls	r3, r4, #8
    8330:	d53a      	bpl.n	83a8 <__aeabi_dsub+0x244>
    8332:	4b5d      	ldr	r3, [pc, #372]	; (84a8 <__aeabi_dsub+0x344>)
    8334:	3601      	adds	r6, #1
    8336:	429e      	cmp	r6, r3
    8338:	d100      	bne.n	833c <__aeabi_dsub+0x1d8>
    833a:	e14b      	b.n	85d4 <__aeabi_dsub+0x470>
    833c:	2201      	movs	r2, #1
    833e:	4b5b      	ldr	r3, [pc, #364]	; (84ac <__aeabi_dsub+0x348>)
    8340:	401c      	ands	r4, r3
    8342:	087b      	lsrs	r3, r7, #1
    8344:	4017      	ands	r7, r2
    8346:	431f      	orrs	r7, r3
    8348:	07e2      	lsls	r2, r4, #31
    834a:	4317      	orrs	r7, r2
    834c:	0864      	lsrs	r4, r4, #1
    834e:	e78f      	b.n	8270 <__aeabi_dsub+0x10c>
    8350:	0008      	movs	r0, r1
    8352:	4310      	orrs	r0, r2
    8354:	d000      	beq.n	8358 <__aeabi_dsub+0x1f4>
    8356:	e724      	b.n	81a2 <__aeabi_dsub+0x3e>
    8358:	e721      	b.n	819e <__aeabi_dsub+0x3a>
    835a:	0023      	movs	r3, r4
    835c:	433b      	orrs	r3, r7
    835e:	d100      	bne.n	8362 <__aeabi_dsub+0x1fe>
    8360:	e1b9      	b.n	86d6 <__aeabi_dsub+0x572>
    8362:	2280      	movs	r2, #128	; 0x80
    8364:	0312      	lsls	r2, r2, #12
    8366:	4314      	orrs	r4, r2
    8368:	0324      	lsls	r4, r4, #12
    836a:	0b24      	lsrs	r4, r4, #12
    836c:	e79f      	b.n	82ae <__aeabi_dsub+0x14a>
    836e:	002e      	movs	r6, r5
    8370:	e77e      	b.n	8270 <__aeabi_dsub+0x10c>
    8372:	0008      	movs	r0, r1
    8374:	4310      	orrs	r0, r2
    8376:	d100      	bne.n	837a <__aeabi_dsub+0x216>
    8378:	e0ca      	b.n	8510 <__aeabi_dsub+0x3ac>
    837a:	1e58      	subs	r0, r3, #1
    837c:	4684      	mov	ip, r0
    837e:	2800      	cmp	r0, #0
    8380:	d000      	beq.n	8384 <__aeabi_dsub+0x220>
    8382:	e0e7      	b.n	8554 <__aeabi_dsub+0x3f0>
    8384:	4452      	add	r2, sl
    8386:	4552      	cmp	r2, sl
    8388:	4180      	sbcs	r0, r0
    838a:	1864      	adds	r4, r4, r1
    838c:	4240      	negs	r0, r0
    838e:	1824      	adds	r4, r4, r0
    8390:	0017      	movs	r7, r2
    8392:	2601      	movs	r6, #1
    8394:	0223      	lsls	r3, r4, #8
    8396:	d507      	bpl.n	83a8 <__aeabi_dsub+0x244>
    8398:	2602      	movs	r6, #2
    839a:	e7cf      	b.n	833c <__aeabi_dsub+0x1d8>
    839c:	4664      	mov	r4, ip
    839e:	432c      	orrs	r4, r5
    83a0:	d100      	bne.n	83a4 <__aeabi_dsub+0x240>
    83a2:	e1b3      	b.n	870c <__aeabi_dsub+0x5a8>
    83a4:	002c      	movs	r4, r5
    83a6:	4667      	mov	r7, ip
    83a8:	077b      	lsls	r3, r7, #29
    83aa:	d000      	beq.n	83ae <__aeabi_dsub+0x24a>
    83ac:	e762      	b.n	8274 <__aeabi_dsub+0x110>
    83ae:	0763      	lsls	r3, r4, #29
    83b0:	08ff      	lsrs	r7, r7, #3
    83b2:	431f      	orrs	r7, r3
    83b4:	2501      	movs	r5, #1
    83b6:	4643      	mov	r3, r8
    83b8:	08e4      	lsrs	r4, r4, #3
    83ba:	401d      	ands	r5, r3
    83bc:	e793      	b.n	82e6 <__aeabi_dsub+0x182>
    83be:	2d00      	cmp	r5, #0
    83c0:	d178      	bne.n	84b4 <__aeabi_dsub+0x350>
    83c2:	1c75      	adds	r5, r6, #1
    83c4:	056d      	lsls	r5, r5, #21
    83c6:	0d6d      	lsrs	r5, r5, #21
    83c8:	2d01      	cmp	r5, #1
    83ca:	dc00      	bgt.n	83ce <__aeabi_dsub+0x26a>
    83cc:	e0f2      	b.n	85b4 <__aeabi_dsub+0x450>
    83ce:	4650      	mov	r0, sl
    83d0:	1a80      	subs	r0, r0, r2
    83d2:	4582      	cmp	sl, r0
    83d4:	41bf      	sbcs	r7, r7
    83d6:	1a65      	subs	r5, r4, r1
    83d8:	427f      	negs	r7, r7
    83da:	1bed      	subs	r5, r5, r7
    83dc:	4684      	mov	ip, r0
    83de:	0228      	lsls	r0, r5, #8
    83e0:	d400      	bmi.n	83e4 <__aeabi_dsub+0x280>
    83e2:	e08c      	b.n	84fe <__aeabi_dsub+0x39a>
    83e4:	4650      	mov	r0, sl
    83e6:	1a17      	subs	r7, r2, r0
    83e8:	42ba      	cmp	r2, r7
    83ea:	4192      	sbcs	r2, r2
    83ec:	1b0c      	subs	r4, r1, r4
    83ee:	4255      	negs	r5, r2
    83f0:	1b65      	subs	r5, r4, r5
    83f2:	4698      	mov	r8, r3
    83f4:	e714      	b.n	8220 <__aeabi_dsub+0xbc>
    83f6:	2501      	movs	r5, #1
    83f8:	4643      	mov	r3, r8
    83fa:	2400      	movs	r4, #0
    83fc:	401d      	ands	r5, r3
    83fe:	2700      	movs	r7, #0
    8400:	e755      	b.n	82ae <__aeabi_dsub+0x14a>
    8402:	4c2a      	ldr	r4, [pc, #168]	; (84ac <__aeabi_dsub+0x348>)
    8404:	1af6      	subs	r6, r6, r3
    8406:	402c      	ands	r4, r5
    8408:	e732      	b.n	8270 <__aeabi_dsub+0x10c>
    840a:	003d      	movs	r5, r7
    840c:	3828      	subs	r0, #40	; 0x28
    840e:	4085      	lsls	r5, r0
    8410:	2700      	movs	r7, #0
    8412:	e717      	b.n	8244 <__aeabi_dsub+0xe0>
    8414:	0038      	movs	r0, r7
    8416:	f7fa fbb1 	bl	2b7c <__clzsi2>
    841a:	3020      	adds	r0, #32
    841c:	e706      	b.n	822c <__aeabi_dsub+0xc8>
    841e:	430a      	orrs	r2, r1
    8420:	0017      	movs	r7, r2
    8422:	2100      	movs	r1, #0
    8424:	1e7a      	subs	r2, r7, #1
    8426:	4197      	sbcs	r7, r2
    8428:	e6ee      	b.n	8208 <__aeabi_dsub+0xa4>
    842a:	2b00      	cmp	r3, #0
    842c:	d000      	beq.n	8430 <__aeabi_dsub+0x2cc>
    842e:	e0e5      	b.n	85fc <__aeabi_dsub+0x498>
    8430:	1c73      	adds	r3, r6, #1
    8432:	469c      	mov	ip, r3
    8434:	055b      	lsls	r3, r3, #21
    8436:	0d5b      	lsrs	r3, r3, #21
    8438:	2b01      	cmp	r3, #1
    843a:	dc00      	bgt.n	843e <__aeabi_dsub+0x2da>
    843c:	e09f      	b.n	857e <__aeabi_dsub+0x41a>
    843e:	4b1a      	ldr	r3, [pc, #104]	; (84a8 <__aeabi_dsub+0x344>)
    8440:	459c      	cmp	ip, r3
    8442:	d100      	bne.n	8446 <__aeabi_dsub+0x2e2>
    8444:	e0c5      	b.n	85d2 <__aeabi_dsub+0x46e>
    8446:	4452      	add	r2, sl
    8448:	4552      	cmp	r2, sl
    844a:	4180      	sbcs	r0, r0
    844c:	1864      	adds	r4, r4, r1
    844e:	4240      	negs	r0, r0
    8450:	1824      	adds	r4, r4, r0
    8452:	07e7      	lsls	r7, r4, #31
    8454:	0852      	lsrs	r2, r2, #1
    8456:	4317      	orrs	r7, r2
    8458:	0864      	lsrs	r4, r4, #1
    845a:	4666      	mov	r6, ip
    845c:	e708      	b.n	8270 <__aeabi_dsub+0x10c>
    845e:	4812      	ldr	r0, [pc, #72]	; (84a8 <__aeabi_dsub+0x344>)
    8460:	4285      	cmp	r5, r0
    8462:	d100      	bne.n	8466 <__aeabi_dsub+0x302>
    8464:	e085      	b.n	8572 <__aeabi_dsub+0x40e>
    8466:	001d      	movs	r5, r3
    8468:	e6bc      	b.n	81e4 <__aeabi_dsub+0x80>
    846a:	0029      	movs	r1, r5
    846c:	3e1f      	subs	r6, #31
    846e:	40f1      	lsrs	r1, r6
    8470:	2b20      	cmp	r3, #32
    8472:	d100      	bne.n	8476 <__aeabi_dsub+0x312>
    8474:	e07f      	b.n	8576 <__aeabi_dsub+0x412>
    8476:	2240      	movs	r2, #64	; 0x40
    8478:	1ad3      	subs	r3, r2, r3
    847a:	409d      	lsls	r5, r3
    847c:	432f      	orrs	r7, r5
    847e:	1e7d      	subs	r5, r7, #1
    8480:	41af      	sbcs	r7, r5
    8482:	2400      	movs	r4, #0
    8484:	430f      	orrs	r7, r1
    8486:	2600      	movs	r6, #0
    8488:	e78e      	b.n	83a8 <__aeabi_dsub+0x244>
    848a:	002b      	movs	r3, r5
    848c:	000f      	movs	r7, r1
    848e:	3b20      	subs	r3, #32
    8490:	40df      	lsrs	r7, r3
    8492:	2d20      	cmp	r5, #32
    8494:	d071      	beq.n	857a <__aeabi_dsub+0x416>
    8496:	2340      	movs	r3, #64	; 0x40
    8498:	1b5d      	subs	r5, r3, r5
    849a:	40a9      	lsls	r1, r5
    849c:	430a      	orrs	r2, r1
    849e:	1e51      	subs	r1, r2, #1
    84a0:	418a      	sbcs	r2, r1
    84a2:	2100      	movs	r1, #0
    84a4:	4317      	orrs	r7, r2
    84a6:	e6af      	b.n	8208 <__aeabi_dsub+0xa4>
    84a8:	000007ff 	.word	0x000007ff
    84ac:	ff7fffff 	.word	0xff7fffff
    84b0:	800fffff 	.word	0x800fffff
    84b4:	2e00      	cmp	r6, #0
    84b6:	d03e      	beq.n	8536 <__aeabi_dsub+0x3d2>
    84b8:	4eb3      	ldr	r6, [pc, #716]	; (8788 <__aeabi_dsub+0x624>)
    84ba:	45b4      	cmp	ip, r6
    84bc:	d045      	beq.n	854a <__aeabi_dsub+0x3e6>
    84be:	2680      	movs	r6, #128	; 0x80
    84c0:	0436      	lsls	r6, r6, #16
    84c2:	426d      	negs	r5, r5
    84c4:	4334      	orrs	r4, r6
    84c6:	2d38      	cmp	r5, #56	; 0x38
    84c8:	dd00      	ble.n	84cc <__aeabi_dsub+0x368>
    84ca:	e0a8      	b.n	861e <__aeabi_dsub+0x4ba>
    84cc:	2d1f      	cmp	r5, #31
    84ce:	dd00      	ble.n	84d2 <__aeabi_dsub+0x36e>
    84d0:	e11f      	b.n	8712 <__aeabi_dsub+0x5ae>
    84d2:	2620      	movs	r6, #32
    84d4:	0027      	movs	r7, r4
    84d6:	4650      	mov	r0, sl
    84d8:	1b76      	subs	r6, r6, r5
    84da:	40b7      	lsls	r7, r6
    84dc:	40e8      	lsrs	r0, r5
    84de:	4307      	orrs	r7, r0
    84e0:	4650      	mov	r0, sl
    84e2:	40b0      	lsls	r0, r6
    84e4:	1e46      	subs	r6, r0, #1
    84e6:	41b0      	sbcs	r0, r6
    84e8:	40ec      	lsrs	r4, r5
    84ea:	4338      	orrs	r0, r7
    84ec:	1a17      	subs	r7, r2, r0
    84ee:	42ba      	cmp	r2, r7
    84f0:	4192      	sbcs	r2, r2
    84f2:	1b0c      	subs	r4, r1, r4
    84f4:	4252      	negs	r2, r2
    84f6:	1aa4      	subs	r4, r4, r2
    84f8:	4666      	mov	r6, ip
    84fa:	4698      	mov	r8, r3
    84fc:	e68b      	b.n	8216 <__aeabi_dsub+0xb2>
    84fe:	4664      	mov	r4, ip
    8500:	4667      	mov	r7, ip
    8502:	432c      	orrs	r4, r5
    8504:	d000      	beq.n	8508 <__aeabi_dsub+0x3a4>
    8506:	e68b      	b.n	8220 <__aeabi_dsub+0xbc>
    8508:	2500      	movs	r5, #0
    850a:	2600      	movs	r6, #0
    850c:	2700      	movs	r7, #0
    850e:	e6ea      	b.n	82e6 <__aeabi_dsub+0x182>
    8510:	001e      	movs	r6, r3
    8512:	e6ad      	b.n	8270 <__aeabi_dsub+0x10c>
    8514:	2b1f      	cmp	r3, #31
    8516:	dc60      	bgt.n	85da <__aeabi_dsub+0x476>
    8518:	2720      	movs	r7, #32
    851a:	1af8      	subs	r0, r7, r3
    851c:	000f      	movs	r7, r1
    851e:	4684      	mov	ip, r0
    8520:	4087      	lsls	r7, r0
    8522:	0010      	movs	r0, r2
    8524:	40d8      	lsrs	r0, r3
    8526:	4307      	orrs	r7, r0
    8528:	4660      	mov	r0, ip
    852a:	4082      	lsls	r2, r0
    852c:	1e50      	subs	r0, r2, #1
    852e:	4182      	sbcs	r2, r0
    8530:	40d9      	lsrs	r1, r3
    8532:	4317      	orrs	r7, r2
    8534:	e6f5      	b.n	8322 <__aeabi_dsub+0x1be>
    8536:	0026      	movs	r6, r4
    8538:	4650      	mov	r0, sl
    853a:	4306      	orrs	r6, r0
    853c:	d005      	beq.n	854a <__aeabi_dsub+0x3e6>
    853e:	43ed      	mvns	r5, r5
    8540:	2d00      	cmp	r5, #0
    8542:	d0d3      	beq.n	84ec <__aeabi_dsub+0x388>
    8544:	4e90      	ldr	r6, [pc, #576]	; (8788 <__aeabi_dsub+0x624>)
    8546:	45b4      	cmp	ip, r6
    8548:	d1bd      	bne.n	84c6 <__aeabi_dsub+0x362>
    854a:	000c      	movs	r4, r1
    854c:	0017      	movs	r7, r2
    854e:	4666      	mov	r6, ip
    8550:	4698      	mov	r8, r3
    8552:	e68d      	b.n	8270 <__aeabi_dsub+0x10c>
    8554:	488c      	ldr	r0, [pc, #560]	; (8788 <__aeabi_dsub+0x624>)
    8556:	4283      	cmp	r3, r0
    8558:	d00b      	beq.n	8572 <__aeabi_dsub+0x40e>
    855a:	4663      	mov	r3, ip
    855c:	e6d9      	b.n	8312 <__aeabi_dsub+0x1ae>
    855e:	2d00      	cmp	r5, #0
    8560:	d000      	beq.n	8564 <__aeabi_dsub+0x400>
    8562:	e096      	b.n	8692 <__aeabi_dsub+0x52e>
    8564:	0008      	movs	r0, r1
    8566:	4310      	orrs	r0, r2
    8568:	d100      	bne.n	856c <__aeabi_dsub+0x408>
    856a:	e0e2      	b.n	8732 <__aeabi_dsub+0x5ce>
    856c:	000c      	movs	r4, r1
    856e:	0017      	movs	r7, r2
    8570:	4698      	mov	r8, r3
    8572:	4e85      	ldr	r6, [pc, #532]	; (8788 <__aeabi_dsub+0x624>)
    8574:	e67c      	b.n	8270 <__aeabi_dsub+0x10c>
    8576:	2500      	movs	r5, #0
    8578:	e780      	b.n	847c <__aeabi_dsub+0x318>
    857a:	2100      	movs	r1, #0
    857c:	e78e      	b.n	849c <__aeabi_dsub+0x338>
    857e:	0023      	movs	r3, r4
    8580:	4650      	mov	r0, sl
    8582:	4303      	orrs	r3, r0
    8584:	2e00      	cmp	r6, #0
    8586:	d000      	beq.n	858a <__aeabi_dsub+0x426>
    8588:	e0a8      	b.n	86dc <__aeabi_dsub+0x578>
    858a:	2b00      	cmp	r3, #0
    858c:	d100      	bne.n	8590 <__aeabi_dsub+0x42c>
    858e:	e0de      	b.n	874e <__aeabi_dsub+0x5ea>
    8590:	000b      	movs	r3, r1
    8592:	4313      	orrs	r3, r2
    8594:	d100      	bne.n	8598 <__aeabi_dsub+0x434>
    8596:	e66b      	b.n	8270 <__aeabi_dsub+0x10c>
    8598:	4452      	add	r2, sl
    859a:	4552      	cmp	r2, sl
    859c:	4180      	sbcs	r0, r0
    859e:	1864      	adds	r4, r4, r1
    85a0:	4240      	negs	r0, r0
    85a2:	1824      	adds	r4, r4, r0
    85a4:	0017      	movs	r7, r2
    85a6:	0223      	lsls	r3, r4, #8
    85a8:	d400      	bmi.n	85ac <__aeabi_dsub+0x448>
    85aa:	e6fd      	b.n	83a8 <__aeabi_dsub+0x244>
    85ac:	4b77      	ldr	r3, [pc, #476]	; (878c <__aeabi_dsub+0x628>)
    85ae:	4666      	mov	r6, ip
    85b0:	401c      	ands	r4, r3
    85b2:	e65d      	b.n	8270 <__aeabi_dsub+0x10c>
    85b4:	0025      	movs	r5, r4
    85b6:	4650      	mov	r0, sl
    85b8:	4305      	orrs	r5, r0
    85ba:	2e00      	cmp	r6, #0
    85bc:	d1cf      	bne.n	855e <__aeabi_dsub+0x3fa>
    85be:	2d00      	cmp	r5, #0
    85c0:	d14f      	bne.n	8662 <__aeabi_dsub+0x4fe>
    85c2:	000c      	movs	r4, r1
    85c4:	4314      	orrs	r4, r2
    85c6:	d100      	bne.n	85ca <__aeabi_dsub+0x466>
    85c8:	e0a0      	b.n	870c <__aeabi_dsub+0x5a8>
    85ca:	000c      	movs	r4, r1
    85cc:	0017      	movs	r7, r2
    85ce:	4698      	mov	r8, r3
    85d0:	e64e      	b.n	8270 <__aeabi_dsub+0x10c>
    85d2:	4666      	mov	r6, ip
    85d4:	2400      	movs	r4, #0
    85d6:	2700      	movs	r7, #0
    85d8:	e685      	b.n	82e6 <__aeabi_dsub+0x182>
    85da:	001f      	movs	r7, r3
    85dc:	0008      	movs	r0, r1
    85de:	3f20      	subs	r7, #32
    85e0:	40f8      	lsrs	r0, r7
    85e2:	0007      	movs	r7, r0
    85e4:	2b20      	cmp	r3, #32
    85e6:	d100      	bne.n	85ea <__aeabi_dsub+0x486>
    85e8:	e08e      	b.n	8708 <__aeabi_dsub+0x5a4>
    85ea:	2040      	movs	r0, #64	; 0x40
    85ec:	1ac3      	subs	r3, r0, r3
    85ee:	4099      	lsls	r1, r3
    85f0:	430a      	orrs	r2, r1
    85f2:	1e51      	subs	r1, r2, #1
    85f4:	418a      	sbcs	r2, r1
    85f6:	2100      	movs	r1, #0
    85f8:	4317      	orrs	r7, r2
    85fa:	e692      	b.n	8322 <__aeabi_dsub+0x1be>
    85fc:	2e00      	cmp	r6, #0
    85fe:	d114      	bne.n	862a <__aeabi_dsub+0x4c6>
    8600:	0026      	movs	r6, r4
    8602:	4650      	mov	r0, sl
    8604:	4306      	orrs	r6, r0
    8606:	d062      	beq.n	86ce <__aeabi_dsub+0x56a>
    8608:	43db      	mvns	r3, r3
    860a:	2b00      	cmp	r3, #0
    860c:	d15c      	bne.n	86c8 <__aeabi_dsub+0x564>
    860e:	1887      	adds	r7, r0, r2
    8610:	4297      	cmp	r7, r2
    8612:	4192      	sbcs	r2, r2
    8614:	1864      	adds	r4, r4, r1
    8616:	4252      	negs	r2, r2
    8618:	18a4      	adds	r4, r4, r2
    861a:	4666      	mov	r6, ip
    861c:	e687      	b.n	832e <__aeabi_dsub+0x1ca>
    861e:	4650      	mov	r0, sl
    8620:	4320      	orrs	r0, r4
    8622:	1e44      	subs	r4, r0, #1
    8624:	41a0      	sbcs	r0, r4
    8626:	2400      	movs	r4, #0
    8628:	e760      	b.n	84ec <__aeabi_dsub+0x388>
    862a:	4e57      	ldr	r6, [pc, #348]	; (8788 <__aeabi_dsub+0x624>)
    862c:	45b4      	cmp	ip, r6
    862e:	d04e      	beq.n	86ce <__aeabi_dsub+0x56a>
    8630:	2680      	movs	r6, #128	; 0x80
    8632:	0436      	lsls	r6, r6, #16
    8634:	425b      	negs	r3, r3
    8636:	4334      	orrs	r4, r6
    8638:	2b38      	cmp	r3, #56	; 0x38
    863a:	dd00      	ble.n	863e <__aeabi_dsub+0x4da>
    863c:	e07f      	b.n	873e <__aeabi_dsub+0x5da>
    863e:	2b1f      	cmp	r3, #31
    8640:	dd00      	ble.n	8644 <__aeabi_dsub+0x4e0>
    8642:	e08b      	b.n	875c <__aeabi_dsub+0x5f8>
    8644:	2620      	movs	r6, #32
    8646:	0027      	movs	r7, r4
    8648:	4650      	mov	r0, sl
    864a:	1af6      	subs	r6, r6, r3
    864c:	40b7      	lsls	r7, r6
    864e:	40d8      	lsrs	r0, r3
    8650:	4307      	orrs	r7, r0
    8652:	4650      	mov	r0, sl
    8654:	40b0      	lsls	r0, r6
    8656:	1e46      	subs	r6, r0, #1
    8658:	41b0      	sbcs	r0, r6
    865a:	4307      	orrs	r7, r0
    865c:	40dc      	lsrs	r4, r3
    865e:	18bf      	adds	r7, r7, r2
    8660:	e7d6      	b.n	8610 <__aeabi_dsub+0x4ac>
    8662:	000d      	movs	r5, r1
    8664:	4315      	orrs	r5, r2
    8666:	d100      	bne.n	866a <__aeabi_dsub+0x506>
    8668:	e602      	b.n	8270 <__aeabi_dsub+0x10c>
    866a:	4650      	mov	r0, sl
    866c:	1a80      	subs	r0, r0, r2
    866e:	4582      	cmp	sl, r0
    8670:	41bf      	sbcs	r7, r7
    8672:	1a65      	subs	r5, r4, r1
    8674:	427f      	negs	r7, r7
    8676:	1bed      	subs	r5, r5, r7
    8678:	4684      	mov	ip, r0
    867a:	0228      	lsls	r0, r5, #8
    867c:	d400      	bmi.n	8680 <__aeabi_dsub+0x51c>
    867e:	e68d      	b.n	839c <__aeabi_dsub+0x238>
    8680:	4650      	mov	r0, sl
    8682:	1a17      	subs	r7, r2, r0
    8684:	42ba      	cmp	r2, r7
    8686:	4192      	sbcs	r2, r2
    8688:	1b0c      	subs	r4, r1, r4
    868a:	4252      	negs	r2, r2
    868c:	1aa4      	subs	r4, r4, r2
    868e:	4698      	mov	r8, r3
    8690:	e5ee      	b.n	8270 <__aeabi_dsub+0x10c>
    8692:	000d      	movs	r5, r1
    8694:	4315      	orrs	r5, r2
    8696:	d100      	bne.n	869a <__aeabi_dsub+0x536>
    8698:	e76b      	b.n	8572 <__aeabi_dsub+0x40e>
    869a:	4650      	mov	r0, sl
    869c:	0767      	lsls	r7, r4, #29
    869e:	08c0      	lsrs	r0, r0, #3
    86a0:	4307      	orrs	r7, r0
    86a2:	2080      	movs	r0, #128	; 0x80
    86a4:	08e4      	lsrs	r4, r4, #3
    86a6:	0300      	lsls	r0, r0, #12
    86a8:	4204      	tst	r4, r0
    86aa:	d007      	beq.n	86bc <__aeabi_dsub+0x558>
    86ac:	08cd      	lsrs	r5, r1, #3
    86ae:	4205      	tst	r5, r0
    86b0:	d104      	bne.n	86bc <__aeabi_dsub+0x558>
    86b2:	002c      	movs	r4, r5
    86b4:	4698      	mov	r8, r3
    86b6:	08d7      	lsrs	r7, r2, #3
    86b8:	0749      	lsls	r1, r1, #29
    86ba:	430f      	orrs	r7, r1
    86bc:	0f7b      	lsrs	r3, r7, #29
    86be:	00e4      	lsls	r4, r4, #3
    86c0:	431c      	orrs	r4, r3
    86c2:	00ff      	lsls	r7, r7, #3
    86c4:	4e30      	ldr	r6, [pc, #192]	; (8788 <__aeabi_dsub+0x624>)
    86c6:	e5d3      	b.n	8270 <__aeabi_dsub+0x10c>
    86c8:	4e2f      	ldr	r6, [pc, #188]	; (8788 <__aeabi_dsub+0x624>)
    86ca:	45b4      	cmp	ip, r6
    86cc:	d1b4      	bne.n	8638 <__aeabi_dsub+0x4d4>
    86ce:	000c      	movs	r4, r1
    86d0:	0017      	movs	r7, r2
    86d2:	4666      	mov	r6, ip
    86d4:	e5cc      	b.n	8270 <__aeabi_dsub+0x10c>
    86d6:	2700      	movs	r7, #0
    86d8:	2400      	movs	r4, #0
    86da:	e5e8      	b.n	82ae <__aeabi_dsub+0x14a>
    86dc:	2b00      	cmp	r3, #0
    86de:	d039      	beq.n	8754 <__aeabi_dsub+0x5f0>
    86e0:	000b      	movs	r3, r1
    86e2:	4313      	orrs	r3, r2
    86e4:	d100      	bne.n	86e8 <__aeabi_dsub+0x584>
    86e6:	e744      	b.n	8572 <__aeabi_dsub+0x40e>
    86e8:	08c0      	lsrs	r0, r0, #3
    86ea:	0767      	lsls	r7, r4, #29
    86ec:	4307      	orrs	r7, r0
    86ee:	2080      	movs	r0, #128	; 0x80
    86f0:	08e4      	lsrs	r4, r4, #3
    86f2:	0300      	lsls	r0, r0, #12
    86f4:	4204      	tst	r4, r0
    86f6:	d0e1      	beq.n	86bc <__aeabi_dsub+0x558>
    86f8:	08cb      	lsrs	r3, r1, #3
    86fa:	4203      	tst	r3, r0
    86fc:	d1de      	bne.n	86bc <__aeabi_dsub+0x558>
    86fe:	08d7      	lsrs	r7, r2, #3
    8700:	0749      	lsls	r1, r1, #29
    8702:	430f      	orrs	r7, r1
    8704:	001c      	movs	r4, r3
    8706:	e7d9      	b.n	86bc <__aeabi_dsub+0x558>
    8708:	2100      	movs	r1, #0
    870a:	e771      	b.n	85f0 <__aeabi_dsub+0x48c>
    870c:	2500      	movs	r5, #0
    870e:	2700      	movs	r7, #0
    8710:	e5e9      	b.n	82e6 <__aeabi_dsub+0x182>
    8712:	002e      	movs	r6, r5
    8714:	0027      	movs	r7, r4
    8716:	3e20      	subs	r6, #32
    8718:	40f7      	lsrs	r7, r6
    871a:	2d20      	cmp	r5, #32
    871c:	d02f      	beq.n	877e <__aeabi_dsub+0x61a>
    871e:	2640      	movs	r6, #64	; 0x40
    8720:	1b75      	subs	r5, r6, r5
    8722:	40ac      	lsls	r4, r5
    8724:	4650      	mov	r0, sl
    8726:	4320      	orrs	r0, r4
    8728:	1e44      	subs	r4, r0, #1
    872a:	41a0      	sbcs	r0, r4
    872c:	2400      	movs	r4, #0
    872e:	4338      	orrs	r0, r7
    8730:	e6dc      	b.n	84ec <__aeabi_dsub+0x388>
    8732:	2480      	movs	r4, #128	; 0x80
    8734:	2500      	movs	r5, #0
    8736:	0324      	lsls	r4, r4, #12
    8738:	4e13      	ldr	r6, [pc, #76]	; (8788 <__aeabi_dsub+0x624>)
    873a:	2700      	movs	r7, #0
    873c:	e5d3      	b.n	82e6 <__aeabi_dsub+0x182>
    873e:	4650      	mov	r0, sl
    8740:	4320      	orrs	r0, r4
    8742:	0007      	movs	r7, r0
    8744:	1e78      	subs	r0, r7, #1
    8746:	4187      	sbcs	r7, r0
    8748:	2400      	movs	r4, #0
    874a:	18bf      	adds	r7, r7, r2
    874c:	e760      	b.n	8610 <__aeabi_dsub+0x4ac>
    874e:	000c      	movs	r4, r1
    8750:	0017      	movs	r7, r2
    8752:	e58d      	b.n	8270 <__aeabi_dsub+0x10c>
    8754:	000c      	movs	r4, r1
    8756:	0017      	movs	r7, r2
    8758:	4e0b      	ldr	r6, [pc, #44]	; (8788 <__aeabi_dsub+0x624>)
    875a:	e589      	b.n	8270 <__aeabi_dsub+0x10c>
    875c:	001e      	movs	r6, r3
    875e:	0027      	movs	r7, r4
    8760:	3e20      	subs	r6, #32
    8762:	40f7      	lsrs	r7, r6
    8764:	2b20      	cmp	r3, #32
    8766:	d00c      	beq.n	8782 <__aeabi_dsub+0x61e>
    8768:	2640      	movs	r6, #64	; 0x40
    876a:	1af3      	subs	r3, r6, r3
    876c:	409c      	lsls	r4, r3
    876e:	4650      	mov	r0, sl
    8770:	4320      	orrs	r0, r4
    8772:	1e44      	subs	r4, r0, #1
    8774:	41a0      	sbcs	r0, r4
    8776:	4307      	orrs	r7, r0
    8778:	2400      	movs	r4, #0
    877a:	18bf      	adds	r7, r7, r2
    877c:	e748      	b.n	8610 <__aeabi_dsub+0x4ac>
    877e:	2400      	movs	r4, #0
    8780:	e7d0      	b.n	8724 <__aeabi_dsub+0x5c0>
    8782:	2400      	movs	r4, #0
    8784:	e7f3      	b.n	876e <__aeabi_dsub+0x60a>
    8786:	46c0      	nop			; (mov r8, r8)
    8788:	000007ff 	.word	0x000007ff
    878c:	ff7fffff 	.word	0xff7fffff

00008790 <__aeabi_dcmpun>:
    8790:	b570      	push	{r4, r5, r6, lr}
    8792:	4e0e      	ldr	r6, [pc, #56]	; (87cc <__aeabi_dcmpun+0x3c>)
    8794:	030d      	lsls	r5, r1, #12
    8796:	031c      	lsls	r4, r3, #12
    8798:	0049      	lsls	r1, r1, #1
    879a:	005b      	lsls	r3, r3, #1
    879c:	0b2d      	lsrs	r5, r5, #12
    879e:	0d49      	lsrs	r1, r1, #21
    87a0:	0b24      	lsrs	r4, r4, #12
    87a2:	0d5b      	lsrs	r3, r3, #21
    87a4:	42b1      	cmp	r1, r6
    87a6:	d004      	beq.n	87b2 <__aeabi_dcmpun+0x22>
    87a8:	4908      	ldr	r1, [pc, #32]	; (87cc <__aeabi_dcmpun+0x3c>)
    87aa:	2000      	movs	r0, #0
    87ac:	428b      	cmp	r3, r1
    87ae:	d008      	beq.n	87c2 <__aeabi_dcmpun+0x32>
    87b0:	bd70      	pop	{r4, r5, r6, pc}
    87b2:	4305      	orrs	r5, r0
    87b4:	2001      	movs	r0, #1
    87b6:	2d00      	cmp	r5, #0
    87b8:	d1fa      	bne.n	87b0 <__aeabi_dcmpun+0x20>
    87ba:	4904      	ldr	r1, [pc, #16]	; (87cc <__aeabi_dcmpun+0x3c>)
    87bc:	2000      	movs	r0, #0
    87be:	428b      	cmp	r3, r1
    87c0:	d1f6      	bne.n	87b0 <__aeabi_dcmpun+0x20>
    87c2:	4314      	orrs	r4, r2
    87c4:	0020      	movs	r0, r4
    87c6:	1e44      	subs	r4, r0, #1
    87c8:	41a0      	sbcs	r0, r4
    87ca:	e7f1      	b.n	87b0 <__aeabi_dcmpun+0x20>
    87cc:	000007ff 	.word	0x000007ff

000087d0 <__aeabi_d2iz>:
    87d0:	b530      	push	{r4, r5, lr}
    87d2:	4d13      	ldr	r5, [pc, #76]	; (8820 <__aeabi_d2iz+0x50>)
    87d4:	030a      	lsls	r2, r1, #12
    87d6:	004b      	lsls	r3, r1, #1
    87d8:	0b12      	lsrs	r2, r2, #12
    87da:	0d5b      	lsrs	r3, r3, #21
    87dc:	0fc9      	lsrs	r1, r1, #31
    87de:	2400      	movs	r4, #0
    87e0:	42ab      	cmp	r3, r5
    87e2:	dd10      	ble.n	8806 <__aeabi_d2iz+0x36>
    87e4:	4c0f      	ldr	r4, [pc, #60]	; (8824 <__aeabi_d2iz+0x54>)
    87e6:	42a3      	cmp	r3, r4
    87e8:	dc0f      	bgt.n	880a <__aeabi_d2iz+0x3a>
    87ea:	2480      	movs	r4, #128	; 0x80
    87ec:	4d0e      	ldr	r5, [pc, #56]	; (8828 <__aeabi_d2iz+0x58>)
    87ee:	0364      	lsls	r4, r4, #13
    87f0:	4322      	orrs	r2, r4
    87f2:	1aed      	subs	r5, r5, r3
    87f4:	2d1f      	cmp	r5, #31
    87f6:	dd0b      	ble.n	8810 <__aeabi_d2iz+0x40>
    87f8:	480c      	ldr	r0, [pc, #48]	; (882c <__aeabi_d2iz+0x5c>)
    87fa:	1ac3      	subs	r3, r0, r3
    87fc:	40da      	lsrs	r2, r3
    87fe:	4254      	negs	r4, r2
    8800:	2900      	cmp	r1, #0
    8802:	d100      	bne.n	8806 <__aeabi_d2iz+0x36>
    8804:	0014      	movs	r4, r2
    8806:	0020      	movs	r0, r4
    8808:	bd30      	pop	{r4, r5, pc}
    880a:	4b09      	ldr	r3, [pc, #36]	; (8830 <__aeabi_d2iz+0x60>)
    880c:	18cc      	adds	r4, r1, r3
    880e:	e7fa      	b.n	8806 <__aeabi_d2iz+0x36>
    8810:	4c08      	ldr	r4, [pc, #32]	; (8834 <__aeabi_d2iz+0x64>)
    8812:	40e8      	lsrs	r0, r5
    8814:	46a4      	mov	ip, r4
    8816:	4463      	add	r3, ip
    8818:	409a      	lsls	r2, r3
    881a:	4302      	orrs	r2, r0
    881c:	e7ef      	b.n	87fe <__aeabi_d2iz+0x2e>
    881e:	46c0      	nop			; (mov r8, r8)
    8820:	000003fe 	.word	0x000003fe
    8824:	0000041d 	.word	0x0000041d
    8828:	00000433 	.word	0x00000433
    882c:	00000413 	.word	0x00000413
    8830:	7fffffff 	.word	0x7fffffff
    8834:	fffffbed 	.word	0xfffffbed

00008838 <__aeabi_i2d>:
    8838:	b570      	push	{r4, r5, r6, lr}
    883a:	2800      	cmp	r0, #0
    883c:	d030      	beq.n	88a0 <__aeabi_i2d+0x68>
    883e:	17c3      	asrs	r3, r0, #31
    8840:	18c4      	adds	r4, r0, r3
    8842:	405c      	eors	r4, r3
    8844:	0fc5      	lsrs	r5, r0, #31
    8846:	0020      	movs	r0, r4
    8848:	f7fa f998 	bl	2b7c <__clzsi2>
    884c:	4b17      	ldr	r3, [pc, #92]	; (88ac <__aeabi_i2d+0x74>)
    884e:	4a18      	ldr	r2, [pc, #96]	; (88b0 <__aeabi_i2d+0x78>)
    8850:	1a1b      	subs	r3, r3, r0
    8852:	1ad2      	subs	r2, r2, r3
    8854:	2a1f      	cmp	r2, #31
    8856:	dd18      	ble.n	888a <__aeabi_i2d+0x52>
    8858:	4a16      	ldr	r2, [pc, #88]	; (88b4 <__aeabi_i2d+0x7c>)
    885a:	1ad2      	subs	r2, r2, r3
    885c:	4094      	lsls	r4, r2
    885e:	2200      	movs	r2, #0
    8860:	0324      	lsls	r4, r4, #12
    8862:	055b      	lsls	r3, r3, #21
    8864:	0b24      	lsrs	r4, r4, #12
    8866:	0d5b      	lsrs	r3, r3, #21
    8868:	2100      	movs	r1, #0
    886a:	0010      	movs	r0, r2
    886c:	0324      	lsls	r4, r4, #12
    886e:	0d0a      	lsrs	r2, r1, #20
    8870:	0b24      	lsrs	r4, r4, #12
    8872:	0512      	lsls	r2, r2, #20
    8874:	4322      	orrs	r2, r4
    8876:	4c10      	ldr	r4, [pc, #64]	; (88b8 <__aeabi_i2d+0x80>)
    8878:	051b      	lsls	r3, r3, #20
    887a:	4022      	ands	r2, r4
    887c:	4313      	orrs	r3, r2
    887e:	005b      	lsls	r3, r3, #1
    8880:	07ed      	lsls	r5, r5, #31
    8882:	085b      	lsrs	r3, r3, #1
    8884:	432b      	orrs	r3, r5
    8886:	0019      	movs	r1, r3
    8888:	bd70      	pop	{r4, r5, r6, pc}
    888a:	0021      	movs	r1, r4
    888c:	4091      	lsls	r1, r2
    888e:	000a      	movs	r2, r1
    8890:	210b      	movs	r1, #11
    8892:	1a08      	subs	r0, r1, r0
    8894:	40c4      	lsrs	r4, r0
    8896:	055b      	lsls	r3, r3, #21
    8898:	0324      	lsls	r4, r4, #12
    889a:	0b24      	lsrs	r4, r4, #12
    889c:	0d5b      	lsrs	r3, r3, #21
    889e:	e7e3      	b.n	8868 <__aeabi_i2d+0x30>
    88a0:	2500      	movs	r5, #0
    88a2:	2300      	movs	r3, #0
    88a4:	2400      	movs	r4, #0
    88a6:	2200      	movs	r2, #0
    88a8:	e7de      	b.n	8868 <__aeabi_i2d+0x30>
    88aa:	46c0      	nop			; (mov r8, r8)
    88ac:	0000041e 	.word	0x0000041e
    88b0:	00000433 	.word	0x00000433
    88b4:	00000413 	.word	0x00000413
    88b8:	800fffff 	.word	0x800fffff

000088bc <__aeabi_ui2d>:
    88bc:	b510      	push	{r4, lr}
    88be:	1e04      	subs	r4, r0, #0
    88c0:	d028      	beq.n	8914 <__aeabi_ui2d+0x58>
    88c2:	f7fa f95b 	bl	2b7c <__clzsi2>
    88c6:	4b15      	ldr	r3, [pc, #84]	; (891c <__aeabi_ui2d+0x60>)
    88c8:	4a15      	ldr	r2, [pc, #84]	; (8920 <__aeabi_ui2d+0x64>)
    88ca:	1a1b      	subs	r3, r3, r0
    88cc:	1ad2      	subs	r2, r2, r3
    88ce:	2a1f      	cmp	r2, #31
    88d0:	dd15      	ble.n	88fe <__aeabi_ui2d+0x42>
    88d2:	4a14      	ldr	r2, [pc, #80]	; (8924 <__aeabi_ui2d+0x68>)
    88d4:	1ad2      	subs	r2, r2, r3
    88d6:	4094      	lsls	r4, r2
    88d8:	2200      	movs	r2, #0
    88da:	0324      	lsls	r4, r4, #12
    88dc:	055b      	lsls	r3, r3, #21
    88de:	0b24      	lsrs	r4, r4, #12
    88e0:	0d5b      	lsrs	r3, r3, #21
    88e2:	2100      	movs	r1, #0
    88e4:	0010      	movs	r0, r2
    88e6:	0324      	lsls	r4, r4, #12
    88e8:	0d0a      	lsrs	r2, r1, #20
    88ea:	0b24      	lsrs	r4, r4, #12
    88ec:	0512      	lsls	r2, r2, #20
    88ee:	4322      	orrs	r2, r4
    88f0:	4c0d      	ldr	r4, [pc, #52]	; (8928 <__aeabi_ui2d+0x6c>)
    88f2:	051b      	lsls	r3, r3, #20
    88f4:	4022      	ands	r2, r4
    88f6:	4313      	orrs	r3, r2
    88f8:	005b      	lsls	r3, r3, #1
    88fa:	0859      	lsrs	r1, r3, #1
    88fc:	bd10      	pop	{r4, pc}
    88fe:	0021      	movs	r1, r4
    8900:	4091      	lsls	r1, r2
    8902:	000a      	movs	r2, r1
    8904:	210b      	movs	r1, #11
    8906:	1a08      	subs	r0, r1, r0
    8908:	40c4      	lsrs	r4, r0
    890a:	055b      	lsls	r3, r3, #21
    890c:	0324      	lsls	r4, r4, #12
    890e:	0b24      	lsrs	r4, r4, #12
    8910:	0d5b      	lsrs	r3, r3, #21
    8912:	e7e6      	b.n	88e2 <__aeabi_ui2d+0x26>
    8914:	2300      	movs	r3, #0
    8916:	2400      	movs	r4, #0
    8918:	2200      	movs	r2, #0
    891a:	e7e2      	b.n	88e2 <__aeabi_ui2d+0x26>
    891c:	0000041e 	.word	0x0000041e
    8920:	00000433 	.word	0x00000433
    8924:	00000413 	.word	0x00000413
    8928:	800fffff 	.word	0x800fffff

0000892c <__clzdi2>:
    892c:	b510      	push	{r4, lr}
    892e:	2900      	cmp	r1, #0
    8930:	d103      	bne.n	893a <__clzdi2+0xe>
    8932:	f7fa f923 	bl	2b7c <__clzsi2>
    8936:	3020      	adds	r0, #32
    8938:	e002      	b.n	8940 <__clzdi2+0x14>
    893a:	1c08      	adds	r0, r1, #0
    893c:	f7fa f91e 	bl	2b7c <__clzsi2>
    8940:	bd10      	pop	{r4, pc}
    8942:	46c0      	nop			; (mov r8, r8)
    8944:	00000476 	.word	0x00000476
    8948:	000004bc 	.word	0x000004bc
    894c:	000004bc 	.word	0x000004bc
    8950:	000004bc 	.word	0x000004bc
    8954:	000004bc 	.word	0x000004bc
    8958:	000004bc 	.word	0x000004bc
    895c:	000004bc 	.word	0x000004bc
    8960:	000004bc 	.word	0x000004bc
    8964:	000004bc 	.word	0x000004bc
    8968:	000004bc 	.word	0x000004bc
    896c:	000004bc 	.word	0x000004bc
    8970:	000004bc 	.word	0x000004bc
    8974:	000004bc 	.word	0x000004bc
    8978:	000004bc 	.word	0x000004bc
    897c:	000004bc 	.word	0x000004bc
    8980:	000004bc 	.word	0x000004bc
    8984:	000004bc 	.word	0x000004bc
    8988:	000004bc 	.word	0x000004bc
    898c:	0000056c 	.word	0x0000056c
    8990:	000004bc 	.word	0x000004bc
    8994:	000004bc 	.word	0x000004bc
    8998:	000004bc 	.word	0x000004bc
    899c:	000004bc 	.word	0x000004bc
    89a0:	000004bc 	.word	0x000004bc
    89a4:	0000054e 	.word	0x0000054e
    89a8:	000004bc 	.word	0x000004bc
    89ac:	000004bc 	.word	0x000004bc
    89b0:	0000052a 	.word	0x0000052a
    89b4:	000004bc 	.word	0x000004bc
    89b8:	000004bc 	.word	0x000004bc
    89bc:	000004bc 	.word	0x000004bc
    89c0:	000004bc 	.word	0x000004bc
    89c4:	0000050a 	.word	0x0000050a
    89c8:	000004bc 	.word	0x000004bc
    89cc:	000004bc 	.word	0x000004bc
    89d0:	000004bc 	.word	0x000004bc
    89d4:	000004bc 	.word	0x000004bc
    89d8:	000004bc 	.word	0x000004bc
    89dc:	000004bc 	.word	0x000004bc
    89e0:	000004bc 	.word	0x000004bc
    89e4:	000004bc 	.word	0x000004bc
    89e8:	000004bc 	.word	0x000004bc
    89ec:	000004bc 	.word	0x000004bc
    89f0:	000004bc 	.word	0x000004bc
    89f4:	000004ec 	.word	0x000004ec
    89f8:	000004bc 	.word	0x000004bc
    89fc:	000004bc 	.word	0x000004bc
    8a00:	000004bc 	.word	0x000004bc
    8a04:	000004bc 	.word	0x000004bc
    8a08:	000004bc 	.word	0x000004bc
    8a0c:	000004ce 	.word	0x000004ce
    8a10:	000004bc 	.word	0x000004bc
    8a14:	000004bc 	.word	0x000004bc
    8a18:	000004bc 	.word	0x000004bc
    8a1c:	000004bc 	.word	0x000004bc
    8a20:	000004bc 	.word	0x000004bc
    8a24:	0000058a 	.word	0x0000058a
    8a28:	000005ee 	.word	0x000005ee
    8a2c:	0000063c 	.word	0x0000063c
    8a30:	0000063c 	.word	0x0000063c
    8a34:	0000063c 	.word	0x0000063c
    8a38:	0000063c 	.word	0x0000063c
    8a3c:	0000063c 	.word	0x0000063c
    8a40:	0000063c 	.word	0x0000063c
    8a44:	0000063c 	.word	0x0000063c
    8a48:	0000063c 	.word	0x0000063c
    8a4c:	0000063c 	.word	0x0000063c
    8a50:	0000063c 	.word	0x0000063c
    8a54:	0000063c 	.word	0x0000063c
    8a58:	0000063c 	.word	0x0000063c
    8a5c:	0000063c 	.word	0x0000063c
    8a60:	0000063c 	.word	0x0000063c
    8a64:	0000063c 	.word	0x0000063c
    8a68:	0000063c 	.word	0x0000063c
    8a6c:	0000063c 	.word	0x0000063c
    8a70:	000006f6 	.word	0x000006f6
    8a74:	0000063c 	.word	0x0000063c
    8a78:	0000063c 	.word	0x0000063c
    8a7c:	0000063c 	.word	0x0000063c
    8a80:	0000063c 	.word	0x0000063c
    8a84:	0000063c 	.word	0x0000063c
    8a88:	000006d6 	.word	0x000006d6
    8a8c:	0000063c 	.word	0x0000063c
    8a90:	0000063c 	.word	0x0000063c
    8a94:	000006b0 	.word	0x000006b0
    8a98:	0000063c 	.word	0x0000063c
    8a9c:	0000063c 	.word	0x0000063c
    8aa0:	0000063c 	.word	0x0000063c
    8aa4:	0000063c 	.word	0x0000063c
    8aa8:	0000068e 	.word	0x0000068e
    8aac:	0000063c 	.word	0x0000063c
    8ab0:	0000063c 	.word	0x0000063c
    8ab4:	0000063c 	.word	0x0000063c
    8ab8:	0000063c 	.word	0x0000063c
    8abc:	0000063c 	.word	0x0000063c
    8ac0:	0000063c 	.word	0x0000063c
    8ac4:	0000063c 	.word	0x0000063c
    8ac8:	0000063c 	.word	0x0000063c
    8acc:	0000063c 	.word	0x0000063c
    8ad0:	0000063c 	.word	0x0000063c
    8ad4:	0000063c 	.word	0x0000063c
    8ad8:	0000066e 	.word	0x0000066e
    8adc:	0000063c 	.word	0x0000063c
    8ae0:	0000063c 	.word	0x0000063c
    8ae4:	0000063c 	.word	0x0000063c
    8ae8:	0000063c 	.word	0x0000063c
    8aec:	0000063c 	.word	0x0000063c
    8af0:	0000064e 	.word	0x0000064e
    8af4:	0000063c 	.word	0x0000063c
    8af8:	0000063c 	.word	0x0000063c
    8afc:	0000063c 	.word	0x0000063c
    8b00:	0000063c 	.word	0x0000063c
    8b04:	0000063c 	.word	0x0000063c
    8b08:	00000716 	.word	0x00000716

00008b0c <_ZL19ssd1306oled_font6x8>:
	...
    8b14:	00002f00 00070000 14000007 147f147f     ./..............
    8b24:	7f2a2400 6200122a 23130864 55493600     .$*.*..bd..#.6IU
    8b34:	00005022 00000305 221c0000 00000041     "P........."A...
    8b44:	001c2241 3e081400 08001408 08083e08     A".....>.....>..
    8b54:	a0000000 08000060 08080808 60600000     ....`.........``
    8b64:	20000000 02040810 49513e00 00003e45     ... .....>QIE>..
    8b74:	00407f42 51614200 21004649 314b4541     B.@..BaQIF.!AEK1
    8b84:	12141800 2700107f 39454545 494a3c00     .......'EEE9.<JI
    8b94:	01003049 03050971 49493600 06003649     I0..q....6III6..
    8ba4:	1e294949 36360000 00000000 00003656     II)...66....V6..
    8bb4:	22140800 14000041 14141414 22410000     ..."A.........A"
    8bc4:	02000814 06095101 59493200 7c003e51     .....Q...2IYQ>.|
    8bd4:	7c121112 49497f00 3e003649 22414141     ...|..III6.>AAA"
    8be4:	41417f00 7f001c22 41494949 09097f00     ..AA"...IIIA....
    8bf4:	3e000109 7a494941 08087f00 00007f08     ...>AIIz........
    8c04:	00417f41 41402000 7f00013f 41221408     A.A.. @A?....."A
    8c14:	40407f00 7f004040 7f020c02 08047f00     ..@@@@..........
    8c24:	3e007f10 3e414141 09097f00 3e000609     ...>AAA>.......>
    8c34:	5e215141 19097f00 46004629 31494949     AQ!^....)F.FIII1
    8c44:	7f010100 3f000101 3f404040 40201f00     .......?@@@?.. @
    8c54:	3f001f20 3f403840 08146300 07006314      ..?@8@?.c...c..
    8c64:	07087008 49516100 00004345 0041417f     .p...aQIEC...AA.
    8c74:	552a5500 0000552a 007f4141 01020400     .U*U*U..AA......
    8c84:	40000402 40404040 02010000 20000004     ...@@@@@....... 
    8c94:	78545454 44487f00 38003844 20444444     TTTx..HDD8.8DDD 
    8ca4:	44443800 38007f48 18545454 097e0800     .8DDH..8TTT...~.
    8cb4:	18000201 7ca4a4a4 04087f00 00007804     .......|.....x..
    8cc4:	00407d44 84804000 7f00007d 00442810     D}@..@..}....(D.
    8cd4:	7f410000 7c000040 78041804 04087c00     ..A.@..|...x.|..
    8ce4:	38007804 38444444 2424fc00 18001824     .x.8DDD8..$$$...
    8cf4:	fc182424 04087c00 48000804 20545454     $$...|.....HTTT 
    8d04:	443f0400 3c002040 7c204040 40201c00     ..?D@ .<@@ |.. @
    8d14:	3c001c20 3c403040 10284400 1c004428      ..<@0@<.D(.(D..
    8d24:	7ca0a0a0 54644400 0000444c 00417708     ...|.DdTLD...wA.
    8d34:	63000000 00000000 00087741 08040800     ...c....Aw......
    8d44:	3d000408 7d204040 40403d00 21003d40     ...=@@ }.=@@@=.!
    8d54:	79545454 11127d00 39007d12 39444444     TTTy.}...}.9DDD9
    8d64:	42423d00 02003d42 00000205 49017e00     .=BBB=.......~.I
    8d74:	00007355 32534449 61724220 67657275     Us..IDS2 Braureg
    8d84:	6e756c65 00000067 2d525750 6576654c     elung...PWR-Leve
    8d94:	00203a6c 00000020 0000003e 2d525750     l: . ...>...PWR-
    8da4:	6576654c 25203a6c 00002f64 00006425     Level: %d/..%d..
    8db4:	6c6c6f53 74726577 0000203a 7a696548     Sollwert: ..Heiz
    8dc4:	20676e75 00206e61 7a696548 20676e75     ung an .Heizung 
    8dd4:	00737561 706d6554 74617265 203a7275     aus.Temperatur: 
    8de4:	66322e25 00000000 6c6c6f53 74726577     %.2f....Sollwert
    8df4:	2e25203a 00006632 6c657453 6172676c     : %.2f..Stellgra
    8e04:	25203a64 00252064 2d525750 6576654c     d: %d %.PWR-Leve
    8e14:	25203a6c 64252f64 00000000 65776f50     l: %d/%d....Powe
    8e24:	25203a72 64252f64 00000000 00002020     r: %d/%d....  ..
    8e34:	0000222c 000021fc 0000220e 00002150     ,"...!..."..P!..
    8e44:	0000220e 000021f2 0000220e 00002150     ."...!..."..P!..
    8e54:	000021fc 000021fc 000021f2 00002150     .!...!...!..P!..
    8e64:	00002158 00002158 00002158 00002214     X!..X!..X!..."..
    8e74:	000021fc 000021fc 000021d0 000022b4     .!...!...!..."..
    8e84:	000021d0 000021f2 000021d0 000022b4     .!...!...!..."..
    8e94:	000021fc 000021fc 000021f2 000022b4     .!...!...!..."..
    8ea4:	00002158 00002158 00002158 000022be     X!..X!..X!..."..
    8eb4:	000025ac 000024fc 000024fc 000024fa     .%...$...$...$..
    8ec4:	0000259e 0000259e 00002594 000024fa     .%...%...%...$..
    8ed4:	0000259e 00002594 0000259e 000024fa     .%...%...%...$..
    8ee4:	000025a4 000025a4 000025a4 00002634     .%...%...%..4&..

00008ef4 <_global_impure_ptr>:
    8ef4:	20000318 00003334 000033a8 000033a8     ... 43...3...3..
    8f04:	00003318 000033a8 000033a8 000033a8     .3...3...3...3..
    8f14:	000033a8 000033a8 000033a8 00003320     .3...3...3.. 3..
    8f24:	00002e02 000033a8 00002dbc 00002e0c     .....3...-......
    8f34:	000033a8 00002e58 00003042 00003042     .3..X...B0..B0..
    8f44:	00003042 00003042 00003042 00003042     B0..B0..B0..B0..
    8f54:	00003042 00003042 00003042 000033a8     B0..B0..B0...3..
    8f64:	000033a8 000033a8 000033a8 000033a8     .3...3...3...3..
    8f74:	000033a8 000033a8 000033a8 000033a8     .3...3...3...3..
    8f84:	000033a8 00002e60 00002fa8 000033a8     .3..`..../...3..
    8f94:	00002fa8 000033a8 000033a8 000033a8     ./...3...3...3..
    8fa4:	000033a8 00003072 000033a8 000033a8     .3..r0...3...3..
    8fb4:	0000307a 000033a8 000033a8 000033a8     z0...3...3...3..
    8fc4:	000033a8 000033a8 0000311c 000033a8     .3...3...1...3..
    8fd4:	000033a8 0000314e 000033a8 000033a8     .3..N1...3...3..
    8fe4:	000033a8 000033a8 000033a8 000033a8     .3...3...3...3..
    8ff4:	000033a8 000033a8 000033a8 000033a8     .3...3...3...3..
    9004:	00003248 0000327c 00002fa8 00002fa8     H2..|2.../.../..
    9014:	00002fa8 0000328e 0000327c 000033a8     ./...2..|2...3..
    9024:	000033a8 00003296 000033a8 000031b0     .3...2...3...1..
    9034:	00003376 000032ec 000031e6 000033a8     v3...2...1...3..
    9044:	000031ee 000033a8 00003344 000033a8     .1...3..D3...3..
    9054:	000033a8 000032a6 00464e49 00666e69     .3...2..INF.inf.
    9064:	004e414e 006e616e 33323130 37363534     NAN.nan.01234567
    9074:	42413938 46454443 00000000 33323130     89ABCDEF....0123
    9084:	37363534 62613938 66656463 00000000     456789abcdef....
    9094:	6c756e28 0000296c 00000030              (null)..0...

000090a0 <blanks.7223>:
    90a0:	20202020 20202020 20202020 20202020                     

000090b0 <zeroes.7224>:
    90b0:	30303030 30303030 30303030 30303030     0000000000000000
    90c0:	33323130 37363534 62613938 66656463     0123456789abcdef
    90d0:	6a696867 6e6d6c6b 7271706f 76757473     ghijklmnopqrstuv
    90e0:	7a797877 00000000 69666e49 7974696e     wxyz....Infinity
    90f0:	00000000 004e614e                       ....NaN.

000090f8 <__mprec_bigtens>:
    90f8:	37e08000 4341c379 b5056e17 4693b8b5     ...7y.AC.n.....F
    9108:	e93ff9f5 4d384f03 f9301d32 5a827748     ..?..O8M2.0.Hw.Z
    9118:	7f73bf3c 75154fdd                       <.s..O.u

00009120 <__mprec_tens>:
    9120:	00000000 3ff00000 00000000 40240000     .......?......$@
    9130:	00000000 40590000 00000000 408f4000     ......Y@.....@.@
    9140:	00000000 40c38800 00000000 40f86a00     .......@.....j.@
    9150:	00000000 412e8480 00000000 416312d0     .......A......cA
    9160:	00000000 4197d784 00000000 41cdcd65     .......A....e..A
    9170:	20000000 4202a05f e8000000 42374876     ... _..B....vH7B
    9180:	a2000000 426d1a94 e5400000 42a2309c     ......mB..@..0.B
    9190:	1e900000 42d6bcc4 26340000 430c6bf5     .......B..4&.k.C
    91a0:	37e08000 4341c379 85d8a000 43763457     ...7y.AC....W4vC
    91b0:	674ec800 43abc16d 60913d00 43e158e4     ..Ngm..C.=.`.X.C
    91c0:	78b58c40 4415af1d d6e2ef50 444b1ae4     @..x...DP.....KD
    91d0:	064dd592 4480f0cf c7e14af6 44b52d02     ..M....D.J...-.D
    91e0:	79d99db4 44ea7843                       ...yCx.D

000091e8 <p05.6055>:
    91e8:	00000005 00000019 0000007d 00000043     ........}...C...
    91f8:	49534f50 00000058 0000002e              POSIX.......

00009204 <_ctype_>:
    9204:	20202000 20202020 28282020 20282828     .         ((((( 
    9214:	20202020 20202020 20202020 20202020                     
    9224:	10108820 10101010 10101010 10101010      ...............
    9234:	04040410 04040404 10040404 10101010     ................
    9244:	41411010 41414141 01010101 01010101     ..AAAAAA........
    9254:	01010101 01010101 01010101 10101010     ................
    9264:	42421010 42424242 02020202 02020202     ..BBBBBB........
    9274:	02020202 02020202 02020202 10101010     ................
    9284:	00000020 00000000 00000000 00000000      ...............
	...
    9308:	000075f4 000075d6 00007590 000074ae     .u...u...u...t..
    9318:	00007590 000075c8 00007590 000074ae     .u...u...u...t..
    9328:	000075d6 000075d6 000075c8 000074ae     .u...u...u...t..
    9338:	000074a6 000074a6 000074a6 0000780c     .t...t...t...x..
    9348:	00007e54 00007d14 00007d14 00007d10     T~...}...}...}..
    9358:	00007e2c 00007e2c 00007e1e 00007d10     ,~..,~...~...}..
    9368:	00007e2c 00007e1e 00007e2c 00007d10     ,~...~..,~...}..
    9378:	00007e34 00007e34 00007e34 00008038     4~..4~..4~..8...

00009388 <_init>:
    9388:	b5f8      	push	{r3, r4, r5, r6, r7, lr}
    938a:	46c0      	nop			; (mov r8, r8)
    938c:	bcf8      	pop	{r3, r4, r5, r6, r7}
    938e:	bc08      	pop	{r3}
    9390:	469e      	mov	lr, r3
    9392:	4770      	bx	lr

00009394 <__init_array_start>:
    9394:	00004375 	.word	0x00004375

00009398 <__frame_dummy_init_array_entry>:
    9398:	000000e5                                ....

0000939c <_fini>:
    939c:	b5f8      	push	{r3, r4, r5, r6, r7, lr}
    939e:	46c0      	nop			; (mov r8, r8)
    93a0:	bcf8      	pop	{r3, r4, r5, r6, r7}
    93a2:	bc08      	pop	{r3}
    93a4:	469e      	mov	lr, r3
    93a6:	4770      	bx	lr

000093a8 <__fini_array_start>:
    93a8:	000000bd 	.word	0x000000bd
